ARM GAS  C:\Users\LIAMSA~1\AppData\Local\Temp\cc7Yswwd.s 			page 1


   1              		.syntax unified
   2              		.cpu cortex-m0
   3              		.fpu softvfp
   4              		.eabi_attribute 20, 1
   5              		.eabi_attribute 21, 1
   6              		.eabi_attribute 23, 3
   7              		.eabi_attribute 24, 1
   8              		.eabi_attribute 25, 1
   9              		.eabi_attribute 26, 1
  10              		.eabi_attribute 30, 6
  11              		.eabi_attribute 34, 0
  12              		.eabi_attribute 18, 4
  13              		.thumb
  14              		.syntax unified
  15              		.file	"CYBLE_eventHandler.c"
  16              		.text
  17              	.Ltext0:
  18              		.cfi_sections	.debug_frame
  19              		.comm	cyBle_connHandle,2,4
  20              		.comm	cyBle_eventHandlerFlag,1,1
  21              		.comm	cyBle_busyStatus,1,1
  22              		.global	cyBle_gaps
  23              		.section	.rodata
  24              		.align	2
  25              		.type	cyBle_gaps, %object
  26              		.size	cyBle_gaps, 12
  27              	cyBle_gaps:
  28 0000 0100     		.short	1
  29 0002 0300     		.short	3
  30 0004 0500     		.short	5
  31 0006 0700     		.short	7
  32 0008 0000     		.short	0
  33 000a 0000     		.short	0
  34              		.comm	cyBle_advertisingIntervalType,1,1
  35              		.global	cyBle_authInfo
  36              		.data
  37              		.align	2
  38              		.type	cyBle_authInfo, %object
  39              		.size	cyBle_authInfo, 5
  40              	cyBle_authInfo:
  41 0000 10       		.byte	16
  42 0001 00       		.byte	0
  43 0002 10       		.byte	16
  44 0003 00       		.byte	0
  45 0004 00       		.byte	0
  46              		.section	.text.CyBle_WriteReqHandler,"ax",%progbits
  47              		.align	2
  48              		.code	16
  49              		.thumb_func
  50              		.type	CyBle_WriteReqHandler, %function
  51              	CyBle_WriteReqHandler:
  52              	.LFB2:
  53              		.file 1 "Generated_Source\\PSoC4\\CYBLE_eventHandler.c"
   1:Generated_Source\PSoC4/CYBLE_eventHandler.c **** /***************************************************************************//**
   2:Generated_Source\PSoC4/CYBLE_eventHandler.c **** * \file CYBLE_eventHandler.c
   3:Generated_Source\PSoC4/CYBLE_eventHandler.c **** * \version 3.66
   4:Generated_Source\PSoC4/CYBLE_eventHandler.c **** * 
ARM GAS  C:\Users\LIAMSA~1\AppData\Local\Temp\cc7Yswwd.s 			page 2


   5:Generated_Source\PSoC4/CYBLE_eventHandler.c **** * \brief
   6:Generated_Source\PSoC4/CYBLE_eventHandler.c **** *  This file contains the source code for the Event Handler State Machine
   7:Generated_Source\PSoC4/CYBLE_eventHandler.c **** *  of the BLE Component.
   8:Generated_Source\PSoC4/CYBLE_eventHandler.c **** * 
   9:Generated_Source\PSoC4/CYBLE_eventHandler.c **** ********************************************************************************
  10:Generated_Source\PSoC4/CYBLE_eventHandler.c **** * \copyright
  11:Generated_Source\PSoC4/CYBLE_eventHandler.c **** * Copyright 2014-2020, Cypress Semiconductor Corporation.  All rights reserved.
  12:Generated_Source\PSoC4/CYBLE_eventHandler.c **** * You may use this file only in accordance with the license, terms, conditions,
  13:Generated_Source\PSoC4/CYBLE_eventHandler.c **** * disclaimers, and limitations in the end user license agreement accompanying
  14:Generated_Source\PSoC4/CYBLE_eventHandler.c **** * the software package with which this file was provided.
  15:Generated_Source\PSoC4/CYBLE_eventHandler.c **** *******************************************************************************/
  16:Generated_Source\PSoC4/CYBLE_eventHandler.c **** 
  17:Generated_Source\PSoC4/CYBLE_eventHandler.c **** #include "CYBLE_eventHandler.h"
  18:Generated_Source\PSoC4/CYBLE_eventHandler.c **** 
  19:Generated_Source\PSoC4/CYBLE_eventHandler.c **** 
  20:Generated_Source\PSoC4/CYBLE_eventHandler.c **** /***************************************
  21:Generated_Source\PSoC4/CYBLE_eventHandler.c **** * Private Function Prototypes
  22:Generated_Source\PSoC4/CYBLE_eventHandler.c **** ***************************************/
  23:Generated_Source\PSoC4/CYBLE_eventHandler.c **** 
  24:Generated_Source\PSoC4/CYBLE_eventHandler.c **** static void CyBle_GattDisconnectEventHandler(void);
  25:Generated_Source\PSoC4/CYBLE_eventHandler.c **** static void CyBle_TimeOutEventHandler(const CYBLE_TO_REASON_CODE_T *eventParam);
  26:Generated_Source\PSoC4/CYBLE_eventHandler.c **** static void CyBle_GattConnectReqHandler(void);
  27:Generated_Source\PSoC4/CYBLE_eventHandler.c **** static void CyBle_L2Cap_ConnParamUpdateRspEventHandler(uint16 response);
  28:Generated_Source\PSoC4/CYBLE_eventHandler.c **** static void CyBle_GapConnUpdateCompleteEventHandler(const CYBLE_GAP_CONN_PARAM_UPDATED_IN_CONTROLLE
  29:Generated_Source\PSoC4/CYBLE_eventHandler.c **** 
  30:Generated_Source\PSoC4/CYBLE_eventHandler.c **** 
  31:Generated_Source\PSoC4/CYBLE_eventHandler.c **** #if (CYBLE_GATT_ROLE_SERVER)
  32:Generated_Source\PSoC4/CYBLE_eventHandler.c **** 
  33:Generated_Source\PSoC4/CYBLE_eventHandler.c **** static void CyBle_WriteReqHandler(CYBLE_GATTS_WRITE_REQ_PARAM_T *eventParam);
  34:Generated_Source\PSoC4/CYBLE_eventHandler.c **** static void CyBle_ValueConfirmation(const CYBLE_CONN_HANDLE_T *eventParam);
  35:Generated_Source\PSoC4/CYBLE_eventHandler.c **** 
  36:Generated_Source\PSoC4/CYBLE_eventHandler.c **** #endif /* CYBLE_GATT_ROLE_SERVER */
  37:Generated_Source\PSoC4/CYBLE_eventHandler.c **** 
  38:Generated_Source\PSoC4/CYBLE_eventHandler.c **** #if (CYBLE_GATT_ROLE_CLIENT)
  39:Generated_Source\PSoC4/CYBLE_eventHandler.c **** 
  40:Generated_Source\PSoC4/CYBLE_eventHandler.c **** static void CyBle_GapcDiscoverCharacteristicsEventHandler(CYBLE_DISC_CHAR_INFO_T *discCharInfo);
  41:Generated_Source\PSoC4/CYBLE_eventHandler.c **** static CYBLE_GATT_ATTR_HANDLE_RANGE_T CyBle_GetCharRange(void);
  42:Generated_Source\PSoC4/CYBLE_eventHandler.c **** static void CyBle_GattcWriteResponseEventHandler(const CYBLE_CONN_HANDLE_T *eventParam);
  43:Generated_Source\PSoC4/CYBLE_eventHandler.c **** static void CyBle_NotificationEventHandler(CYBLE_GATTC_HANDLE_VALUE_NTF_PARAM_T *eventParam);
  44:Generated_Source\PSoC4/CYBLE_eventHandler.c **** static void CyBle_IndicationEventHandler(CYBLE_GATTC_HANDLE_VALUE_IND_PARAM_T *eventParam);
  45:Generated_Source\PSoC4/CYBLE_eventHandler.c **** static void CyBle_ReadResponseEventHandler(CYBLE_GATTC_READ_RSP_PARAM_T *eventParam);
  46:Generated_Source\PSoC4/CYBLE_eventHandler.c **** static void CyBle_ReadMultipleResponseEventHandler(CYBLE_GATTC_READ_RSP_PARAM_T *eventParam);
  47:Generated_Source\PSoC4/CYBLE_eventHandler.c **** 
  48:Generated_Source\PSoC4/CYBLE_eventHandler.c **** #endif /* CYBLE_GATT_ROLE_CLIENT */
  49:Generated_Source\PSoC4/CYBLE_eventHandler.c **** 
  50:Generated_Source\PSoC4/CYBLE_eventHandler.c **** 
  51:Generated_Source\PSoC4/CYBLE_eventHandler.c **** /***************************************
  52:Generated_Source\PSoC4/CYBLE_eventHandler.c **** * Global Variables
  53:Generated_Source\PSoC4/CYBLE_eventHandler.c **** ***************************************/
  54:Generated_Source\PSoC4/CYBLE_eventHandler.c **** 
  55:Generated_Source\PSoC4/CYBLE_eventHandler.c **** /* This global variable is initialized after connection with peer device, 
  56:Generated_Source\PSoC4/CYBLE_eventHandler.c ****    after CYBLE_EVT_GATT_CONNECT_IND event, and could be used by application code
  57:Generated_Source\PSoC4/CYBLE_eventHandler.c ****    to send data to peer device. 
  58:Generated_Source\PSoC4/CYBLE_eventHandler.c **** */
  59:Generated_Source\PSoC4/CYBLE_eventHandler.c **** CYBLE_CONN_HANDLE_T cyBle_connHandle;
  60:Generated_Source\PSoC4/CYBLE_eventHandler.c **** 
  61:Generated_Source\PSoC4/CYBLE_eventHandler.c **** volatile uint8 cyBle_eventHandlerFlag;
ARM GAS  C:\Users\LIAMSA~1\AppData\Local\Temp\cc7Yswwd.s 			page 3


  62:Generated_Source\PSoC4/CYBLE_eventHandler.c **** volatile uint8 cyBle_busyStatus;
  63:Generated_Source\PSoC4/CYBLE_eventHandler.c **** 
  64:Generated_Source\PSoC4/CYBLE_eventHandler.c **** const CYBLE_GAPS_T cyBle_gaps =
  65:Generated_Source\PSoC4/CYBLE_eventHandler.c **** {
  66:Generated_Source\PSoC4/CYBLE_eventHandler.c ****     0x0001u,    /* Handle of the GAP service */
  67:Generated_Source\PSoC4/CYBLE_eventHandler.c ****     0x0003u,    /* Handle of the Device Name characteristic */
  68:Generated_Source\PSoC4/CYBLE_eventHandler.c ****     0x0005u,    /* Handle of the Appearance characteristic */
  69:Generated_Source\PSoC4/CYBLE_eventHandler.c ****     0x0007u,    /* Handle of the Peripheral Preferred Connection Parameters characteristic */
  70:Generated_Source\PSoC4/CYBLE_eventHandler.c ****     CYBLE_GATT_INVALID_ATTR_HANDLE_VALUE, /* Handle of the Central Address Resolution characteristi
  71:Generated_Source\PSoC4/CYBLE_eventHandler.c ****     CYBLE_GATT_INVALID_ATTR_HANDLE_VALUE, /* Handle of the Resolvable Private Address Only characte
  72:Generated_Source\PSoC4/CYBLE_eventHandler.c **** };
  73:Generated_Source\PSoC4/CYBLE_eventHandler.c **** 
  74:Generated_Source\PSoC4/CYBLE_eventHandler.c **** 
  75:Generated_Source\PSoC4/CYBLE_eventHandler.c **** #if(CYBLE_GAP_ROLE_PERIPHERAL || CYBLE_GAP_ROLE_BROADCASTER) 
  76:Generated_Source\PSoC4/CYBLE_eventHandler.c ****     uint8 cyBle_advertisingIntervalType;
  77:Generated_Source\PSoC4/CYBLE_eventHandler.c **** #endif /* CYBLE_GAP_ROLE_PERIPHERAL || CYBLE_GAP_ROLE_BROADCASTER) */
  78:Generated_Source\PSoC4/CYBLE_eventHandler.c **** 
  79:Generated_Source\PSoC4/CYBLE_eventHandler.c **** #if(CYBLE_GAP_ROLE_CENTRAL || CYBLE_GAP_ROLE_OBSERVER) 
  80:Generated_Source\PSoC4/CYBLE_eventHandler.c ****     uint8 cyBle_scanningIntervalType;
  81:Generated_Source\PSoC4/CYBLE_eventHandler.c **** #endif /* CYBLE_GAP_ROLE_CENTRAL || CYBLE_GAP_ROLE_OBSERVER */
  82:Generated_Source\PSoC4/CYBLE_eventHandler.c **** 
  83:Generated_Source\PSoC4/CYBLE_eventHandler.c **** #if(CYBLE_GATT_ROLE_SERVER)
  84:Generated_Source\PSoC4/CYBLE_eventHandler.c **** #if defined CYBLE_CTS_SERVER || defined CYBLE_ESS_SERVER
  85:Generated_Source\PSoC4/CYBLE_eventHandler.c **** CYBLE_GATT_ERR_CODE_T cyBle_gattError;
  86:Generated_Source\PSoC4/CYBLE_eventHandler.c **** #endif /* defined CYBLE_CTS_SERVER || defined CYBLE_ESS_SERVER */
  87:Generated_Source\PSoC4/CYBLE_eventHandler.c **** #endif /* CYBLE_GATT_ROLE_SERVER */
  88:Generated_Source\PSoC4/CYBLE_eventHandler.c **** 
  89:Generated_Source\PSoC4/CYBLE_eventHandler.c **** #if(CYBLE_GATT_ROLE_CLIENT)
  90:Generated_Source\PSoC4/CYBLE_eventHandler.c **** uint8 cyBle_disCount; /* Counter for discovery procedures */
  91:Generated_Source\PSoC4/CYBLE_eventHandler.c **** 
  92:Generated_Source\PSoC4/CYBLE_eventHandler.c **** #ifdef CYBLE_CUSTOM_CLIENT
  93:Generated_Source\PSoC4/CYBLE_eventHandler.c **** /* Discovery included service information, used for 128-bit UUID read response handle 
  94:Generated_Source\PSoC4/CYBLE_eventHandler.c ****    and for continue discovery. 
  95:Generated_Source\PSoC4/CYBLE_eventHandler.c **** */
  96:Generated_Source\PSoC4/CYBLE_eventHandler.c **** static CYBLE_DISC_INCL_INFO_T cyBle_discInclInfo;
  97:Generated_Source\PSoC4/CYBLE_eventHandler.c **** #endif /* CYBLE_CUSTOM_CLIENT */
  98:Generated_Source\PSoC4/CYBLE_eventHandler.c **** 
  99:Generated_Source\PSoC4/CYBLE_eventHandler.c **** #ifdef CYBLE_HIDS_CLIENT
 100:Generated_Source\PSoC4/CYBLE_eventHandler.c ****     static uint8 disServiceIndex;      /* To discovery descriptors for multiple HID service instanc
 101:Generated_Source\PSoC4/CYBLE_eventHandler.c **** #endif /* CYBLE_HIDS_CLIENT */
 102:Generated_Source\PSoC4/CYBLE_eventHandler.c **** 
 103:Generated_Source\PSoC4/CYBLE_eventHandler.c **** CYBLE_DISC_SRVC_INFO_T cyBle_serverInfo[CYBLE_SRVI_COUNT] = /*4*/
 104:Generated_Source\PSoC4/CYBLE_eventHandler.c **** {
 105:Generated_Source\PSoC4/CYBLE_eventHandler.c ****     {{CYBLE_GATT_INVALID_ATTR_HANDLE_VALUE, CYBLE_GATT_INVALID_ATTR_HANDLE_VALUE}, CYBLE_UUID_GAP_S
 106:Generated_Source\PSoC4/CYBLE_eventHandler.c ****     {{CYBLE_GATT_INVALID_ATTR_HANDLE_VALUE, CYBLE_GATT_INVALID_ATTR_HANDLE_VALUE}, CYBLE_UUID_GATT_
 107:Generated_Source\PSoC4/CYBLE_eventHandler.c **** #ifdef CYBLE_AIOS_CLIENT
 108:Generated_Source\PSoC4/CYBLE_eventHandler.c ****     {{CYBLE_GATT_INVALID_ATTR_HANDLE_VALUE, CYBLE_GATT_INVALID_ATTR_HANDLE_VALUE}, CYBLE_UUID_AUTOM
 109:Generated_Source\PSoC4/CYBLE_eventHandler.c **** #endif /* CYBLE_BCS_CLIENT */
 110:Generated_Source\PSoC4/CYBLE_eventHandler.c **** #ifdef CYBLE_ANCS_CLIENT
 111:Generated_Source\PSoC4/CYBLE_eventHandler.c ****     {{CYBLE_GATT_INVALID_ATTR_HANDLE_VALUE, CYBLE_GATT_INVALID_ATTR_HANDLE_VALUE}, 0x0000u},
 112:Generated_Source\PSoC4/CYBLE_eventHandler.c **** #endif /* CYBLE_ANCS_CLIENT */
 113:Generated_Source\PSoC4/CYBLE_eventHandler.c **** #ifdef CYBLE_ANS_CLIENT
 114:Generated_Source\PSoC4/CYBLE_eventHandler.c ****     {{CYBLE_GATT_INVALID_ATTR_HANDLE_VALUE, CYBLE_GATT_INVALID_ATTR_HANDLE_VALUE}, 
 115:Generated_Source\PSoC4/CYBLE_eventHandler.c ****         CYBLE_UUID_ALERT_NOTIFICATION_SERVICE},
 116:Generated_Source\PSoC4/CYBLE_eventHandler.c **** #endif /* CYBLE_ANS_CLIENT */
 117:Generated_Source\PSoC4/CYBLE_eventHandler.c **** #ifdef CYBLE_BAS_CLIENT
 118:Generated_Source\PSoC4/CYBLE_eventHandler.c ****     {{CYBLE_GATT_INVALID_ATTR_HANDLE_VALUE, CYBLE_GATT_INVALID_ATTR_HANDLE_VALUE}, CYBLE_UUID_BAS_S
ARM GAS  C:\Users\LIAMSA~1\AppData\Local\Temp\cc7Yswwd.s 			page 4


 119:Generated_Source\PSoC4/CYBLE_eventHandler.c ****     #if(CYBLE_BASC_SERVICE_COUNT > 1u) /* Generate it by GUI */
 120:Generated_Source\PSoC4/CYBLE_eventHandler.c ****         
 121:Generated_Source\PSoC4/CYBLE_eventHandler.c ****     #endif /* CYBLE_BASC_SERVICE_COUNT > 1u */
 122:Generated_Source\PSoC4/CYBLE_eventHandler.c **** #endif /* CYBLE_BAS_CLIENT */
 123:Generated_Source\PSoC4/CYBLE_eventHandler.c **** #ifdef CYBLE_BCS_CLIENT
 124:Generated_Source\PSoC4/CYBLE_eventHandler.c ****     {{CYBLE_GATT_INVALID_ATTR_HANDLE_VALUE, CYBLE_GATT_INVALID_ATTR_HANDLE_VALUE}, CYBLE_UUID_BODY_
 125:Generated_Source\PSoC4/CYBLE_eventHandler.c **** #endif /* CYBLE_BCS_CLIENT */
 126:Generated_Source\PSoC4/CYBLE_eventHandler.c **** #ifdef CYBLE_BLS_CLIENT
 127:Generated_Source\PSoC4/CYBLE_eventHandler.c ****     {{CYBLE_GATT_INVALID_ATTR_HANDLE_VALUE, CYBLE_GATT_INVALID_ATTR_HANDLE_VALUE}, CYBLE_UUID_BLOOD
 128:Generated_Source\PSoC4/CYBLE_eventHandler.c **** #endif /* CYBLE_BLS_CLIENT */
 129:Generated_Source\PSoC4/CYBLE_eventHandler.c **** #ifdef CYBLE_BMS_CLIENT
 130:Generated_Source\PSoC4/CYBLE_eventHandler.c ****     {{CYBLE_GATT_INVALID_ATTR_HANDLE_VALUE, CYBLE_GATT_INVALID_ATTR_HANDLE_VALUE}, CYBLE_UUID_BOND_
 131:Generated_Source\PSoC4/CYBLE_eventHandler.c **** #endif /* CYBLE_BMS_CLIENT */
 132:Generated_Source\PSoC4/CYBLE_eventHandler.c **** #ifdef CYBLE_CGMS_CLIENT
 133:Generated_Source\PSoC4/CYBLE_eventHandler.c ****     {{CYBLE_GATT_INVALID_ATTR_HANDLE_VALUE, CYBLE_GATT_INVALID_ATTR_HANDLE_VALUE}, CYBLE_UUID_CGM_S
 134:Generated_Source\PSoC4/CYBLE_eventHandler.c **** #endif /* CYBLE_CGMS_CLIENT */
 135:Generated_Source\PSoC4/CYBLE_eventHandler.c **** #ifdef CYBLE_CPS_CLIENT
 136:Generated_Source\PSoC4/CYBLE_eventHandler.c ****     {{CYBLE_GATT_INVALID_ATTR_HANDLE_VALUE, CYBLE_GATT_INVALID_ATTR_HANDLE_VALUE}, CYBLE_UUID_CPS_S
 137:Generated_Source\PSoC4/CYBLE_eventHandler.c **** #endif /* CYBLE_CPS_CLIENT */
 138:Generated_Source\PSoC4/CYBLE_eventHandler.c **** #ifdef CYBLE_CSCS_CLIENT
 139:Generated_Source\PSoC4/CYBLE_eventHandler.c ****     {{CYBLE_GATT_INVALID_ATTR_HANDLE_VALUE, CYBLE_GATT_INVALID_ATTR_HANDLE_VALUE}, 
 140:Generated_Source\PSoC4/CYBLE_eventHandler.c ****         CYBLE_UUID_CYCLING_SPEED_AND_CADENCE_SERVICE},
 141:Generated_Source\PSoC4/CYBLE_eventHandler.c **** #endif /* CYBLE_CSCS_CLIENT */
 142:Generated_Source\PSoC4/CYBLE_eventHandler.c **** #ifdef CYBLE_CTS_CLIENT
 143:Generated_Source\PSoC4/CYBLE_eventHandler.c ****     {{CYBLE_GATT_INVALID_ATTR_HANDLE_VALUE, CYBLE_GATT_INVALID_ATTR_HANDLE_VALUE}, CYBLE_UUID_CURRE
 144:Generated_Source\PSoC4/CYBLE_eventHandler.c **** #endif /* CYBLE_CTS_CLIENT */
 145:Generated_Source\PSoC4/CYBLE_eventHandler.c **** #ifdef CYBLE_CUSTOM_CLIENT
 146:Generated_Source\PSoC4/CYBLE_eventHandler.c ****     
 147:Generated_Source\PSoC4/CYBLE_eventHandler.c **** #endif /* CYBLE_CUSTOM_CLIENT */
 148:Generated_Source\PSoC4/CYBLE_eventHandler.c **** #ifdef CYBLE_DIS_CLIENT
 149:Generated_Source\PSoC4/CYBLE_eventHandler.c ****     {{CYBLE_GATT_INVALID_ATTR_HANDLE_VALUE, CYBLE_GATT_INVALID_ATTR_HANDLE_VALUE}, CYBLE_UUID_DEVIC
 150:Generated_Source\PSoC4/CYBLE_eventHandler.c **** #endif /* CYBLE_DIS_CLIENT */
 151:Generated_Source\PSoC4/CYBLE_eventHandler.c **** #ifdef CYBLE_ESS_CLIENT
 152:Generated_Source\PSoC4/CYBLE_eventHandler.c ****     {{CYBLE_GATT_INVALID_ATTR_HANDLE_VALUE, CYBLE_GATT_INVALID_ATTR_HANDLE_VALUE}, 
 153:Generated_Source\PSoC4/CYBLE_eventHandler.c ****         CYBLE_UUID_ENVIRONMENTAL_SENSING_SERVICE},
 154:Generated_Source\PSoC4/CYBLE_eventHandler.c **** #endif /* CYBLE_ESS_CLIENT */
 155:Generated_Source\PSoC4/CYBLE_eventHandler.c **** #ifdef CYBLE_GLS_CLIENT
 156:Generated_Source\PSoC4/CYBLE_eventHandler.c ****     {{CYBLE_GATT_INVALID_ATTR_HANDLE_VALUE, CYBLE_GATT_INVALID_ATTR_HANDLE_VALUE}, CYBLE_UUID_GLUCO
 157:Generated_Source\PSoC4/CYBLE_eventHandler.c **** #endif /* CYBLE_GLS_CLIENT */
 158:Generated_Source\PSoC4/CYBLE_eventHandler.c **** #ifdef CYBLE_HIDS_CLIENT
 159:Generated_Source\PSoC4/CYBLE_eventHandler.c ****     {{CYBLE_GATT_INVALID_ATTR_HANDLE_VALUE, CYBLE_GATT_INVALID_ATTR_HANDLE_VALUE}, CYBLE_UUID_HIDS_
 160:Generated_Source\PSoC4/CYBLE_eventHandler.c ****     #if(CYBLE_HIDSC_SERVICE_COUNT > 1u) /* Generate it by GUI */
 161:Generated_Source\PSoC4/CYBLE_eventHandler.c ****         
 162:Generated_Source\PSoC4/CYBLE_eventHandler.c ****     #endif /* CYBLE_HIDSC_SERVICE_COUNT > 1u */
 163:Generated_Source\PSoC4/CYBLE_eventHandler.c **** #endif /* CYBLE_HIDS_CLIENT */
 164:Generated_Source\PSoC4/CYBLE_eventHandler.c **** #ifdef CYBLE_HPS_CLIENT
 165:Generated_Source\PSoC4/CYBLE_eventHandler.c ****     {{CYBLE_GATT_INVALID_ATTR_HANDLE_VALUE, CYBLE_GATT_INVALID_ATTR_HANDLE_VALUE}, CYBLE_UUID_HTTP_
 166:Generated_Source\PSoC4/CYBLE_eventHandler.c **** #endif /* CYBLE_HPS_CLIENT */
 167:Generated_Source\PSoC4/CYBLE_eventHandler.c **** #ifdef CYBLE_HRS_CLIENT
 168:Generated_Source\PSoC4/CYBLE_eventHandler.c ****     {{CYBLE_GATT_INVALID_ATTR_HANDLE_VALUE, CYBLE_GATT_INVALID_ATTR_HANDLE_VALUE}, CYBLE_UUID_HEART
 169:Generated_Source\PSoC4/CYBLE_eventHandler.c **** #endif /* CYBLE_HRS_CLIENT */
 170:Generated_Source\PSoC4/CYBLE_eventHandler.c **** #ifdef CYBLE_HTS_CLIENT
 171:Generated_Source\PSoC4/CYBLE_eventHandler.c ****     {{CYBLE_GATT_INVALID_ATTR_HANDLE_VALUE, CYBLE_GATT_INVALID_ATTR_HANDLE_VALUE}, CYBLE_UUID_HEALT
 172:Generated_Source\PSoC4/CYBLE_eventHandler.c **** #endif /* CYBLE_HTS_CLIENT */
 173:Generated_Source\PSoC4/CYBLE_eventHandler.c **** #ifdef CYBLE_IAS_CLIENT
 174:Generated_Source\PSoC4/CYBLE_eventHandler.c ****     {{CYBLE_GATT_INVALID_ATTR_HANDLE_VALUE, CYBLE_GATT_INVALID_ATTR_HANDLE_VALUE}, CYBLE_UUID_IMMED
 175:Generated_Source\PSoC4/CYBLE_eventHandler.c **** #endif /* CYBLE_IAS_CLIENT */
ARM GAS  C:\Users\LIAMSA~1\AppData\Local\Temp\cc7Yswwd.s 			page 5


 176:Generated_Source\PSoC4/CYBLE_eventHandler.c **** #ifdef CYBLE_IPS_CLIENT
 177:Generated_Source\PSoC4/CYBLE_eventHandler.c ****     {{CYBLE_GATT_INVALID_ATTR_HANDLE_VALUE, CYBLE_GATT_INVALID_ATTR_HANDLE_VALUE}, CYBLE_UUID_IPS_S
 178:Generated_Source\PSoC4/CYBLE_eventHandler.c **** #endif /* CYBLE_IPS_CLIENT */
 179:Generated_Source\PSoC4/CYBLE_eventHandler.c **** #ifdef CYBLE_LLS_CLIENT
 180:Generated_Source\PSoC4/CYBLE_eventHandler.c ****     {{CYBLE_GATT_INVALID_ATTR_HANDLE_VALUE, CYBLE_GATT_INVALID_ATTR_HANDLE_VALUE}, CYBLE_UUID_LINK_
 181:Generated_Source\PSoC4/CYBLE_eventHandler.c **** #endif /* CYBLE_LLS_CLIENT */
 182:Generated_Source\PSoC4/CYBLE_eventHandler.c **** #ifdef CYBLE_LNS_CLIENT
 183:Generated_Source\PSoC4/CYBLE_eventHandler.c ****     {{CYBLE_GATT_INVALID_ATTR_HANDLE_VALUE, CYBLE_GATT_INVALID_ATTR_HANDLE_VALUE}, CYBLE_UUID_LOCAT
 184:Generated_Source\PSoC4/CYBLE_eventHandler.c **** #endif /* CYBLE_LNS_CLIENT */
 185:Generated_Source\PSoC4/CYBLE_eventHandler.c **** #ifdef CYBLE_NDCS_CLIENT
 186:Generated_Source\PSoC4/CYBLE_eventHandler.c ****     {{CYBLE_GATT_INVALID_ATTR_HANDLE_VALUE, CYBLE_GATT_INVALID_ATTR_HANDLE_VALUE}, CYBLE_UUID_NEXT_
 187:Generated_Source\PSoC4/CYBLE_eventHandler.c **** #endif /* CYBLE_NDCS_CLIENT */
 188:Generated_Source\PSoC4/CYBLE_eventHandler.c **** #ifdef CYBLE_IPSS_CLIENT
 189:Generated_Source\PSoC4/CYBLE_eventHandler.c ****     {{CYBLE_GATT_INVALID_ATTR_HANDLE_VALUE, CYBLE_GATT_INVALID_ATTR_HANDLE_VALUE}, CYBLE_UUID_INTER
 190:Generated_Source\PSoC4/CYBLE_eventHandler.c **** #endif /* CYBLE_IPSS_CLIENT */
 191:Generated_Source\PSoC4/CYBLE_eventHandler.c **** #ifdef CYBLE_OTS_CLIENT
 192:Generated_Source\PSoC4/CYBLE_eventHandler.c ****     {{CYBLE_GATT_INVALID_ATTR_HANDLE_VALUE, CYBLE_GATT_INVALID_ATTR_HANDLE_VALUE}, CYBLE_UUID_OTS_S
 193:Generated_Source\PSoC4/CYBLE_eventHandler.c **** #endif /* CYBLE_OTS_CLIENT */
 194:Generated_Source\PSoC4/CYBLE_eventHandler.c **** #ifdef CYBLE_PASS_CLIENT
 195:Generated_Source\PSoC4/CYBLE_eventHandler.c ****     {{CYBLE_GATT_INVALID_ATTR_HANDLE_VALUE, CYBLE_GATT_INVALID_ATTR_HANDLE_VALUE}, CYBLE_UUID_PHONE
 196:Generated_Source\PSoC4/CYBLE_eventHandler.c **** #endif /* CYBLE_PASS_CLIENT */
 197:Generated_Source\PSoC4/CYBLE_eventHandler.c **** #ifdef CYBLE_PLXS_CLIENT
 198:Generated_Source\PSoC4/CYBLE_eventHandler.c ****     {{CYBLE_GATT_INVALID_ATTR_HANDLE_VALUE, CYBLE_GATT_INVALID_ATTR_HANDLE_VALUE}, CYBLE_UUID_PLX_S
 199:Generated_Source\PSoC4/CYBLE_eventHandler.c **** #endif /* CYBLE_PLXS_CLIENT */
 200:Generated_Source\PSoC4/CYBLE_eventHandler.c **** #ifdef CYBLE_RSCS_CLIENT
 201:Generated_Source\PSoC4/CYBLE_eventHandler.c ****     {{CYBLE_GATT_INVALID_ATTR_HANDLE_VALUE, CYBLE_GATT_INVALID_ATTR_HANDLE_VALUE}, CYBLE_UUID_RUNNI
 202:Generated_Source\PSoC4/CYBLE_eventHandler.c **** #endif /* CYBLE_RSCS_CLIENT */
 203:Generated_Source\PSoC4/CYBLE_eventHandler.c **** #ifdef CYBLE_RTUS_CLIENT
 204:Generated_Source\PSoC4/CYBLE_eventHandler.c ****     {{CYBLE_GATT_INVALID_ATTR_HANDLE_VALUE, CYBLE_GATT_INVALID_ATTR_HANDLE_VALUE}, CYBLE_UUID_REF_T
 205:Generated_Source\PSoC4/CYBLE_eventHandler.c **** #endif /* CYBLE_RTUS_CLIENT */
 206:Generated_Source\PSoC4/CYBLE_eventHandler.c **** #ifdef CYBLE_SCPS_CLIENT
 207:Generated_Source\PSoC4/CYBLE_eventHandler.c ****     {{CYBLE_GATT_INVALID_ATTR_HANDLE_VALUE, CYBLE_GATT_INVALID_ATTR_HANDLE_VALUE}, CYBLE_UUID_SCAN_
 208:Generated_Source\PSoC4/CYBLE_eventHandler.c **** #endif /* CYBLE_SCPS_CLIENT */
 209:Generated_Source\PSoC4/CYBLE_eventHandler.c **** #ifdef CYBLE_TPS_CLIENT
 210:Generated_Source\PSoC4/CYBLE_eventHandler.c ****     {{CYBLE_GATT_INVALID_ATTR_HANDLE_VALUE, CYBLE_GATT_INVALID_ATTR_HANDLE_VALUE}, CYBLE_UUID_TX_PO
 211:Generated_Source\PSoC4/CYBLE_eventHandler.c **** #endif /* CYBLE_TPS_CLIENT */
 212:Generated_Source\PSoC4/CYBLE_eventHandler.c **** #ifdef CYBLE_UDS_CLIENT
 213:Generated_Source\PSoC4/CYBLE_eventHandler.c ****     {{CYBLE_GATT_INVALID_ATTR_HANDLE_VALUE, CYBLE_GATT_INVALID_ATTR_HANDLE_VALUE}, CYBLE_UUID_USER_
 214:Generated_Source\PSoC4/CYBLE_eventHandler.c **** #endif /* CYBLE_UDS_CLIENT */
 215:Generated_Source\PSoC4/CYBLE_eventHandler.c **** #ifdef CYBLE_WSS_CLIENT
 216:Generated_Source\PSoC4/CYBLE_eventHandler.c ****     {{CYBLE_GATT_INVALID_ATTR_HANDLE_VALUE, CYBLE_GATT_INVALID_ATTR_HANDLE_VALUE}, CYBLE_UUID_WEIGH
 217:Generated_Source\PSoC4/CYBLE_eventHandler.c **** #endif /* CYBLE_WSS_CLIENT */
 218:Generated_Source\PSoC4/CYBLE_eventHandler.c **** #ifdef CYBLE_WPTS_CLIENT
 219:Generated_Source\PSoC4/CYBLE_eventHandler.c ****     {{CYBLE_GATT_INVALID_ATTR_HANDLE_VALUE, CYBLE_GATT_INVALID_ATTR_HANDLE_VALUE}, CYBLE_UUID_WIREL
 220:Generated_Source\PSoC4/CYBLE_eventHandler.c **** #endif /* CYBLE_WPTS_CLIENT */
 221:Generated_Source\PSoC4/CYBLE_eventHandler.c **** };
 222:Generated_Source\PSoC4/CYBLE_eventHandler.c **** 
 223:Generated_Source\PSoC4/CYBLE_eventHandler.c **** CYBLE_GAPC_T cyBle_gapc;
 224:Generated_Source\PSoC4/CYBLE_eventHandler.c **** 
 225:Generated_Source\PSoC4/CYBLE_eventHandler.c **** #endif /* CYBLE_GATT_ROLE_CLIENT */
 226:Generated_Source\PSoC4/CYBLE_eventHandler.c **** 
 227:Generated_Source\PSoC4/CYBLE_eventHandler.c **** /* Default device security */
 228:Generated_Source\PSoC4/CYBLE_eventHandler.c **** CYBLE_GAP_AUTH_INFO_T cyBle_authInfo =
 229:Generated_Source\PSoC4/CYBLE_eventHandler.c **** {
 230:Generated_Source\PSoC4/CYBLE_eventHandler.c ****     (CYBLE_GAP_SEC_MODE_1 | CYBLE_GAP_SEC_LEVEL_1 ), /* uint8 security */
 231:Generated_Source\PSoC4/CYBLE_eventHandler.c ****     CYBLE_GAP_BONDING_NONE, /* uint8 bonding */
 232:Generated_Source\PSoC4/CYBLE_eventHandler.c ****     0x10u,      /* uint8 ekeySize */
ARM GAS  C:\Users\LIAMSA~1\AppData\Local\Temp\cc7Yswwd.s 			page 6


 233:Generated_Source\PSoC4/CYBLE_eventHandler.c ****     CYBLE_GAP_AUTH_ERROR_NONE, /* CYBLE_AUTH_FAILED_REASON_T authErr */
 234:Generated_Source\PSoC4/CYBLE_eventHandler.c ****     0x00u,      /* uint8 pairingProperties */
 235:Generated_Source\PSoC4/CYBLE_eventHandler.c **** };
 236:Generated_Source\PSoC4/CYBLE_eventHandler.c **** 
 237:Generated_Source\PSoC4/CYBLE_eventHandler.c **** #if(CYBLE_GATT_ROLE_SERVER)
 238:Generated_Source\PSoC4/CYBLE_eventHandler.c **** 
 239:Generated_Source\PSoC4/CYBLE_eventHandler.c **** 
 240:Generated_Source\PSoC4/CYBLE_eventHandler.c **** /******************************************************************************    
 241:Generated_Source\PSoC4/CYBLE_eventHandler.c **** * Function Name: CyBle_WriteReqHandler
 242:Generated_Source\PSoC4/CYBLE_eventHandler.c **** ***************************************************************************//**
 243:Generated_Source\PSoC4/CYBLE_eventHandler.c **** * 
 244:Generated_Source\PSoC4/CYBLE_eventHandler.c **** *  Handles the Write Request event from BLE stack.
 245:Generated_Source\PSoC4/CYBLE_eventHandler.c **** * 
 246:Generated_Source\PSoC4/CYBLE_eventHandler.c **** *  CYBLE_GATTS_WRITE_REQ_PARAM_T * eventParam - event parameter
 247:Generated_Source\PSoC4/CYBLE_eventHandler.c **** * 
 248:Generated_Source\PSoC4/CYBLE_eventHandler.c **** * \return
 249:Generated_Source\PSoC4/CYBLE_eventHandler.c **** *  None
 250:Generated_Source\PSoC4/CYBLE_eventHandler.c **** * 
 251:Generated_Source\PSoC4/CYBLE_eventHandler.c **** ******************************************************************************/
 252:Generated_Source\PSoC4/CYBLE_eventHandler.c **** static void CyBle_WriteReqHandler(CYBLE_GATTS_WRITE_REQ_PARAM_T *eventParam)
 253:Generated_Source\PSoC4/CYBLE_eventHandler.c **** {
  54              		.loc 1 253 0
  55              		.cfi_startproc
  56              		@ args = 0, pretend = 0, frame = 16
  57              		@ frame_needed = 1, uses_anonymous_args = 0
  58 0000 90B5     		push	{r4, r7, lr}
  59              		.cfi_def_cfa_offset 12
  60              		.cfi_offset 4, -12
  61              		.cfi_offset 7, -8
  62              		.cfi_offset 14, -4
  63 0002 85B0     		sub	sp, sp, #20
  64              		.cfi_def_cfa_offset 32
  65 0004 00AF     		add	r7, sp, #0
  66              		.cfi_def_cfa_register 7
  67 0006 7860     		str	r0, [r7, #4]
 254:Generated_Source\PSoC4/CYBLE_eventHandler.c ****     CYBLE_GATT_ERR_CODE_T gattErr;
 255:Generated_Source\PSoC4/CYBLE_eventHandler.c **** #if defined CYBLE_CTS_SERVER || defined CYBLE_ESS_SERVER
 256:Generated_Source\PSoC4/CYBLE_eventHandler.c ****     cyBle_gattError = CYBLE_GATT_ERR_NONE;
 257:Generated_Source\PSoC4/CYBLE_eventHandler.c **** #endif /* defined CYBLE_CTS_SERVER || defined CYBLE_ESS_SERVER */
 258:Generated_Source\PSoC4/CYBLE_eventHandler.c ****     
 259:Generated_Source\PSoC4/CYBLE_eventHandler.c ****     gattErr = CyBle_GattsWriteEventHandler(eventParam);
  68              		.loc 1 259 0
  69 0008 0F23     		movs	r3, #15
  70 000a FC18     		adds	r4, r7, r3
  71 000c 7B68     		ldr	r3, [r7, #4]
  72 000e 1800     		movs	r0, r3
  73 0010 FFF7FEFF 		bl	CyBle_GattsWriteEventHandler
  74 0014 0300     		movs	r3, r0
  75 0016 2370     		strb	r3, [r4]
 260:Generated_Source\PSoC4/CYBLE_eventHandler.c **** #ifdef CYBLE_AIOS_SERVER
 261:Generated_Source\PSoC4/CYBLE_eventHandler.c ****     if(((cyBle_eventHandlerFlag & CYBLE_CALLBACK) != 0u) && (gattErr == CYBLE_GATT_ERR_NONE))
 262:Generated_Source\PSoC4/CYBLE_eventHandler.c ****     {
 263:Generated_Source\PSoC4/CYBLE_eventHandler.c ****         gattErr = CyBle_AiossWriteEventHandler(eventParam);
 264:Generated_Source\PSoC4/CYBLE_eventHandler.c ****     }
 265:Generated_Source\PSoC4/CYBLE_eventHandler.c **** #endif /* CYBLE_AIOS_SERVER */
 266:Generated_Source\PSoC4/CYBLE_eventHandler.c **** #ifdef CYBLE_ANCS_SERVER
 267:Generated_Source\PSoC4/CYBLE_eventHandler.c ****     if(((cyBle_eventHandlerFlag & CYBLE_CALLBACK) != 0u) && (gattErr == CYBLE_GATT_ERR_NONE))
ARM GAS  C:\Users\LIAMSA~1\AppData\Local\Temp\cc7Yswwd.s 			page 7


 268:Generated_Source\PSoC4/CYBLE_eventHandler.c ****     {
 269:Generated_Source\PSoC4/CYBLE_eventHandler.c ****         gattErr = CyBle_AncssWriteEventHandler(eventParam);
 270:Generated_Source\PSoC4/CYBLE_eventHandler.c ****     }
 271:Generated_Source\PSoC4/CYBLE_eventHandler.c **** #endif /* CYBLE_ANCS_SERVER */
 272:Generated_Source\PSoC4/CYBLE_eventHandler.c **** #ifdef CYBLE_ANS_SERVER
 273:Generated_Source\PSoC4/CYBLE_eventHandler.c ****     if(((cyBle_eventHandlerFlag & CYBLE_CALLBACK) != 0u) && (gattErr == CYBLE_GATT_ERR_NONE))
 274:Generated_Source\PSoC4/CYBLE_eventHandler.c ****     {
 275:Generated_Source\PSoC4/CYBLE_eventHandler.c ****         gattErr = CyBle_AnssWriteEventHandler(eventParam);
 276:Generated_Source\PSoC4/CYBLE_eventHandler.c ****     }
 277:Generated_Source\PSoC4/CYBLE_eventHandler.c **** #endif /* CYBLE_ANS_SERVER */
 278:Generated_Source\PSoC4/CYBLE_eventHandler.c **** #ifdef CYBLE_BAS_SERVER
 279:Generated_Source\PSoC4/CYBLE_eventHandler.c ****     if(((cyBle_eventHandlerFlag & CYBLE_CALLBACK) != 0u) && (gattErr == CYBLE_GATT_ERR_NONE))
 280:Generated_Source\PSoC4/CYBLE_eventHandler.c ****     {
 281:Generated_Source\PSoC4/CYBLE_eventHandler.c ****         gattErr = CyBle_BassWriteEventHandler(eventParam);
 282:Generated_Source\PSoC4/CYBLE_eventHandler.c ****     }
 283:Generated_Source\PSoC4/CYBLE_eventHandler.c **** #endif /* CYBLE_BAS_SERVER */
 284:Generated_Source\PSoC4/CYBLE_eventHandler.c **** #ifdef CYBLE_BCS_SERVER
 285:Generated_Source\PSoC4/CYBLE_eventHandler.c ****     if(((cyBle_eventHandlerFlag & CYBLE_CALLBACK) != 0u) && (gattErr == CYBLE_GATT_ERR_NONE))
 286:Generated_Source\PSoC4/CYBLE_eventHandler.c ****     {
 287:Generated_Source\PSoC4/CYBLE_eventHandler.c ****         gattErr = CyBle_BcssWriteEventHandler(eventParam);
 288:Generated_Source\PSoC4/CYBLE_eventHandler.c ****     }
 289:Generated_Source\PSoC4/CYBLE_eventHandler.c **** #endif /* CYBLE_BCS_SERVER */
 290:Generated_Source\PSoC4/CYBLE_eventHandler.c **** #ifdef CYBLE_BLS_SERVER
 291:Generated_Source\PSoC4/CYBLE_eventHandler.c ****     if(((cyBle_eventHandlerFlag & CYBLE_CALLBACK) != 0u) && (gattErr == CYBLE_GATT_ERR_NONE))
 292:Generated_Source\PSoC4/CYBLE_eventHandler.c ****     {
 293:Generated_Source\PSoC4/CYBLE_eventHandler.c ****         gattErr = CyBle_BlssWriteEventHandler(eventParam);
 294:Generated_Source\PSoC4/CYBLE_eventHandler.c ****     }
 295:Generated_Source\PSoC4/CYBLE_eventHandler.c **** #endif /* CYBLE_BLS_SERVER */
 296:Generated_Source\PSoC4/CYBLE_eventHandler.c **** #ifdef CYBLE_BMS_SERVER
 297:Generated_Source\PSoC4/CYBLE_eventHandler.c ****     if(((cyBle_eventHandlerFlag & CYBLE_CALLBACK) != 0u) && (gattErr == CYBLE_GATT_ERR_NONE))
 298:Generated_Source\PSoC4/CYBLE_eventHandler.c ****     {
 299:Generated_Source\PSoC4/CYBLE_eventHandler.c ****         gattErr = CyBle_BmssWriteEventHandler(eventParam);
 300:Generated_Source\PSoC4/CYBLE_eventHandler.c ****     }
 301:Generated_Source\PSoC4/CYBLE_eventHandler.c **** #endif /* CYBLE_BMS_SERVER */
 302:Generated_Source\PSoC4/CYBLE_eventHandler.c **** #ifdef CYBLE_BTS_SERVER
 303:Generated_Source\PSoC4/CYBLE_eventHandler.c ****     if((cyBle_eventHandlerFlag & CYBLE_CALLBACK) != 0u)
 304:Generated_Source\PSoC4/CYBLE_eventHandler.c ****     {
 305:Generated_Source\PSoC4/CYBLE_eventHandler.c ****         gattErr = CyBle_BtsWriteEventHandler(eventParam);
 306:Generated_Source\PSoC4/CYBLE_eventHandler.c ****     }
 307:Generated_Source\PSoC4/CYBLE_eventHandler.c **** #endif /* CYBLE_BTS_SERVER */
 308:Generated_Source\PSoC4/CYBLE_eventHandler.c **** #ifdef CYBLE_CGMS_SERVER
 309:Generated_Source\PSoC4/CYBLE_eventHandler.c ****     if(((cyBle_eventHandlerFlag & CYBLE_CALLBACK) != 0u) && (gattErr == CYBLE_GATT_ERR_NONE))
 310:Generated_Source\PSoC4/CYBLE_eventHandler.c ****     {
 311:Generated_Source\PSoC4/CYBLE_eventHandler.c ****         gattErr = CyBle_CgmssWriteEventHandler(eventParam);
 312:Generated_Source\PSoC4/CYBLE_eventHandler.c ****     }
 313:Generated_Source\PSoC4/CYBLE_eventHandler.c **** #endif /* CYBLE_CGMS_SERVER */
 314:Generated_Source\PSoC4/CYBLE_eventHandler.c **** #ifdef CYBLE_CPS_SERVER
 315:Generated_Source\PSoC4/CYBLE_eventHandler.c ****     if(((cyBle_eventHandlerFlag & CYBLE_CALLBACK) != 0u) && (gattErr == CYBLE_GATT_ERR_NONE))
 316:Generated_Source\PSoC4/CYBLE_eventHandler.c ****     {
 317:Generated_Source\PSoC4/CYBLE_eventHandler.c ****         gattErr = CyBle_CpssWriteEventHandler(eventParam);
 318:Generated_Source\PSoC4/CYBLE_eventHandler.c ****     }
 319:Generated_Source\PSoC4/CYBLE_eventHandler.c **** #endif /* CYBLE_CPS_SERVER */
 320:Generated_Source\PSoC4/CYBLE_eventHandler.c **** #ifdef CYBLE_CSCS_SERVER
 321:Generated_Source\PSoC4/CYBLE_eventHandler.c ****     if(((cyBle_eventHandlerFlag & CYBLE_CALLBACK) != 0u) && (gattErr == CYBLE_GATT_ERR_NONE))
 322:Generated_Source\PSoC4/CYBLE_eventHandler.c ****     {
 323:Generated_Source\PSoC4/CYBLE_eventHandler.c ****         gattErr = CyBle_CscssWriteEventHandler(eventParam);
 324:Generated_Source\PSoC4/CYBLE_eventHandler.c ****     }
ARM GAS  C:\Users\LIAMSA~1\AppData\Local\Temp\cc7Yswwd.s 			page 8


 325:Generated_Source\PSoC4/CYBLE_eventHandler.c **** #endif /* CYBLE_CSCS_SERVER */
 326:Generated_Source\PSoC4/CYBLE_eventHandler.c **** #ifdef CYBLE_CTS_SERVER
 327:Generated_Source\PSoC4/CYBLE_eventHandler.c ****     if(((cyBle_eventHandlerFlag & CYBLE_CALLBACK) != 0u) && (gattErr == CYBLE_GATT_ERR_NONE))
 328:Generated_Source\PSoC4/CYBLE_eventHandler.c ****     {
 329:Generated_Source\PSoC4/CYBLE_eventHandler.c ****         gattErr = CyBle_CtssWriteEventHandler(eventParam);
 330:Generated_Source\PSoC4/CYBLE_eventHandler.c ****     }
 331:Generated_Source\PSoC4/CYBLE_eventHandler.c **** #endif /* CYBLE_CTS_SERVER */
 332:Generated_Source\PSoC4/CYBLE_eventHandler.c **** #ifdef CYBLE_ESS_SERVER
 333:Generated_Source\PSoC4/CYBLE_eventHandler.c ****     if(((cyBle_eventHandlerFlag & CYBLE_CALLBACK) != 0u) && (gattErr == CYBLE_GATT_ERR_NONE))
 334:Generated_Source\PSoC4/CYBLE_eventHandler.c ****     {
 335:Generated_Source\PSoC4/CYBLE_eventHandler.c ****         gattErr = CyBle_EsssWriteEventHandler(eventParam);
 336:Generated_Source\PSoC4/CYBLE_eventHandler.c ****     }
 337:Generated_Source\PSoC4/CYBLE_eventHandler.c **** #endif /* CYBLE_ESS_SERVER */
 338:Generated_Source\PSoC4/CYBLE_eventHandler.c **** #ifdef CYBLE_GLS_SERVER
 339:Generated_Source\PSoC4/CYBLE_eventHandler.c ****     if(((cyBle_eventHandlerFlag & CYBLE_CALLBACK) != 0u) && (gattErr == CYBLE_GATT_ERR_NONE))
 340:Generated_Source\PSoC4/CYBLE_eventHandler.c ****     {
 341:Generated_Source\PSoC4/CYBLE_eventHandler.c ****         gattErr = CyBle_GlssWriteEventHandler(eventParam);
 342:Generated_Source\PSoC4/CYBLE_eventHandler.c ****     }
 343:Generated_Source\PSoC4/CYBLE_eventHandler.c **** #endif /* CYBLE_GLS_SERVER */
 344:Generated_Source\PSoC4/CYBLE_eventHandler.c **** #ifdef CYBLE_HIDS_SERVER
 345:Generated_Source\PSoC4/CYBLE_eventHandler.c ****     if(((cyBle_eventHandlerFlag & CYBLE_CALLBACK) != 0u) && (gattErr == CYBLE_GATT_ERR_NONE))
 346:Generated_Source\PSoC4/CYBLE_eventHandler.c ****     {
 347:Generated_Source\PSoC4/CYBLE_eventHandler.c ****         gattErr = CyBle_HidssWriteEventHandler(eventParam);
 348:Generated_Source\PSoC4/CYBLE_eventHandler.c ****     }
 349:Generated_Source\PSoC4/CYBLE_eventHandler.c **** #endif /* CYBLE_HIDS_SERVER */
 350:Generated_Source\PSoC4/CYBLE_eventHandler.c **** #ifdef CYBLE_HPS_SERVER
 351:Generated_Source\PSoC4/CYBLE_eventHandler.c ****     if(((cyBle_eventHandlerFlag & CYBLE_CALLBACK) != 0u) && (gattErr == CYBLE_GATT_ERR_NONE))
 352:Generated_Source\PSoC4/CYBLE_eventHandler.c ****     {
 353:Generated_Source\PSoC4/CYBLE_eventHandler.c ****         gattErr = CyBle_HpssWriteEventHandler(eventParam);
 354:Generated_Source\PSoC4/CYBLE_eventHandler.c ****     }
 355:Generated_Source\PSoC4/CYBLE_eventHandler.c **** #endif /* CYBLE_HPS_SERVER */
 356:Generated_Source\PSoC4/CYBLE_eventHandler.c **** #ifdef CYBLE_HRS_SERVER
 357:Generated_Source\PSoC4/CYBLE_eventHandler.c ****     if(((cyBle_eventHandlerFlag & CYBLE_CALLBACK) != 0u) && (gattErr == CYBLE_GATT_ERR_NONE))
 358:Generated_Source\PSoC4/CYBLE_eventHandler.c ****     {
 359:Generated_Source\PSoC4/CYBLE_eventHandler.c ****         gattErr = CyBle_HrssWriteEventHandler(eventParam);
 360:Generated_Source\PSoC4/CYBLE_eventHandler.c ****     }
 361:Generated_Source\PSoC4/CYBLE_eventHandler.c **** #endif /* CYBLE_HRS_SERVER */
 362:Generated_Source\PSoC4/CYBLE_eventHandler.c **** #ifdef CYBLE_HTS_SERVER
 363:Generated_Source\PSoC4/CYBLE_eventHandler.c ****     if(((cyBle_eventHandlerFlag & CYBLE_CALLBACK) != 0u) && (gattErr == CYBLE_GATT_ERR_NONE))
 364:Generated_Source\PSoC4/CYBLE_eventHandler.c ****     {
 365:Generated_Source\PSoC4/CYBLE_eventHandler.c ****         gattErr = CyBle_HtssWriteEventHandler(eventParam);
 366:Generated_Source\PSoC4/CYBLE_eventHandler.c ****     }
 367:Generated_Source\PSoC4/CYBLE_eventHandler.c **** #endif /* CYBLE_HTS_SERVER */
 368:Generated_Source\PSoC4/CYBLE_eventHandler.c **** #ifdef CYBLE_IPS_SERVER
 369:Generated_Source\PSoC4/CYBLE_eventHandler.c ****     if(((cyBle_eventHandlerFlag & CYBLE_CALLBACK) != 0u) && (gattErr == CYBLE_GATT_ERR_NONE))
 370:Generated_Source\PSoC4/CYBLE_eventHandler.c ****     {
 371:Generated_Source\PSoC4/CYBLE_eventHandler.c ****         gattErr = CyBle_IpssWriteEventHandler(eventParam);
 372:Generated_Source\PSoC4/CYBLE_eventHandler.c ****     }
 373:Generated_Source\PSoC4/CYBLE_eventHandler.c **** #endif /* CYBLE_IPS_SERVER */
 374:Generated_Source\PSoC4/CYBLE_eventHandler.c **** #ifdef CYBLE_LLS_SERVER
 375:Generated_Source\PSoC4/CYBLE_eventHandler.c ****     if(((cyBle_eventHandlerFlag & CYBLE_CALLBACK) != 0u) && (gattErr == CYBLE_GATT_ERR_NONE))
  76              		.loc 1 375 0
  77 0018 294B     		ldr	r3, .L7
  78 001a 1B78     		ldrb	r3, [r3]
  79 001c DBB2     		uxtb	r3, r3
  80 001e 1A00     		movs	r2, r3
  81 0020 0123     		movs	r3, #1
ARM GAS  C:\Users\LIAMSA~1\AppData\Local\Temp\cc7Yswwd.s 			page 9


  82 0022 1340     		ands	r3, r2
  83 0024 0CD0     		beq	.L2
  84              		.loc 1 375 0 is_stmt 0 discriminator 1
  85 0026 0F23     		movs	r3, #15
  86 0028 FB18     		adds	r3, r7, r3
  87 002a 1B78     		ldrb	r3, [r3]
  88 002c 002B     		cmp	r3, #0
  89 002e 07D1     		bne	.L2
 376:Generated_Source\PSoC4/CYBLE_eventHandler.c ****     {
 377:Generated_Source\PSoC4/CYBLE_eventHandler.c ****         gattErr = CyBle_LlssWriteEventHandler(eventParam);
  90              		.loc 1 377 0 is_stmt 1
  91 0030 0F23     		movs	r3, #15
  92 0032 FC18     		adds	r4, r7, r3
  93 0034 7B68     		ldr	r3, [r7, #4]
  94 0036 1800     		movs	r0, r3
  95 0038 FFF7FEFF 		bl	CyBle_LlssWriteEventHandler
  96 003c 0300     		movs	r3, r0
  97 003e 2370     		strb	r3, [r4]
  98              	.L2:
 378:Generated_Source\PSoC4/CYBLE_eventHandler.c ****     }
 379:Generated_Source\PSoC4/CYBLE_eventHandler.c **** #endif /* CYBLE_LLS_SERVER */
 380:Generated_Source\PSoC4/CYBLE_eventHandler.c **** #ifdef CYBLE_LNS_SERVER
 381:Generated_Source\PSoC4/CYBLE_eventHandler.c ****     if(((cyBle_eventHandlerFlag & CYBLE_CALLBACK) != 0u) && (gattErr == CYBLE_GATT_ERR_NONE))
 382:Generated_Source\PSoC4/CYBLE_eventHandler.c ****     {
 383:Generated_Source\PSoC4/CYBLE_eventHandler.c ****         gattErr = CyBle_LnssWriteEventHandler(eventParam);
 384:Generated_Source\PSoC4/CYBLE_eventHandler.c ****     }
 385:Generated_Source\PSoC4/CYBLE_eventHandler.c **** #endif /* CYBLE_LNS_SERVER */
 386:Generated_Source\PSoC4/CYBLE_eventHandler.c **** #ifdef CYBLE_OTS_SERVER
 387:Generated_Source\PSoC4/CYBLE_eventHandler.c ****     if(((cyBle_eventHandlerFlag & CYBLE_CALLBACK) != 0u) && (gattErr == CYBLE_GATT_ERR_NONE))
 388:Generated_Source\PSoC4/CYBLE_eventHandler.c ****     {
 389:Generated_Source\PSoC4/CYBLE_eventHandler.c ****         gattErr = CyBle_OtssWriteEventHandler(eventParam);
 390:Generated_Source\PSoC4/CYBLE_eventHandler.c ****     }
 391:Generated_Source\PSoC4/CYBLE_eventHandler.c **** #endif /* CYBLE_OTS_SERVER */
 392:Generated_Source\PSoC4/CYBLE_eventHandler.c **** #ifdef CYBLE_PASS_SERVER
 393:Generated_Source\PSoC4/CYBLE_eventHandler.c ****     if(((cyBle_eventHandlerFlag & CYBLE_CALLBACK) != 0u) && (gattErr == CYBLE_GATT_ERR_NONE))
 394:Generated_Source\PSoC4/CYBLE_eventHandler.c ****     {
 395:Generated_Source\PSoC4/CYBLE_eventHandler.c ****         gattErr = CyBle_PasssWriteEventHandler(eventParam);
 396:Generated_Source\PSoC4/CYBLE_eventHandler.c ****     }
 397:Generated_Source\PSoC4/CYBLE_eventHandler.c **** #endif /* CYBLE_PASS_SERVER */
 398:Generated_Source\PSoC4/CYBLE_eventHandler.c **** #ifdef CYBLE_PLXS_SERVER
 399:Generated_Source\PSoC4/CYBLE_eventHandler.c ****     if(((cyBle_eventHandlerFlag & CYBLE_CALLBACK) != 0u) && (gattErr == CYBLE_GATT_ERR_NONE))
 400:Generated_Source\PSoC4/CYBLE_eventHandler.c ****     {
 401:Generated_Source\PSoC4/CYBLE_eventHandler.c ****         gattErr = CyBle_PlxssWriteEventHandler(eventParam);
 402:Generated_Source\PSoC4/CYBLE_eventHandler.c ****     }
 403:Generated_Source\PSoC4/CYBLE_eventHandler.c **** #endif /* CYBLE_PLXS_SERVER */    
 404:Generated_Source\PSoC4/CYBLE_eventHandler.c **** #ifdef CYBLE_RSCS_SERVER
 405:Generated_Source\PSoC4/CYBLE_eventHandler.c ****     if(((cyBle_eventHandlerFlag & CYBLE_CALLBACK) != 0u) && (gattErr == CYBLE_GATT_ERR_NONE))
 406:Generated_Source\PSoC4/CYBLE_eventHandler.c ****     {
 407:Generated_Source\PSoC4/CYBLE_eventHandler.c ****         gattErr = CyBle_RscssWriteEventHandler(eventParam);
 408:Generated_Source\PSoC4/CYBLE_eventHandler.c ****     }
 409:Generated_Source\PSoC4/CYBLE_eventHandler.c **** #endif /* CYBLE_RSCS_SERVER */
 410:Generated_Source\PSoC4/CYBLE_eventHandler.c **** #ifdef CYBLE_SCPS_SERVER
 411:Generated_Source\PSoC4/CYBLE_eventHandler.c ****     if(((cyBle_eventHandlerFlag & CYBLE_CALLBACK) != 0u) && (gattErr == CYBLE_GATT_ERR_NONE))
 412:Generated_Source\PSoC4/CYBLE_eventHandler.c ****     {
 413:Generated_Source\PSoC4/CYBLE_eventHandler.c ****         gattErr = CyBle_ScpssWriteEventHandler(eventParam);
 414:Generated_Source\PSoC4/CYBLE_eventHandler.c ****     }
 415:Generated_Source\PSoC4/CYBLE_eventHandler.c **** #endif /* CYBLE_SCPS_SERVER */
ARM GAS  C:\Users\LIAMSA~1\AppData\Local\Temp\cc7Yswwd.s 			page 10


 416:Generated_Source\PSoC4/CYBLE_eventHandler.c **** #ifdef CYBLE_TPS_SERVER
 417:Generated_Source\PSoC4/CYBLE_eventHandler.c ****     if(((cyBle_eventHandlerFlag & CYBLE_CALLBACK) != 0u) && (gattErr == CYBLE_GATT_ERR_NONE))
  99              		.loc 1 417 0
 100 0040 1F4B     		ldr	r3, .L7
 101 0042 1B78     		ldrb	r3, [r3]
 102 0044 DBB2     		uxtb	r3, r3
 103 0046 1A00     		movs	r2, r3
 104 0048 0123     		movs	r3, #1
 105 004a 1340     		ands	r3, r2
 106 004c 0CD0     		beq	.L3
 107              		.loc 1 417 0 is_stmt 0 discriminator 1
 108 004e 0F23     		movs	r3, #15
 109 0050 FB18     		adds	r3, r7, r3
 110 0052 1B78     		ldrb	r3, [r3]
 111 0054 002B     		cmp	r3, #0
 112 0056 07D1     		bne	.L3
 418:Generated_Source\PSoC4/CYBLE_eventHandler.c ****     {
 419:Generated_Source\PSoC4/CYBLE_eventHandler.c ****         gattErr = CyBle_TpssWriteEventHandler(eventParam);
 113              		.loc 1 419 0 is_stmt 1
 114 0058 0F23     		movs	r3, #15
 115 005a FC18     		adds	r4, r7, r3
 116 005c 7B68     		ldr	r3, [r7, #4]
 117 005e 1800     		movs	r0, r3
 118 0060 FFF7FEFF 		bl	CyBle_TpssWriteEventHandler
 119 0064 0300     		movs	r3, r0
 120 0066 2370     		strb	r3, [r4]
 121              	.L3:
 420:Generated_Source\PSoC4/CYBLE_eventHandler.c ****     }
 421:Generated_Source\PSoC4/CYBLE_eventHandler.c **** #endif /* CYBLE_TPS_SERVER */
 422:Generated_Source\PSoC4/CYBLE_eventHandler.c **** #ifdef CYBLE_UDS_SERVER
 423:Generated_Source\PSoC4/CYBLE_eventHandler.c ****     if(((cyBle_eventHandlerFlag & CYBLE_CALLBACK) != 0u) && (gattErr == CYBLE_GATT_ERR_NONE))
 424:Generated_Source\PSoC4/CYBLE_eventHandler.c ****     {
 425:Generated_Source\PSoC4/CYBLE_eventHandler.c ****         gattErr = CyBle_UdssWriteEventHandler(eventParam);
 426:Generated_Source\PSoC4/CYBLE_eventHandler.c ****     }
 427:Generated_Source\PSoC4/CYBLE_eventHandler.c **** #endif /* CYBLE_UDS_SERVER */
 428:Generated_Source\PSoC4/CYBLE_eventHandler.c **** #ifdef CYBLE_WPTS_SERVER
 429:Generated_Source\PSoC4/CYBLE_eventHandler.c ****     if(((cyBle_eventHandlerFlag & CYBLE_CALLBACK) != 0u) && (gattErr == CYBLE_GATT_ERR_NONE))
 430:Generated_Source\PSoC4/CYBLE_eventHandler.c ****     {
 431:Generated_Source\PSoC4/CYBLE_eventHandler.c ****         gattErr = CyBle_WptssWriteEventHandler(eventParam);
 432:Generated_Source\PSoC4/CYBLE_eventHandler.c ****     }
 433:Generated_Source\PSoC4/CYBLE_eventHandler.c **** #endif /* CYBLE_WPTS_SERVER */
 434:Generated_Source\PSoC4/CYBLE_eventHandler.c **** #ifdef CYBLE_WSS_SERVER
 435:Generated_Source\PSoC4/CYBLE_eventHandler.c ****     if(((cyBle_eventHandlerFlag & CYBLE_CALLBACK) != 0u) && (gattErr == CYBLE_GATT_ERR_NONE))
 436:Generated_Source\PSoC4/CYBLE_eventHandler.c ****     {
 437:Generated_Source\PSoC4/CYBLE_eventHandler.c ****         gattErr = CyBle_WsssWriteEventHandler(eventParam);
 438:Generated_Source\PSoC4/CYBLE_eventHandler.c ****     }
 439:Generated_Source\PSoC4/CYBLE_eventHandler.c **** #endif /* CYBLE_WSS_SERVER */
 440:Generated_Source\PSoC4/CYBLE_eventHandler.c **** 
 441:Generated_Source\PSoC4/CYBLE_eventHandler.c ****     /* Send response when event was handled by service */
 442:Generated_Source\PSoC4/CYBLE_eventHandler.c ****     if((cyBle_eventHandlerFlag & CYBLE_CALLBACK) == 0u)
 122              		.loc 1 442 0
 123 0068 154B     		ldr	r3, .L7
 124 006a 1B78     		ldrb	r3, [r3]
 125 006c DBB2     		uxtb	r3, r3
 126 006e 1A00     		movs	r2, r3
 127 0070 0123     		movs	r3, #1
 128 0072 1340     		ands	r3, r2
ARM GAS  C:\Users\LIAMSA~1\AppData\Local\Temp\cc7Yswwd.s 			page 11


 129 0074 1FD1     		bne	.L6
 443:Generated_Source\PSoC4/CYBLE_eventHandler.c ****     {
 444:Generated_Source\PSoC4/CYBLE_eventHandler.c ****         if(gattErr != CYBLE_GATT_ERR_NONE)
 130              		.loc 1 444 0
 131 0076 0F23     		movs	r3, #15
 132 0078 FB18     		adds	r3, r7, r3
 133 007a 1B78     		ldrb	r3, [r3]
 134 007c 002B     		cmp	r3, #0
 135 007e 16D0     		beq	.L5
 136              	.LBB2:
 445:Generated_Source\PSoC4/CYBLE_eventHandler.c ****         {
 446:Generated_Source\PSoC4/CYBLE_eventHandler.c ****             CYBLE_GATTS_ERR_PARAM_T err_param;
 447:Generated_Source\PSoC4/CYBLE_eventHandler.c ****             
 448:Generated_Source\PSoC4/CYBLE_eventHandler.c ****             err_param.opcode = (uint8) CYBLE_GATT_WRITE_REQ;
 137              		.loc 1 448 0
 138 0080 0823     		movs	r3, #8
 139 0082 FB18     		adds	r3, r7, r3
 140 0084 1222     		movs	r2, #18
 141 0086 9A70     		strb	r2, [r3, #2]
 449:Generated_Source\PSoC4/CYBLE_eventHandler.c ****             err_param.attrHandle = eventParam->handleValPair.attrHandle;
 142              		.loc 1 449 0
 143 0088 7B68     		ldr	r3, [r7, #4]
 144 008a 9A89     		ldrh	r2, [r3, #12]
 145 008c 0823     		movs	r3, #8
 146 008e FB18     		adds	r3, r7, r3
 147 0090 1A80     		strh	r2, [r3]
 450:Generated_Source\PSoC4/CYBLE_eventHandler.c ****             err_param.errorCode = gattErr;
 148              		.loc 1 450 0
 149 0092 0823     		movs	r3, #8
 150 0094 FB18     		adds	r3, r7, r3
 151 0096 0F22     		movs	r2, #15
 152 0098 BA18     		adds	r2, r7, r2
 153 009a 1278     		ldrb	r2, [r2]
 154 009c DA70     		strb	r2, [r3, #3]
 451:Generated_Source\PSoC4/CYBLE_eventHandler.c **** 
 452:Generated_Source\PSoC4/CYBLE_eventHandler.c ****             /* Send Error Response */
 453:Generated_Source\PSoC4/CYBLE_eventHandler.c ****             (void)CyBle_GattsErrorRsp(eventParam->connHandle, &err_param);
 155              		.loc 1 453 0
 156 009e 0823     		movs	r3, #8
 157 00a0 FA18     		adds	r2, r7, r3
 158 00a2 7B68     		ldr	r3, [r7, #4]
 159 00a4 1100     		movs	r1, r2
 160 00a6 1868     		ldr	r0, [r3]
 161 00a8 FFF7FEFF 		bl	CyBle_GattsErrorRsp
 162              	.LBE2:
 454:Generated_Source\PSoC4/CYBLE_eventHandler.c ****         }
 455:Generated_Source\PSoC4/CYBLE_eventHandler.c ****         else
 456:Generated_Source\PSoC4/CYBLE_eventHandler.c ****         {
 457:Generated_Source\PSoC4/CYBLE_eventHandler.c ****             (void)CyBle_GattsWriteRsp(eventParam->connHandle);
 458:Generated_Source\PSoC4/CYBLE_eventHandler.c ****         }
 459:Generated_Source\PSoC4/CYBLE_eventHandler.c ****     }
 460:Generated_Source\PSoC4/CYBLE_eventHandler.c **** }
 163              		.loc 1 460 0
 164 00ac 03E0     		b	.L6
 165              	.L5:
 457:Generated_Source\PSoC4/CYBLE_eventHandler.c ****         }
 166              		.loc 1 457 0
ARM GAS  C:\Users\LIAMSA~1\AppData\Local\Temp\cc7Yswwd.s 			page 12


 167 00ae 7B68     		ldr	r3, [r7, #4]
 168 00b0 1868     		ldr	r0, [r3]
 169 00b2 FFF7FEFF 		bl	CyBle_GattsWriteRsp
 170              	.L6:
 171              		.loc 1 460 0
 172 00b6 C046     		nop
 173 00b8 BD46     		mov	sp, r7
 174 00ba 05B0     		add	sp, sp, #20
 175              		@ sp needed
 176 00bc 90BD     		pop	{r4, r7, pc}
 177              	.L8:
 178 00be C046     		.align	2
 179              	.L7:
 180 00c0 00000000 		.word	cyBle_eventHandlerFlag
 181              		.cfi_endproc
 182              	.LFE2:
 183              		.size	CyBle_WriteReqHandler, .-CyBle_WriteReqHandler
 184              		.section	.text.CyBle_ValueConfirmation,"ax",%progbits
 185              		.align	2
 186              		.code	16
 187              		.thumb_func
 188              		.type	CyBle_ValueConfirmation, %function
 189              	CyBle_ValueConfirmation:
 190              	.LFB3:
 461:Generated_Source\PSoC4/CYBLE_eventHandler.c **** 
 462:Generated_Source\PSoC4/CYBLE_eventHandler.c **** 
 463:Generated_Source\PSoC4/CYBLE_eventHandler.c **** /****************************************************************************** 
 464:Generated_Source\PSoC4/CYBLE_eventHandler.c **** * Function Name: CyBle_ValueConfirmation
 465:Generated_Source\PSoC4/CYBLE_eventHandler.c **** ***************************************************************************//**
 466:Generated_Source\PSoC4/CYBLE_eventHandler.c **** * 
 467:Generated_Source\PSoC4/CYBLE_eventHandler.c **** *  Handles the Value Confirmation request event from the BLE stack.
 468:Generated_Source\PSoC4/CYBLE_eventHandler.c **** * 
 469:Generated_Source\PSoC4/CYBLE_eventHandler.c **** *  \param eventParam: Pointer to a structure of type 'CYBLE_CONN_HANDLE_T'
 470:Generated_Source\PSoC4/CYBLE_eventHandler.c **** * 
 471:Generated_Source\PSoC4/CYBLE_eventHandler.c **** * \return
 472:Generated_Source\PSoC4/CYBLE_eventHandler.c **** *  None
 473:Generated_Source\PSoC4/CYBLE_eventHandler.c **** * 
 474:Generated_Source\PSoC4/CYBLE_eventHandler.c **** ******************************************************************************/
 475:Generated_Source\PSoC4/CYBLE_eventHandler.c **** static void CyBle_ValueConfirmation(const CYBLE_CONN_HANDLE_T *eventParam)
 476:Generated_Source\PSoC4/CYBLE_eventHandler.c **** {
 191              		.loc 1 476 0
 192              		.cfi_startproc
 193              		@ args = 0, pretend = 0, frame = 8
 194              		@ frame_needed = 1, uses_anonymous_args = 0
 195 0000 80B5     		push	{r7, lr}
 196              		.cfi_def_cfa_offset 8
 197              		.cfi_offset 7, -8
 198              		.cfi_offset 14, -4
 199 0002 82B0     		sub	sp, sp, #8
 200              		.cfi_def_cfa_offset 16
 201 0004 00AF     		add	r7, sp, #0
 202              		.cfi_def_cfa_register 7
 203 0006 7860     		str	r0, [r7, #4]
 477:Generated_Source\PSoC4/CYBLE_eventHandler.c ****     if(eventParam != NULL)
 478:Generated_Source\PSoC4/CYBLE_eventHandler.c ****     {
 479:Generated_Source\PSoC4/CYBLE_eventHandler.c ****     #ifdef CYBLE_AIOS_SERVER
 480:Generated_Source\PSoC4/CYBLE_eventHandler.c ****         if((cyBle_eventHandlerFlag & CYBLE_CALLBACK) != 0u)
ARM GAS  C:\Users\LIAMSA~1\AppData\Local\Temp\cc7Yswwd.s 			page 13


 481:Generated_Source\PSoC4/CYBLE_eventHandler.c ****         {
 482:Generated_Source\PSoC4/CYBLE_eventHandler.c ****             CyBle_AiossConfirmationEventHandler(eventParam);
 483:Generated_Source\PSoC4/CYBLE_eventHandler.c ****         }
 484:Generated_Source\PSoC4/CYBLE_eventHandler.c ****     #endif /* CYBLE_AIOS_SERVER */
 485:Generated_Source\PSoC4/CYBLE_eventHandler.c ****     #ifdef CYBLE_BCS_SERVER
 486:Generated_Source\PSoC4/CYBLE_eventHandler.c ****         CyBle_BcssConfirmationEventHandler(eventParam);
 487:Generated_Source\PSoC4/CYBLE_eventHandler.c ****     #endif /* CYBLE_BCS_SERVER */
 488:Generated_Source\PSoC4/CYBLE_eventHandler.c ****     #ifdef CYBLE_BLS_SERVER
 489:Generated_Source\PSoC4/CYBLE_eventHandler.c ****         if((cyBle_eventHandlerFlag & CYBLE_CALLBACK) != 0u)
 490:Generated_Source\PSoC4/CYBLE_eventHandler.c ****         {
 491:Generated_Source\PSoC4/CYBLE_eventHandler.c ****             CyBle_BlssConfirmationEventHandler(eventParam);
 492:Generated_Source\PSoC4/CYBLE_eventHandler.c ****         }
 493:Generated_Source\PSoC4/CYBLE_eventHandler.c ****     #endif /* CYBLE_BLS_SERVER */
 494:Generated_Source\PSoC4/CYBLE_eventHandler.c ****     
 495:Generated_Source\PSoC4/CYBLE_eventHandler.c ****     #ifdef CYBLE_CGMS_SERVER
 496:Generated_Source\PSoC4/CYBLE_eventHandler.c ****         if((cyBle_eventHandlerFlag & CYBLE_CALLBACK) != 0u)
 497:Generated_Source\PSoC4/CYBLE_eventHandler.c ****         {
 498:Generated_Source\PSoC4/CYBLE_eventHandler.c ****             CyBle_CgmssConfirmationEventHandler(eventParam);
 499:Generated_Source\PSoC4/CYBLE_eventHandler.c ****         }
 500:Generated_Source\PSoC4/CYBLE_eventHandler.c ****     #endif /* CYBLE_CGMS_SERVER */
 501:Generated_Source\PSoC4/CYBLE_eventHandler.c ****     
 502:Generated_Source\PSoC4/CYBLE_eventHandler.c ****     #ifdef CYBLE_CPS_SERVER
 503:Generated_Source\PSoC4/CYBLE_eventHandler.c ****         if((cyBle_eventHandlerFlag & CYBLE_CALLBACK) != 0u)
 504:Generated_Source\PSoC4/CYBLE_eventHandler.c ****         {
 505:Generated_Source\PSoC4/CYBLE_eventHandler.c ****             CyBle_CpssConfirmationEventHandler(eventParam);
 506:Generated_Source\PSoC4/CYBLE_eventHandler.c ****         }
 507:Generated_Source\PSoC4/CYBLE_eventHandler.c ****     #endif /* CYBLE_CPS_SERVER */
 508:Generated_Source\PSoC4/CYBLE_eventHandler.c ****     
 509:Generated_Source\PSoC4/CYBLE_eventHandler.c ****     #ifdef CYBLE_CSCS_SERVER
 510:Generated_Source\PSoC4/CYBLE_eventHandler.c ****         if((cyBle_eventHandlerFlag & CYBLE_CALLBACK) != 0u)
 511:Generated_Source\PSoC4/CYBLE_eventHandler.c ****         {
 512:Generated_Source\PSoC4/CYBLE_eventHandler.c ****             CyBle_CscssConfirmationEventHandler(eventParam);
 513:Generated_Source\PSoC4/CYBLE_eventHandler.c ****         }
 514:Generated_Source\PSoC4/CYBLE_eventHandler.c ****     #endif /* CYBLE_CSCS_SERVER */
 515:Generated_Source\PSoC4/CYBLE_eventHandler.c ****     
 516:Generated_Source\PSoC4/CYBLE_eventHandler.c ****     #ifdef CYBLE_ESS_SERVER
 517:Generated_Source\PSoC4/CYBLE_eventHandler.c ****         if((cyBle_eventHandlerFlag & CYBLE_CALLBACK) != 0u)
 518:Generated_Source\PSoC4/CYBLE_eventHandler.c ****         {
 519:Generated_Source\PSoC4/CYBLE_eventHandler.c ****             CyBle_EsssConfirmationEventHandler(eventParam);
 520:Generated_Source\PSoC4/CYBLE_eventHandler.c ****         }
 521:Generated_Source\PSoC4/CYBLE_eventHandler.c ****     #endif /* CYBLE_ESS_SERVER */
 522:Generated_Source\PSoC4/CYBLE_eventHandler.c ****     
 523:Generated_Source\PSoC4/CYBLE_eventHandler.c ****     #ifdef CYBLE_GLS_SERVER
 524:Generated_Source\PSoC4/CYBLE_eventHandler.c ****         if((cyBle_eventHandlerFlag & CYBLE_CALLBACK) != 0u)
 525:Generated_Source\PSoC4/CYBLE_eventHandler.c ****         {
 526:Generated_Source\PSoC4/CYBLE_eventHandler.c ****             CyBle_GlssConfirmationEventHandler(eventParam);
 527:Generated_Source\PSoC4/CYBLE_eventHandler.c ****         }
 528:Generated_Source\PSoC4/CYBLE_eventHandler.c ****     #endif /* CYBLE_GLS_SERVER */
 529:Generated_Source\PSoC4/CYBLE_eventHandler.c ****     
 530:Generated_Source\PSoC4/CYBLE_eventHandler.c ****     #ifdef CYBLE_HTS_SERVER
 531:Generated_Source\PSoC4/CYBLE_eventHandler.c ****         if((cyBle_eventHandlerFlag & CYBLE_CALLBACK) != 0u)
 532:Generated_Source\PSoC4/CYBLE_eventHandler.c ****         {
 533:Generated_Source\PSoC4/CYBLE_eventHandler.c ****             CyBle_HtssConfirmationEventHandler(eventParam);
 534:Generated_Source\PSoC4/CYBLE_eventHandler.c ****         }
 535:Generated_Source\PSoC4/CYBLE_eventHandler.c ****     #endif /* CYBLE_HTS_SERVER */
 536:Generated_Source\PSoC4/CYBLE_eventHandler.c **** 
 537:Generated_Source\PSoC4/CYBLE_eventHandler.c ****     #ifdef CYBLE_LNS_SERVER
ARM GAS  C:\Users\LIAMSA~1\AppData\Local\Temp\cc7Yswwd.s 			page 14


 538:Generated_Source\PSoC4/CYBLE_eventHandler.c ****         if((cyBle_eventHandlerFlag & CYBLE_CALLBACK) != 0u)
 539:Generated_Source\PSoC4/CYBLE_eventHandler.c ****         {
 540:Generated_Source\PSoC4/CYBLE_eventHandler.c ****             CyBle_LnssConfirmationEventHandler(eventParam);
 541:Generated_Source\PSoC4/CYBLE_eventHandler.c ****         }
 542:Generated_Source\PSoC4/CYBLE_eventHandler.c ****     #endif /* CYBLE_LNS_SERVER */
 543:Generated_Source\PSoC4/CYBLE_eventHandler.c ****     
 544:Generated_Source\PSoC4/CYBLE_eventHandler.c ****     #ifdef CYBLE_OTS_SERVER
 545:Generated_Source\PSoC4/CYBLE_eventHandler.c ****         if((cyBle_eventHandlerFlag & CYBLE_CALLBACK) != 0u)
 546:Generated_Source\PSoC4/CYBLE_eventHandler.c ****         {
 547:Generated_Source\PSoC4/CYBLE_eventHandler.c ****             CyBle_OtssConfirmationEventHandler(eventParam);
 548:Generated_Source\PSoC4/CYBLE_eventHandler.c ****         }
 549:Generated_Source\PSoC4/CYBLE_eventHandler.c ****     #endif /* CYBLE_OTS_SERVER */
 550:Generated_Source\PSoC4/CYBLE_eventHandler.c ****     
 551:Generated_Source\PSoC4/CYBLE_eventHandler.c ****     #ifdef CYBLE_PLXS_SERVER
 552:Generated_Source\PSoC4/CYBLE_eventHandler.c ****         if((cyBle_eventHandlerFlag & CYBLE_CALLBACK) != 0u)
 553:Generated_Source\PSoC4/CYBLE_eventHandler.c ****         {
 554:Generated_Source\PSoC4/CYBLE_eventHandler.c ****             CyBle_PlxssConfirmationEventHandler((CYBLE_CONN_HANDLE_T *)eventParam);
 555:Generated_Source\PSoC4/CYBLE_eventHandler.c ****         }
 556:Generated_Source\PSoC4/CYBLE_eventHandler.c ****     #endif /* CYBLE_PLXS_SERVER */
 557:Generated_Source\PSoC4/CYBLE_eventHandler.c ****     
 558:Generated_Source\PSoC4/CYBLE_eventHandler.c ****     #ifdef CYBLE_RSCS_SERVER
 559:Generated_Source\PSoC4/CYBLE_eventHandler.c ****         if((cyBle_eventHandlerFlag & CYBLE_CALLBACK) != 0u)
 560:Generated_Source\PSoC4/CYBLE_eventHandler.c ****         {
 561:Generated_Source\PSoC4/CYBLE_eventHandler.c ****             CyBle_RscssConfirmationEventHandler(eventParam);
 562:Generated_Source\PSoC4/CYBLE_eventHandler.c ****         }
 563:Generated_Source\PSoC4/CYBLE_eventHandler.c ****     #endif /* CYBLE_RSCS_SERVER */
 564:Generated_Source\PSoC4/CYBLE_eventHandler.c ****     
 565:Generated_Source\PSoC4/CYBLE_eventHandler.c ****     #ifdef CYBLE_UDS_SERVER
 566:Generated_Source\PSoC4/CYBLE_eventHandler.c ****         if((cyBle_eventHandlerFlag & CYBLE_CALLBACK) != 0u)
 567:Generated_Source\PSoC4/CYBLE_eventHandler.c ****         {
 568:Generated_Source\PSoC4/CYBLE_eventHandler.c ****             CyBle_UdssConfirmationEventHandler(eventParam);
 569:Generated_Source\PSoC4/CYBLE_eventHandler.c ****         }
 570:Generated_Source\PSoC4/CYBLE_eventHandler.c ****     #endif /* CYBLE_UDS_SERVER */
 571:Generated_Source\PSoC4/CYBLE_eventHandler.c ****     
 572:Generated_Source\PSoC4/CYBLE_eventHandler.c ****     #ifdef CYBLE_WPTS_SERVER
 573:Generated_Source\PSoC4/CYBLE_eventHandler.c ****         if((cyBle_eventHandlerFlag & CYBLE_CALLBACK) != 0u)
 574:Generated_Source\PSoC4/CYBLE_eventHandler.c ****         {
 575:Generated_Source\PSoC4/CYBLE_eventHandler.c ****             CyBle_WptssConfirmationEventHandler(eventParam);
 576:Generated_Source\PSoC4/CYBLE_eventHandler.c ****         }
 577:Generated_Source\PSoC4/CYBLE_eventHandler.c ****     #endif /* CYBLE_WPTS_SERVER */
 578:Generated_Source\PSoC4/CYBLE_eventHandler.c ****     
 579:Generated_Source\PSoC4/CYBLE_eventHandler.c ****     #ifdef CYBLE_WSS_SERVER
 580:Generated_Source\PSoC4/CYBLE_eventHandler.c ****         if((cyBle_eventHandlerFlag & CYBLE_CALLBACK) != 0u)
 581:Generated_Source\PSoC4/CYBLE_eventHandler.c ****         {
 582:Generated_Source\PSoC4/CYBLE_eventHandler.c ****             CyBle_WsssConfirmationEventHandler(eventParam);
 583:Generated_Source\PSoC4/CYBLE_eventHandler.c ****         }
 584:Generated_Source\PSoC4/CYBLE_eventHandler.c ****     #endif /* CYBLE_WSS_SERVER */
 585:Generated_Source\PSoC4/CYBLE_eventHandler.c ****     }
 586:Generated_Source\PSoC4/CYBLE_eventHandler.c **** }
 204              		.loc 1 586 0
 205 0008 C046     		nop
 206 000a BD46     		mov	sp, r7
 207 000c 02B0     		add	sp, sp, #8
 208              		@ sp needed
 209 000e 80BD     		pop	{r7, pc}
 210              		.cfi_endproc
 211              	.LFE3:
ARM GAS  C:\Users\LIAMSA~1\AppData\Local\Temp\cc7Yswwd.s 			page 15


 212              		.size	CyBle_ValueConfirmation, .-CyBle_ValueConfirmation
 213              		.section	.text.CyBle_GattDisconnectEventHandler,"ax",%progbits
 214              		.align	2
 215              		.code	16
 216              		.thumb_func
 217              		.type	CyBle_GattDisconnectEventHandler, %function
 218              	CyBle_GattDisconnectEventHandler:
 219              	.LFB4:
 587:Generated_Source\PSoC4/CYBLE_eventHandler.c **** 
 588:Generated_Source\PSoC4/CYBLE_eventHandler.c **** #endif /* CYBLE_GATT_ROLE_SERVER */
 589:Generated_Source\PSoC4/CYBLE_eventHandler.c **** 
 590:Generated_Source\PSoC4/CYBLE_eventHandler.c **** 
 591:Generated_Source\PSoC4/CYBLE_eventHandler.c **** #if (CYBLE_GATT_ROLE_CLIENT)
 592:Generated_Source\PSoC4/CYBLE_eventHandler.c **** 
 593:Generated_Source\PSoC4/CYBLE_eventHandler.c **** /****************************************************************************** 
 594:Generated_Source\PSoC4/CYBLE_eventHandler.c **** * Function Name: CyBle_GattcWriteResponseEventHandler
 595:Generated_Source\PSoC4/CYBLE_eventHandler.c **** ***************************************************************************//**
 596:Generated_Source\PSoC4/CYBLE_eventHandler.c **** * 
 597:Generated_Source\PSoC4/CYBLE_eventHandler.c **** *  Handles the Write response event from the BLE stack.
 598:Generated_Source\PSoC4/CYBLE_eventHandler.c **** * 
 599:Generated_Source\PSoC4/CYBLE_eventHandler.c **** *  \param eventParam: Pointer to a structure of type 'CYBLE_CONN_HANDLE_T'
 600:Generated_Source\PSoC4/CYBLE_eventHandler.c **** * 
 601:Generated_Source\PSoC4/CYBLE_eventHandler.c **** * \return
 602:Generated_Source\PSoC4/CYBLE_eventHandler.c **** *  None
 603:Generated_Source\PSoC4/CYBLE_eventHandler.c **** * 
 604:Generated_Source\PSoC4/CYBLE_eventHandler.c **** ******************************************************************************/
 605:Generated_Source\PSoC4/CYBLE_eventHandler.c **** static void CyBle_GattcWriteResponseEventHandler(const CYBLE_CONN_HANDLE_T *eventParam)
 606:Generated_Source\PSoC4/CYBLE_eventHandler.c **** {
 607:Generated_Source\PSoC4/CYBLE_eventHandler.c **** 
 608:Generated_Source\PSoC4/CYBLE_eventHandler.c **** #ifdef CYBLE_AIOS_CLIENT
 609:Generated_Source\PSoC4/CYBLE_eventHandler.c ****     if((cyBle_eventHandlerFlag & CYBLE_CALLBACK) != 0u)
 610:Generated_Source\PSoC4/CYBLE_eventHandler.c ****     {
 611:Generated_Source\PSoC4/CYBLE_eventHandler.c ****         CyBle_AioscWriteResponseEventHandler(eventParam);
 612:Generated_Source\PSoC4/CYBLE_eventHandler.c ****     }
 613:Generated_Source\PSoC4/CYBLE_eventHandler.c **** #endif /* CYBLE_AIOS_CLIENT */
 614:Generated_Source\PSoC4/CYBLE_eventHandler.c **** 
 615:Generated_Source\PSoC4/CYBLE_eventHandler.c **** #ifdef CYBLE_ANCS_CLIENT
 616:Generated_Source\PSoC4/CYBLE_eventHandler.c ****     CyBle_AncscWriteResponseEventHandler(eventParam);
 617:Generated_Source\PSoC4/CYBLE_eventHandler.c **** #endif /* CYBLE_ANCS_CLIENT */
 618:Generated_Source\PSoC4/CYBLE_eventHandler.c **** 
 619:Generated_Source\PSoC4/CYBLE_eventHandler.c **** #ifdef CYBLE_ANS_CLIENT
 620:Generated_Source\PSoC4/CYBLE_eventHandler.c ****     if((cyBle_eventHandlerFlag & CYBLE_CALLBACK) != 0u)
 621:Generated_Source\PSoC4/CYBLE_eventHandler.c ****     {
 622:Generated_Source\PSoC4/CYBLE_eventHandler.c ****         CyBle_AnscWriteResponseEventHandler(eventParam);
 623:Generated_Source\PSoC4/CYBLE_eventHandler.c ****     }
 624:Generated_Source\PSoC4/CYBLE_eventHandler.c **** #endif /* CYBLE_ANS_CLIENT */
 625:Generated_Source\PSoC4/CYBLE_eventHandler.c **** 
 626:Generated_Source\PSoC4/CYBLE_eventHandler.c **** #ifdef CYBLE_BAS_CLIENT
 627:Generated_Source\PSoC4/CYBLE_eventHandler.c ****     if((cyBle_eventHandlerFlag & CYBLE_CALLBACK) != 0u)
 628:Generated_Source\PSoC4/CYBLE_eventHandler.c ****     {
 629:Generated_Source\PSoC4/CYBLE_eventHandler.c ****         CyBle_BascWriteResponseEventHandler(eventParam);
 630:Generated_Source\PSoC4/CYBLE_eventHandler.c ****     }
 631:Generated_Source\PSoC4/CYBLE_eventHandler.c **** #endif /* CYBLE_BAS_CLIENT */
 632:Generated_Source\PSoC4/CYBLE_eventHandler.c **** 
 633:Generated_Source\PSoC4/CYBLE_eventHandler.c **** #ifdef CYBLE_BCS_CLIENT
 634:Generated_Source\PSoC4/CYBLE_eventHandler.c ****     if((cyBle_eventHandlerFlag & CYBLE_CALLBACK) != 0u)
 635:Generated_Source\PSoC4/CYBLE_eventHandler.c ****     {
ARM GAS  C:\Users\LIAMSA~1\AppData\Local\Temp\cc7Yswwd.s 			page 16


 636:Generated_Source\PSoC4/CYBLE_eventHandler.c ****         CyBle_BcscWriteResponseEventHandler(eventParam);
 637:Generated_Source\PSoC4/CYBLE_eventHandler.c ****     }
 638:Generated_Source\PSoC4/CYBLE_eventHandler.c **** #endif /* CYBLE_BCS_CLIENT */
 639:Generated_Source\PSoC4/CYBLE_eventHandler.c **** 
 640:Generated_Source\PSoC4/CYBLE_eventHandler.c **** #ifdef CYBLE_BLS_CLIENT
 641:Generated_Source\PSoC4/CYBLE_eventHandler.c ****     if((cyBle_eventHandlerFlag & CYBLE_CALLBACK) != 0u)
 642:Generated_Source\PSoC4/CYBLE_eventHandler.c ****     {
 643:Generated_Source\PSoC4/CYBLE_eventHandler.c ****         CyBle_BlscWriteResponseEventHandler(eventParam);
 644:Generated_Source\PSoC4/CYBLE_eventHandler.c ****     }
 645:Generated_Source\PSoC4/CYBLE_eventHandler.c **** #endif /* CYBLE_BLS_CLIENT */
 646:Generated_Source\PSoC4/CYBLE_eventHandler.c **** 
 647:Generated_Source\PSoC4/CYBLE_eventHandler.c **** #ifdef CYBLE_BMS_CLIENT
 648:Generated_Source\PSoC4/CYBLE_eventHandler.c ****     if((cyBle_eventHandlerFlag & CYBLE_CALLBACK) != 0u)
 649:Generated_Source\PSoC4/CYBLE_eventHandler.c ****     {
 650:Generated_Source\PSoC4/CYBLE_eventHandler.c ****         CyBle_BmscWriteResponseEventHandler(eventParam);
 651:Generated_Source\PSoC4/CYBLE_eventHandler.c ****     }
 652:Generated_Source\PSoC4/CYBLE_eventHandler.c **** #endif /* CYBLE_BMS_CLIENT */
 653:Generated_Source\PSoC4/CYBLE_eventHandler.c **** 
 654:Generated_Source\PSoC4/CYBLE_eventHandler.c **** #ifdef CYBLE_CGMS_CLIENT
 655:Generated_Source\PSoC4/CYBLE_eventHandler.c ****     if((cyBle_eventHandlerFlag & CYBLE_CALLBACK) != 0u)
 656:Generated_Source\PSoC4/CYBLE_eventHandler.c ****     {
 657:Generated_Source\PSoC4/CYBLE_eventHandler.c ****         CyBle_CgmscWriteResponseEventHandler(eventParam);
 658:Generated_Source\PSoC4/CYBLE_eventHandler.c ****     }
 659:Generated_Source\PSoC4/CYBLE_eventHandler.c **** #endif /* CYBLE_CGMS_CLIENT */
 660:Generated_Source\PSoC4/CYBLE_eventHandler.c **** 
 661:Generated_Source\PSoC4/CYBLE_eventHandler.c **** #ifdef CYBLE_CPS_CLIENT
 662:Generated_Source\PSoC4/CYBLE_eventHandler.c ****     if((cyBle_eventHandlerFlag & CYBLE_CALLBACK) != 0u)
 663:Generated_Source\PSoC4/CYBLE_eventHandler.c ****     {
 664:Generated_Source\PSoC4/CYBLE_eventHandler.c ****         CyBle_CpscWriteResponseEventHandler(eventParam);
 665:Generated_Source\PSoC4/CYBLE_eventHandler.c ****     }
 666:Generated_Source\PSoC4/CYBLE_eventHandler.c **** #endif /* CYBLE_CPS_CLIENT */
 667:Generated_Source\PSoC4/CYBLE_eventHandler.c **** 
 668:Generated_Source\PSoC4/CYBLE_eventHandler.c **** #ifdef CYBLE_CSCS_CLIENT
 669:Generated_Source\PSoC4/CYBLE_eventHandler.c ****     if((cyBle_eventHandlerFlag & CYBLE_CALLBACK) != 0u)
 670:Generated_Source\PSoC4/CYBLE_eventHandler.c ****     {
 671:Generated_Source\PSoC4/CYBLE_eventHandler.c ****         CyBle_CscscWriteResponseEventHandler(eventParam);
 672:Generated_Source\PSoC4/CYBLE_eventHandler.c ****     }
 673:Generated_Source\PSoC4/CYBLE_eventHandler.c **** #endif /* CYBLE_CSCS_CLIENT */
 674:Generated_Source\PSoC4/CYBLE_eventHandler.c **** 
 675:Generated_Source\PSoC4/CYBLE_eventHandler.c **** #ifdef CYBLE_CTS_CLIENT
 676:Generated_Source\PSoC4/CYBLE_eventHandler.c ****     if((cyBle_eventHandlerFlag & CYBLE_CALLBACK) != 0u)
 677:Generated_Source\PSoC4/CYBLE_eventHandler.c ****     {
 678:Generated_Source\PSoC4/CYBLE_eventHandler.c ****         CyBle_CtscWriteResponseEventHandler(eventParam);
 679:Generated_Source\PSoC4/CYBLE_eventHandler.c ****     }
 680:Generated_Source\PSoC4/CYBLE_eventHandler.c **** #endif /* CYBLE_CTS_CLIENT */
 681:Generated_Source\PSoC4/CYBLE_eventHandler.c **** 
 682:Generated_Source\PSoC4/CYBLE_eventHandler.c **** #ifdef CYBLE_ESS_CLIENT
 683:Generated_Source\PSoC4/CYBLE_eventHandler.c ****     if((cyBle_eventHandlerFlag & CYBLE_CALLBACK) != 0u)
 684:Generated_Source\PSoC4/CYBLE_eventHandler.c ****     {
 685:Generated_Source\PSoC4/CYBLE_eventHandler.c ****         CyBle_EsscWriteResponseEventHandler(eventParam);
 686:Generated_Source\PSoC4/CYBLE_eventHandler.c ****     }
 687:Generated_Source\PSoC4/CYBLE_eventHandler.c **** #endif /* CYBLE_ESS_CLIENT */
 688:Generated_Source\PSoC4/CYBLE_eventHandler.c **** 
 689:Generated_Source\PSoC4/CYBLE_eventHandler.c **** #ifdef CYBLE_GLS_CLIENT
 690:Generated_Source\PSoC4/CYBLE_eventHandler.c ****     if((cyBle_eventHandlerFlag & CYBLE_CALLBACK) != 0u)
 691:Generated_Source\PSoC4/CYBLE_eventHandler.c ****     {
 692:Generated_Source\PSoC4/CYBLE_eventHandler.c ****         CyBle_GlscWriteResponseEventHandler(eventParam);
ARM GAS  C:\Users\LIAMSA~1\AppData\Local\Temp\cc7Yswwd.s 			page 17


 693:Generated_Source\PSoC4/CYBLE_eventHandler.c ****     }
 694:Generated_Source\PSoC4/CYBLE_eventHandler.c **** #endif /* CYBLE_GLS_CLIENT */
 695:Generated_Source\PSoC4/CYBLE_eventHandler.c **** 
 696:Generated_Source\PSoC4/CYBLE_eventHandler.c **** #ifdef CYBLE_HIDS_CLIENT
 697:Generated_Source\PSoC4/CYBLE_eventHandler.c ****     if((cyBle_eventHandlerFlag & CYBLE_CALLBACK) != 0u)
 698:Generated_Source\PSoC4/CYBLE_eventHandler.c ****     {
 699:Generated_Source\PSoC4/CYBLE_eventHandler.c ****         CyBle_HidscWriteResponseEventHandler(eventParam);
 700:Generated_Source\PSoC4/CYBLE_eventHandler.c ****     }
 701:Generated_Source\PSoC4/CYBLE_eventHandler.c **** #endif /* CYBLE_HIDS_CLIENT */
 702:Generated_Source\PSoC4/CYBLE_eventHandler.c **** 
 703:Generated_Source\PSoC4/CYBLE_eventHandler.c **** #ifdef CYBLE_HPS_CLIENT
 704:Generated_Source\PSoC4/CYBLE_eventHandler.c ****     if((cyBle_eventHandlerFlag & CYBLE_CALLBACK) != 0u)
 705:Generated_Source\PSoC4/CYBLE_eventHandler.c ****     {
 706:Generated_Source\PSoC4/CYBLE_eventHandler.c ****         CyBle_HpscWriteResponseEventHandler(eventParam);
 707:Generated_Source\PSoC4/CYBLE_eventHandler.c ****     }
 708:Generated_Source\PSoC4/CYBLE_eventHandler.c **** #endif /* CYBLE_HPS_CLIENT */
 709:Generated_Source\PSoC4/CYBLE_eventHandler.c **** 
 710:Generated_Source\PSoC4/CYBLE_eventHandler.c **** #ifdef CYBLE_HRS_CLIENT
 711:Generated_Source\PSoC4/CYBLE_eventHandler.c ****     if((cyBle_eventHandlerFlag & CYBLE_CALLBACK) != 0u)
 712:Generated_Source\PSoC4/CYBLE_eventHandler.c ****     {
 713:Generated_Source\PSoC4/CYBLE_eventHandler.c ****         CyBle_HrscWriteResponseEventHandler(eventParam);
 714:Generated_Source\PSoC4/CYBLE_eventHandler.c ****     }
 715:Generated_Source\PSoC4/CYBLE_eventHandler.c **** #endif /* CYBLE_HRS_CLIENT */
 716:Generated_Source\PSoC4/CYBLE_eventHandler.c **** 
 717:Generated_Source\PSoC4/CYBLE_eventHandler.c **** #ifdef CYBLE_HTS_CLIENT
 718:Generated_Source\PSoC4/CYBLE_eventHandler.c ****     if((cyBle_eventHandlerFlag & CYBLE_CALLBACK) != 0u)
 719:Generated_Source\PSoC4/CYBLE_eventHandler.c ****     {
 720:Generated_Source\PSoC4/CYBLE_eventHandler.c ****         CyBle_HtscWriteResponseEventHandler(eventParam);
 721:Generated_Source\PSoC4/CYBLE_eventHandler.c ****     }
 722:Generated_Source\PSoC4/CYBLE_eventHandler.c **** #endif /* CYBLE_HTS_CLIENT */
 723:Generated_Source\PSoC4/CYBLE_eventHandler.c **** 
 724:Generated_Source\PSoC4/CYBLE_eventHandler.c **** #ifdef CYBLE_IPS_CLIENT
 725:Generated_Source\PSoC4/CYBLE_eventHandler.c ****     if((cyBle_eventHandlerFlag & CYBLE_CALLBACK) != 0u)
 726:Generated_Source\PSoC4/CYBLE_eventHandler.c ****     {
 727:Generated_Source\PSoC4/CYBLE_eventHandler.c ****         CyBle_IpscWriteResponseEventHandler(eventParam);
 728:Generated_Source\PSoC4/CYBLE_eventHandler.c ****     }
 729:Generated_Source\PSoC4/CYBLE_eventHandler.c **** #endif /* CYBLE_IPS_CLIENT */
 730:Generated_Source\PSoC4/CYBLE_eventHandler.c **** 
 731:Generated_Source\PSoC4/CYBLE_eventHandler.c **** #ifdef CYBLE_LLS_CLIENT
 732:Generated_Source\PSoC4/CYBLE_eventHandler.c ****     if((cyBle_eventHandlerFlag & CYBLE_CALLBACK) != 0u)
 733:Generated_Source\PSoC4/CYBLE_eventHandler.c ****     {
 734:Generated_Source\PSoC4/CYBLE_eventHandler.c ****         CyBle_LlscWriteResponseEventHandler(eventParam);
 735:Generated_Source\PSoC4/CYBLE_eventHandler.c ****     }
 736:Generated_Source\PSoC4/CYBLE_eventHandler.c **** #endif /* CYBLE_LLS_CLIENT */
 737:Generated_Source\PSoC4/CYBLE_eventHandler.c **** 
 738:Generated_Source\PSoC4/CYBLE_eventHandler.c **** #ifdef CYBLE_LNS_CLIENT
 739:Generated_Source\PSoC4/CYBLE_eventHandler.c ****     if((cyBle_eventHandlerFlag & CYBLE_CALLBACK) != 0u)
 740:Generated_Source\PSoC4/CYBLE_eventHandler.c ****     {
 741:Generated_Source\PSoC4/CYBLE_eventHandler.c ****         CyBle_LnscWriteResponseEventHandler(eventParam);
 742:Generated_Source\PSoC4/CYBLE_eventHandler.c ****     }
 743:Generated_Source\PSoC4/CYBLE_eventHandler.c **** #endif /* CYBLE_LNS_CLIENT */
 744:Generated_Source\PSoC4/CYBLE_eventHandler.c **** 
 745:Generated_Source\PSoC4/CYBLE_eventHandler.c **** #ifdef CYBLE_OTS_CLIENT
 746:Generated_Source\PSoC4/CYBLE_eventHandler.c ****     if((cyBle_eventHandlerFlag & CYBLE_CALLBACK) != 0u)
 747:Generated_Source\PSoC4/CYBLE_eventHandler.c ****     {
 748:Generated_Source\PSoC4/CYBLE_eventHandler.c ****         CyBle_OtscWriteResponseEventHandler(eventParam);
 749:Generated_Source\PSoC4/CYBLE_eventHandler.c ****     }
ARM GAS  C:\Users\LIAMSA~1\AppData\Local\Temp\cc7Yswwd.s 			page 18


 750:Generated_Source\PSoC4/CYBLE_eventHandler.c **** #endif /* CYBLE_OTS_CLIENT */
 751:Generated_Source\PSoC4/CYBLE_eventHandler.c **** 
 752:Generated_Source\PSoC4/CYBLE_eventHandler.c **** #ifdef CYBLE_PASS_CLIENT
 753:Generated_Source\PSoC4/CYBLE_eventHandler.c ****     if((cyBle_eventHandlerFlag & CYBLE_CALLBACK) != 0u)
 754:Generated_Source\PSoC4/CYBLE_eventHandler.c ****     {
 755:Generated_Source\PSoC4/CYBLE_eventHandler.c ****         CyBle_PasscWriteResponseEventHandler(eventParam);
 756:Generated_Source\PSoC4/CYBLE_eventHandler.c ****     }
 757:Generated_Source\PSoC4/CYBLE_eventHandler.c **** #endif /* CYBLE_PASS_CLIENT */
 758:Generated_Source\PSoC4/CYBLE_eventHandler.c **** 
 759:Generated_Source\PSoC4/CYBLE_eventHandler.c **** #ifdef CYBLE_PLXS_CLIENT
 760:Generated_Source\PSoC4/CYBLE_eventHandler.c ****     if((cyBle_eventHandlerFlag & CYBLE_CALLBACK) != 0u)
 761:Generated_Source\PSoC4/CYBLE_eventHandler.c ****     {
 762:Generated_Source\PSoC4/CYBLE_eventHandler.c ****         CyBle_PlxscWriteResponseEventHandler(eventParam);
 763:Generated_Source\PSoC4/CYBLE_eventHandler.c ****     }
 764:Generated_Source\PSoC4/CYBLE_eventHandler.c **** #endif /* CYBLE_PASS_CLIENT */
 765:Generated_Source\PSoC4/CYBLE_eventHandler.c **** 
 766:Generated_Source\PSoC4/CYBLE_eventHandler.c **** #ifdef CYBLE_RSCS_CLIENT
 767:Generated_Source\PSoC4/CYBLE_eventHandler.c ****     if((cyBle_eventHandlerFlag & CYBLE_CALLBACK) != 0u)
 768:Generated_Source\PSoC4/CYBLE_eventHandler.c ****     {
 769:Generated_Source\PSoC4/CYBLE_eventHandler.c ****         CyBle_RscscWriteResponseEventHandler(eventParam);
 770:Generated_Source\PSoC4/CYBLE_eventHandler.c ****     }
 771:Generated_Source\PSoC4/CYBLE_eventHandler.c **** #endif /* CYBLE_RSCS_CLIENT */
 772:Generated_Source\PSoC4/CYBLE_eventHandler.c **** 
 773:Generated_Source\PSoC4/CYBLE_eventHandler.c **** #ifdef CYBLE_SCPS_CLIENT
 774:Generated_Source\PSoC4/CYBLE_eventHandler.c ****     if((cyBle_eventHandlerFlag & CYBLE_CALLBACK) != 0u)
 775:Generated_Source\PSoC4/CYBLE_eventHandler.c ****     {
 776:Generated_Source\PSoC4/CYBLE_eventHandler.c ****         CyBle_ScpscWriteResponseEventHandler(eventParam);
 777:Generated_Source\PSoC4/CYBLE_eventHandler.c ****     }
 778:Generated_Source\PSoC4/CYBLE_eventHandler.c **** #endif /* CYBLE_SCPS_CLIENT */
 779:Generated_Source\PSoC4/CYBLE_eventHandler.c **** 
 780:Generated_Source\PSoC4/CYBLE_eventHandler.c **** #ifdef CYBLE_TPS_CLIENT
 781:Generated_Source\PSoC4/CYBLE_eventHandler.c ****     if((cyBle_eventHandlerFlag & CYBLE_CALLBACK) != 0u)
 782:Generated_Source\PSoC4/CYBLE_eventHandler.c ****     {
 783:Generated_Source\PSoC4/CYBLE_eventHandler.c ****         CyBle_TpscWriteResponseEventHandler(eventParam);
 784:Generated_Source\PSoC4/CYBLE_eventHandler.c ****     }
 785:Generated_Source\PSoC4/CYBLE_eventHandler.c **** #endif /* CYBLE_TPS_CLIENT */
 786:Generated_Source\PSoC4/CYBLE_eventHandler.c **** 
 787:Generated_Source\PSoC4/CYBLE_eventHandler.c **** #ifdef CYBLE_UDS_CLIENT
 788:Generated_Source\PSoC4/CYBLE_eventHandler.c ****     if((cyBle_eventHandlerFlag & CYBLE_CALLBACK) != 0u)
 789:Generated_Source\PSoC4/CYBLE_eventHandler.c ****     {
 790:Generated_Source\PSoC4/CYBLE_eventHandler.c ****         CyBle_UdscWriteResponseEventHandler(eventParam);
 791:Generated_Source\PSoC4/CYBLE_eventHandler.c ****     }
 792:Generated_Source\PSoC4/CYBLE_eventHandler.c **** #endif /* CYBLE_UDS_CLIENT */
 793:Generated_Source\PSoC4/CYBLE_eventHandler.c **** #ifdef CYBLE_WPTS_CLIENT
 794:Generated_Source\PSoC4/CYBLE_eventHandler.c ****     if((cyBle_eventHandlerFlag & CYBLE_CALLBACK) != 0u)
 795:Generated_Source\PSoC4/CYBLE_eventHandler.c ****     {
 796:Generated_Source\PSoC4/CYBLE_eventHandler.c ****         CyBle_WptscWriteResponseEventHandler(eventParam);
 797:Generated_Source\PSoC4/CYBLE_eventHandler.c ****     }
 798:Generated_Source\PSoC4/CYBLE_eventHandler.c **** #endif /* CYBLE_WPTS_CLIENT */
 799:Generated_Source\PSoC4/CYBLE_eventHandler.c **** #ifdef CYBLE_WSS_CLIENT
 800:Generated_Source\PSoC4/CYBLE_eventHandler.c ****     if((cyBle_eventHandlerFlag & CYBLE_CALLBACK) != 0u)
 801:Generated_Source\PSoC4/CYBLE_eventHandler.c ****     {
 802:Generated_Source\PSoC4/CYBLE_eventHandler.c ****         CyBle_WsscWriteResponseEventHandler(eventParam);
 803:Generated_Source\PSoC4/CYBLE_eventHandler.c ****     }
 804:Generated_Source\PSoC4/CYBLE_eventHandler.c **** #endif /* CYBLE_WSS_CLIENT */
 805:Generated_Source\PSoC4/CYBLE_eventHandler.c **** }
 806:Generated_Source\PSoC4/CYBLE_eventHandler.c **** 
ARM GAS  C:\Users\LIAMSA~1\AppData\Local\Temp\cc7Yswwd.s 			page 19


 807:Generated_Source\PSoC4/CYBLE_eventHandler.c **** 
 808:Generated_Source\PSoC4/CYBLE_eventHandler.c **** /******************************************************************************    
 809:Generated_Source\PSoC4/CYBLE_eventHandler.c **** * Function Name: CyBle_NotificationEventHandler
 810:Generated_Source\PSoC4/CYBLE_eventHandler.c **** ***************************************************************************//**
 811:Generated_Source\PSoC4/CYBLE_eventHandler.c **** * 
 812:Generated_Source\PSoC4/CYBLE_eventHandler.c **** *  Handles the Notification event from BLE stack.
 813:Generated_Source\PSoC4/CYBLE_eventHandler.c **** * 
 814:Generated_Source\PSoC4/CYBLE_eventHandler.c **** *  \param eventParam: event parameter
 815:Generated_Source\PSoC4/CYBLE_eventHandler.c **** * 
 816:Generated_Source\PSoC4/CYBLE_eventHandler.c **** * \return
 817:Generated_Source\PSoC4/CYBLE_eventHandler.c **** *  None
 818:Generated_Source\PSoC4/CYBLE_eventHandler.c **** * 
 819:Generated_Source\PSoC4/CYBLE_eventHandler.c **** ******************************************************************************/
 820:Generated_Source\PSoC4/CYBLE_eventHandler.c **** static void CyBle_NotificationEventHandler(CYBLE_GATTC_HANDLE_VALUE_NTF_PARAM_T *eventParam)
 821:Generated_Source\PSoC4/CYBLE_eventHandler.c **** {
 822:Generated_Source\PSoC4/CYBLE_eventHandler.c **** #ifdef CYBLE_AIOS_CLIENT
 823:Generated_Source\PSoC4/CYBLE_eventHandler.c ****     if((cyBle_eventHandlerFlag & CYBLE_CALLBACK) != 0u)
 824:Generated_Source\PSoC4/CYBLE_eventHandler.c ****     {
 825:Generated_Source\PSoC4/CYBLE_eventHandler.c ****         CyBle_AioscNotificationEventHandler(eventParam);
 826:Generated_Source\PSoC4/CYBLE_eventHandler.c ****     }
 827:Generated_Source\PSoC4/CYBLE_eventHandler.c **** #endif /* CYBLE_AIOS_CLIENT */
 828:Generated_Source\PSoC4/CYBLE_eventHandler.c **** #ifdef CYBLE_ANCS_CLIENT
 829:Generated_Source\PSoC4/CYBLE_eventHandler.c ****     CyBle_AncscNotificationEventHandler(eventParam);
 830:Generated_Source\PSoC4/CYBLE_eventHandler.c **** #endif /* CYBLE_ANCS_CLIENT */
 831:Generated_Source\PSoC4/CYBLE_eventHandler.c **** #ifdef CYBLE_ANS_CLIENT
 832:Generated_Source\PSoC4/CYBLE_eventHandler.c ****     if((cyBle_eventHandlerFlag & CYBLE_CALLBACK) != 0u)
 833:Generated_Source\PSoC4/CYBLE_eventHandler.c ****     {
 834:Generated_Source\PSoC4/CYBLE_eventHandler.c ****         CyBle_AnscNotificationEventHandler(eventParam);
 835:Generated_Source\PSoC4/CYBLE_eventHandler.c ****     }
 836:Generated_Source\PSoC4/CYBLE_eventHandler.c **** #endif /* CYBLE_ANS_CLIENT */
 837:Generated_Source\PSoC4/CYBLE_eventHandler.c **** #ifdef CYBLE_BAS_CLIENT
 838:Generated_Source\PSoC4/CYBLE_eventHandler.c ****     if((cyBle_eventHandlerFlag & CYBLE_CALLBACK) != 0u)
 839:Generated_Source\PSoC4/CYBLE_eventHandler.c ****     {
 840:Generated_Source\PSoC4/CYBLE_eventHandler.c ****         CyBle_BascNotificationEventHandler(eventParam);
 841:Generated_Source\PSoC4/CYBLE_eventHandler.c ****     }
 842:Generated_Source\PSoC4/CYBLE_eventHandler.c **** #endif /* CYBLE_BAS_CLIENT */
 843:Generated_Source\PSoC4/CYBLE_eventHandler.c **** #ifdef CYBLE_BLS_CLIENT
 844:Generated_Source\PSoC4/CYBLE_eventHandler.c ****     if((cyBle_eventHandlerFlag & CYBLE_CALLBACK) != 0u)
 845:Generated_Source\PSoC4/CYBLE_eventHandler.c ****     {
 846:Generated_Source\PSoC4/CYBLE_eventHandler.c ****         CyBle_BlscNotificationEventHandler(eventParam);
 847:Generated_Source\PSoC4/CYBLE_eventHandler.c ****     }
 848:Generated_Source\PSoC4/CYBLE_eventHandler.c **** #endif /* CYBLE_BLS_CLIENT */
 849:Generated_Source\PSoC4/CYBLE_eventHandler.c **** #ifdef CYBLE_CGMS_CLIENT
 850:Generated_Source\PSoC4/CYBLE_eventHandler.c ****     if((cyBle_eventHandlerFlag & CYBLE_CALLBACK) != 0u)
 851:Generated_Source\PSoC4/CYBLE_eventHandler.c ****     {
 852:Generated_Source\PSoC4/CYBLE_eventHandler.c ****         CyBle_CgmscNotificationEventHandler(eventParam);
 853:Generated_Source\PSoC4/CYBLE_eventHandler.c ****     }
 854:Generated_Source\PSoC4/CYBLE_eventHandler.c **** #endif /* CYBLE_CGMS_CLIENT */
 855:Generated_Source\PSoC4/CYBLE_eventHandler.c **** #ifdef CYBLE_CPS_CLIENT
 856:Generated_Source\PSoC4/CYBLE_eventHandler.c ****     if((cyBle_eventHandlerFlag & CYBLE_CALLBACK) != 0u)
 857:Generated_Source\PSoC4/CYBLE_eventHandler.c ****     {
 858:Generated_Source\PSoC4/CYBLE_eventHandler.c ****         CyBle_CpscNotificationEventHandler(eventParam);
 859:Generated_Source\PSoC4/CYBLE_eventHandler.c ****     }
 860:Generated_Source\PSoC4/CYBLE_eventHandler.c **** #endif /* CYBLE_CPS_CLIENT */
 861:Generated_Source\PSoC4/CYBLE_eventHandler.c **** #ifdef CYBLE_CSCS_CLIENT
 862:Generated_Source\PSoC4/CYBLE_eventHandler.c ****     if((cyBle_eventHandlerFlag & CYBLE_CALLBACK) != 0u)
 863:Generated_Source\PSoC4/CYBLE_eventHandler.c ****     {
ARM GAS  C:\Users\LIAMSA~1\AppData\Local\Temp\cc7Yswwd.s 			page 20


 864:Generated_Source\PSoC4/CYBLE_eventHandler.c ****         CyBle_CscscNotificationEventHandler(eventParam);
 865:Generated_Source\PSoC4/CYBLE_eventHandler.c ****     }
 866:Generated_Source\PSoC4/CYBLE_eventHandler.c **** #endif /* CYBLE_CSCS_CLIENT */
 867:Generated_Source\PSoC4/CYBLE_eventHandler.c **** #ifdef CYBLE_CTS_CLIENT
 868:Generated_Source\PSoC4/CYBLE_eventHandler.c ****     if((cyBle_eventHandlerFlag & CYBLE_CALLBACK) != 0u)
 869:Generated_Source\PSoC4/CYBLE_eventHandler.c ****     {
 870:Generated_Source\PSoC4/CYBLE_eventHandler.c ****         CyBle_CtscNotificationEventHandler(eventParam);
 871:Generated_Source\PSoC4/CYBLE_eventHandler.c ****     }
 872:Generated_Source\PSoC4/CYBLE_eventHandler.c **** #endif /* CYBLE_CTS_CLIENT */
 873:Generated_Source\PSoC4/CYBLE_eventHandler.c **** #ifdef CYBLE_ESS_CLIENT
 874:Generated_Source\PSoC4/CYBLE_eventHandler.c ****     if((cyBle_eventHandlerFlag & CYBLE_CALLBACK) != 0u)
 875:Generated_Source\PSoC4/CYBLE_eventHandler.c ****     {
 876:Generated_Source\PSoC4/CYBLE_eventHandler.c ****         CyBle_EsscNotificationEventHandler(eventParam);
 877:Generated_Source\PSoC4/CYBLE_eventHandler.c ****     }
 878:Generated_Source\PSoC4/CYBLE_eventHandler.c **** #endif /* CYBLE_ESS_CLIENT */
 879:Generated_Source\PSoC4/CYBLE_eventHandler.c **** #ifdef CYBLE_GLS_CLIENT
 880:Generated_Source\PSoC4/CYBLE_eventHandler.c ****     if((cyBle_eventHandlerFlag & CYBLE_CALLBACK) != 0u)
 881:Generated_Source\PSoC4/CYBLE_eventHandler.c ****     {
 882:Generated_Source\PSoC4/CYBLE_eventHandler.c ****         CyBle_GlscNotificationEventHandler(eventParam);
 883:Generated_Source\PSoC4/CYBLE_eventHandler.c ****     }
 884:Generated_Source\PSoC4/CYBLE_eventHandler.c **** #endif /* CYBLE_GLS_CLIENT */
 885:Generated_Source\PSoC4/CYBLE_eventHandler.c **** #ifdef CYBLE_HIDS_CLIENT
 886:Generated_Source\PSoC4/CYBLE_eventHandler.c ****     if((cyBle_eventHandlerFlag & CYBLE_CALLBACK) != 0u)
 887:Generated_Source\PSoC4/CYBLE_eventHandler.c ****     {
 888:Generated_Source\PSoC4/CYBLE_eventHandler.c ****         CyBle_HidscNotificationEventHandler(eventParam);
 889:Generated_Source\PSoC4/CYBLE_eventHandler.c ****     }
 890:Generated_Source\PSoC4/CYBLE_eventHandler.c **** #endif /* CYBLE_HIDS_CLIENT */
 891:Generated_Source\PSoC4/CYBLE_eventHandler.c **** #ifdef CYBLE_HPS_CLIENT
 892:Generated_Source\PSoC4/CYBLE_eventHandler.c ****     if((cyBle_eventHandlerFlag & CYBLE_CALLBACK) != 0u)
 893:Generated_Source\PSoC4/CYBLE_eventHandler.c ****     {
 894:Generated_Source\PSoC4/CYBLE_eventHandler.c ****         CyBle_HpscNotificationEventHandler(eventParam);
 895:Generated_Source\PSoC4/CYBLE_eventHandler.c ****     }
 896:Generated_Source\PSoC4/CYBLE_eventHandler.c **** #endif /* CYBLE_HPS_CLIENT */
 897:Generated_Source\PSoC4/CYBLE_eventHandler.c **** #ifdef CYBLE_HRS_CLIENT
 898:Generated_Source\PSoC4/CYBLE_eventHandler.c ****     if((cyBle_eventHandlerFlag & CYBLE_CALLBACK) != 0u)
 899:Generated_Source\PSoC4/CYBLE_eventHandler.c ****     {
 900:Generated_Source\PSoC4/CYBLE_eventHandler.c ****         CyBle_HrscNotificationEventHandler(eventParam);
 901:Generated_Source\PSoC4/CYBLE_eventHandler.c ****     }
 902:Generated_Source\PSoC4/CYBLE_eventHandler.c **** #endif /* CYBLE_HRS_CLIENT */
 903:Generated_Source\PSoC4/CYBLE_eventHandler.c **** #ifdef CYBLE_HTS_CLIENT
 904:Generated_Source\PSoC4/CYBLE_eventHandler.c ****     if((cyBle_eventHandlerFlag & CYBLE_CALLBACK) != 0u)
 905:Generated_Source\PSoC4/CYBLE_eventHandler.c ****     {
 906:Generated_Source\PSoC4/CYBLE_eventHandler.c ****         CyBle_HtscNotificationEventHandler(eventParam);
 907:Generated_Source\PSoC4/CYBLE_eventHandler.c ****     }
 908:Generated_Source\PSoC4/CYBLE_eventHandler.c **** #endif /* CYBLE_HTS_CLIENT */
 909:Generated_Source\PSoC4/CYBLE_eventHandler.c **** #ifdef CYBLE_LNS_CLIENT
 910:Generated_Source\PSoC4/CYBLE_eventHandler.c ****     if((cyBle_eventHandlerFlag & CYBLE_CALLBACK) != 0u)
 911:Generated_Source\PSoC4/CYBLE_eventHandler.c ****     {
 912:Generated_Source\PSoC4/CYBLE_eventHandler.c ****         CyBle_LnscNotificationEventHandler(eventParam);
 913:Generated_Source\PSoC4/CYBLE_eventHandler.c ****     }
 914:Generated_Source\PSoC4/CYBLE_eventHandler.c **** #endif /* CYBLE_LNS_CLIENT */
 915:Generated_Source\PSoC4/CYBLE_eventHandler.c **** #ifdef CYBLE_PASS_CLIENT
 916:Generated_Source\PSoC4/CYBLE_eventHandler.c ****     if((cyBle_eventHandlerFlag & CYBLE_CALLBACK) != 0u)
 917:Generated_Source\PSoC4/CYBLE_eventHandler.c ****     {
 918:Generated_Source\PSoC4/CYBLE_eventHandler.c ****         CyBle_PasscNotificationEventHandler(eventParam);
 919:Generated_Source\PSoC4/CYBLE_eventHandler.c ****     }
 920:Generated_Source\PSoC4/CYBLE_eventHandler.c **** #endif /* CYBLE_PASS_CLIENT */
ARM GAS  C:\Users\LIAMSA~1\AppData\Local\Temp\cc7Yswwd.s 			page 21


 921:Generated_Source\PSoC4/CYBLE_eventHandler.c **** #ifdef CYBLE_PLXS_CLIENT
 922:Generated_Source\PSoC4/CYBLE_eventHandler.c ****     if((cyBle_eventHandlerFlag & CYBLE_CALLBACK) != 0u)
 923:Generated_Source\PSoC4/CYBLE_eventHandler.c ****     {
 924:Generated_Source\PSoC4/CYBLE_eventHandler.c ****         CyBle_PlxscNotificationEventHandler(eventParam);
 925:Generated_Source\PSoC4/CYBLE_eventHandler.c ****     }
 926:Generated_Source\PSoC4/CYBLE_eventHandler.c **** #endif /* CYBLE_PLXS_CLIENT */
 927:Generated_Source\PSoC4/CYBLE_eventHandler.c **** #ifdef CYBLE_RSCS_CLIENT
 928:Generated_Source\PSoC4/CYBLE_eventHandler.c ****     if((cyBle_eventHandlerFlag & CYBLE_CALLBACK) != 0u)
 929:Generated_Source\PSoC4/CYBLE_eventHandler.c ****     {
 930:Generated_Source\PSoC4/CYBLE_eventHandler.c ****         CyBle_RscscNotificationEventHandler(eventParam);
 931:Generated_Source\PSoC4/CYBLE_eventHandler.c ****     }
 932:Generated_Source\PSoC4/CYBLE_eventHandler.c **** #endif /* CYBLE_RSCS_CLIENT */
 933:Generated_Source\PSoC4/CYBLE_eventHandler.c **** #ifdef CYBLE_SCPS_CLIENT
 934:Generated_Source\PSoC4/CYBLE_eventHandler.c ****     if((cyBle_eventHandlerFlag & CYBLE_CALLBACK) != 0u)
 935:Generated_Source\PSoC4/CYBLE_eventHandler.c ****     {
 936:Generated_Source\PSoC4/CYBLE_eventHandler.c ****         CyBle_ScpscNotificationEventHandler(eventParam);
 937:Generated_Source\PSoC4/CYBLE_eventHandler.c ****     }
 938:Generated_Source\PSoC4/CYBLE_eventHandler.c **** #endif /* CYBLE_SCPS_CLIENT */
 939:Generated_Source\PSoC4/CYBLE_eventHandler.c **** #ifdef CYBLE_TPS_CLIENT
 940:Generated_Source\PSoC4/CYBLE_eventHandler.c ****     if((cyBle_eventHandlerFlag & CYBLE_CALLBACK) != 0u)
 941:Generated_Source\PSoC4/CYBLE_eventHandler.c ****     {
 942:Generated_Source\PSoC4/CYBLE_eventHandler.c ****         CyBle_TpscNotificationEventHandler(eventParam);
 943:Generated_Source\PSoC4/CYBLE_eventHandler.c ****     }
 944:Generated_Source\PSoC4/CYBLE_eventHandler.c **** #endif /* CYBLE_TPS_CLIENT */
 945:Generated_Source\PSoC4/CYBLE_eventHandler.c **** #ifdef CYBLE_UDS_CLIENT
 946:Generated_Source\PSoC4/CYBLE_eventHandler.c ****     if((cyBle_eventHandlerFlag & CYBLE_CALLBACK) != 0u)
 947:Generated_Source\PSoC4/CYBLE_eventHandler.c ****     {
 948:Generated_Source\PSoC4/CYBLE_eventHandler.c ****         CyBle_UdscNotificationEventHandler(eventParam);
 949:Generated_Source\PSoC4/CYBLE_eventHandler.c ****     }
 950:Generated_Source\PSoC4/CYBLE_eventHandler.c **** #endif /* CYBLE_UDS_CLIENT */
 951:Generated_Source\PSoC4/CYBLE_eventHandler.c **** #ifdef CYBLE_WPTS_CLIENT
 952:Generated_Source\PSoC4/CYBLE_eventHandler.c ****     if((cyBle_eventHandlerFlag & CYBLE_CALLBACK) != 0u)
 953:Generated_Source\PSoC4/CYBLE_eventHandler.c ****     {
 954:Generated_Source\PSoC4/CYBLE_eventHandler.c ****         CyBle_WptscNotificationEventHandler(eventParam);
 955:Generated_Source\PSoC4/CYBLE_eventHandler.c ****     }
 956:Generated_Source\PSoC4/CYBLE_eventHandler.c **** #endif /* CYBLE_WPTS_CLIENT */
 957:Generated_Source\PSoC4/CYBLE_eventHandler.c **** }
 958:Generated_Source\PSoC4/CYBLE_eventHandler.c **** 
 959:Generated_Source\PSoC4/CYBLE_eventHandler.c **** 
 960:Generated_Source\PSoC4/CYBLE_eventHandler.c **** /******************************************************************************    
 961:Generated_Source\PSoC4/CYBLE_eventHandler.c **** * Function Name: CyBle_IndicationEventHandler
 962:Generated_Source\PSoC4/CYBLE_eventHandler.c **** ***************************************************************************//**
 963:Generated_Source\PSoC4/CYBLE_eventHandler.c **** * 
 964:Generated_Source\PSoC4/CYBLE_eventHandler.c **** *  Handles the Indication event from BLE stack.
 965:Generated_Source\PSoC4/CYBLE_eventHandler.c **** * 
 966:Generated_Source\PSoC4/CYBLE_eventHandler.c **** *  \param eventParam: event parameter
 967:Generated_Source\PSoC4/CYBLE_eventHandler.c **** * 
 968:Generated_Source\PSoC4/CYBLE_eventHandler.c **** * \return
 969:Generated_Source\PSoC4/CYBLE_eventHandler.c **** *  None
 970:Generated_Source\PSoC4/CYBLE_eventHandler.c **** * 
 971:Generated_Source\PSoC4/CYBLE_eventHandler.c **** ******************************************************************************/
 972:Generated_Source\PSoC4/CYBLE_eventHandler.c **** static void CyBle_IndicationEventHandler(CYBLE_GATTC_HANDLE_VALUE_IND_PARAM_T *eventParam)
 973:Generated_Source\PSoC4/CYBLE_eventHandler.c **** {
 974:Generated_Source\PSoC4/CYBLE_eventHandler.c **** #ifdef CYBLE_AIOS_CLIENT
 975:Generated_Source\PSoC4/CYBLE_eventHandler.c ****     if((cyBle_eventHandlerFlag & CYBLE_CALLBACK) != 0u)
 976:Generated_Source\PSoC4/CYBLE_eventHandler.c ****     {
 977:Generated_Source\PSoC4/CYBLE_eventHandler.c ****         CyBle_AioscIndicationEventHandler(eventParam);
ARM GAS  C:\Users\LIAMSA~1\AppData\Local\Temp\cc7Yswwd.s 			page 22


 978:Generated_Source\PSoC4/CYBLE_eventHandler.c ****     }
 979:Generated_Source\PSoC4/CYBLE_eventHandler.c **** #endif /* CYBLE_AIOS_CLIENT */
 980:Generated_Source\PSoC4/CYBLE_eventHandler.c **** #ifdef CYBLE_BCS_CLIENT
 981:Generated_Source\PSoC4/CYBLE_eventHandler.c ****     if((cyBle_eventHandlerFlag & CYBLE_CALLBACK) != 0u)
 982:Generated_Source\PSoC4/CYBLE_eventHandler.c ****     {
 983:Generated_Source\PSoC4/CYBLE_eventHandler.c ****         CyBle_BcscIndicationEventHandler(eventParam);
 984:Generated_Source\PSoC4/CYBLE_eventHandler.c ****     }
 985:Generated_Source\PSoC4/CYBLE_eventHandler.c **** #endif /* CYBLE_BCS_CLIENT */
 986:Generated_Source\PSoC4/CYBLE_eventHandler.c **** #ifdef CYBLE_BLS_CLIENT
 987:Generated_Source\PSoC4/CYBLE_eventHandler.c ****     if((cyBle_eventHandlerFlag & CYBLE_CALLBACK) != 0u)
 988:Generated_Source\PSoC4/CYBLE_eventHandler.c ****     {
 989:Generated_Source\PSoC4/CYBLE_eventHandler.c ****         CyBle_BlscIndicationEventHandler(eventParam);
 990:Generated_Source\PSoC4/CYBLE_eventHandler.c ****     }
 991:Generated_Source\PSoC4/CYBLE_eventHandler.c **** #endif /* CYBLE_BLS_CLIENT */
 992:Generated_Source\PSoC4/CYBLE_eventHandler.c **** #ifdef CYBLE_CGMS_CLIENT
 993:Generated_Source\PSoC4/CYBLE_eventHandler.c ****     if((cyBle_eventHandlerFlag & CYBLE_CALLBACK) != 0u)
 994:Generated_Source\PSoC4/CYBLE_eventHandler.c ****     {
 995:Generated_Source\PSoC4/CYBLE_eventHandler.c ****         CyBle_CgmscIndicationEventHandler(eventParam);
 996:Generated_Source\PSoC4/CYBLE_eventHandler.c ****     }
 997:Generated_Source\PSoC4/CYBLE_eventHandler.c **** #endif /* CYBLE_CGMS_CLIENT */
 998:Generated_Source\PSoC4/CYBLE_eventHandler.c **** #ifdef CYBLE_CPS_CLIENT
 999:Generated_Source\PSoC4/CYBLE_eventHandler.c ****     if((cyBle_eventHandlerFlag & CYBLE_CALLBACK) != 0u)
1000:Generated_Source\PSoC4/CYBLE_eventHandler.c ****     {
1001:Generated_Source\PSoC4/CYBLE_eventHandler.c ****         CyBle_CpscIndicationEventHandler(eventParam);
1002:Generated_Source\PSoC4/CYBLE_eventHandler.c ****     }
1003:Generated_Source\PSoC4/CYBLE_eventHandler.c **** #endif /* CYBLE_CPS_CLIENT */
1004:Generated_Source\PSoC4/CYBLE_eventHandler.c **** #ifdef CYBLE_CSCS_CLIENT
1005:Generated_Source\PSoC4/CYBLE_eventHandler.c ****     if((cyBle_eventHandlerFlag & CYBLE_CALLBACK) != 0u)
1006:Generated_Source\PSoC4/CYBLE_eventHandler.c ****     {
1007:Generated_Source\PSoC4/CYBLE_eventHandler.c ****         CyBle_CscscIndicationEventHandler(eventParam);
1008:Generated_Source\PSoC4/CYBLE_eventHandler.c ****     }
1009:Generated_Source\PSoC4/CYBLE_eventHandler.c **** #endif /* CYBLE_CSCS_CLIENT */
1010:Generated_Source\PSoC4/CYBLE_eventHandler.c **** #ifdef CYBLE_ESS_CLIENT
1011:Generated_Source\PSoC4/CYBLE_eventHandler.c ****     if((cyBle_eventHandlerFlag & CYBLE_CALLBACK) != 0u)
1012:Generated_Source\PSoC4/CYBLE_eventHandler.c ****     {
1013:Generated_Source\PSoC4/CYBLE_eventHandler.c ****         CyBle_EsscIndicationEventHandler(eventParam);
1014:Generated_Source\PSoC4/CYBLE_eventHandler.c ****     }
1015:Generated_Source\PSoC4/CYBLE_eventHandler.c **** #endif /* CYBLE_ESS_CLIENT */
1016:Generated_Source\PSoC4/CYBLE_eventHandler.c **** #ifdef CYBLE_GLS_CLIENT
1017:Generated_Source\PSoC4/CYBLE_eventHandler.c ****     if((cyBle_eventHandlerFlag & CYBLE_CALLBACK) != 0u)
1018:Generated_Source\PSoC4/CYBLE_eventHandler.c ****     {
1019:Generated_Source\PSoC4/CYBLE_eventHandler.c ****         CyBle_GlscIndicationEventHandler(eventParam);
1020:Generated_Source\PSoC4/CYBLE_eventHandler.c ****     }
1021:Generated_Source\PSoC4/CYBLE_eventHandler.c **** #endif /* CYBLE_GLS_CLIENT */
1022:Generated_Source\PSoC4/CYBLE_eventHandler.c **** #ifdef CYBLE_HTS_CLIENT
1023:Generated_Source\PSoC4/CYBLE_eventHandler.c ****     if((cyBle_eventHandlerFlag & CYBLE_CALLBACK) != 0u)
1024:Generated_Source\PSoC4/CYBLE_eventHandler.c ****     {
1025:Generated_Source\PSoC4/CYBLE_eventHandler.c ****         CyBle_HtscIndicationEventHandler(eventParam);
1026:Generated_Source\PSoC4/CYBLE_eventHandler.c ****     }
1027:Generated_Source\PSoC4/CYBLE_eventHandler.c **** #endif /* CYBLE_HTS_CLIENT */
1028:Generated_Source\PSoC4/CYBLE_eventHandler.c **** #ifdef CYBLE_LNS_CLIENT
1029:Generated_Source\PSoC4/CYBLE_eventHandler.c ****     if((cyBle_eventHandlerFlag & CYBLE_CALLBACK) != 0u)
1030:Generated_Source\PSoC4/CYBLE_eventHandler.c ****     {
1031:Generated_Source\PSoC4/CYBLE_eventHandler.c ****         CyBle_LnscIndicationEventHandler(eventParam);
1032:Generated_Source\PSoC4/CYBLE_eventHandler.c ****     }
1033:Generated_Source\PSoC4/CYBLE_eventHandler.c **** #endif /* CYBLE_LNS_CLIENT */
1034:Generated_Source\PSoC4/CYBLE_eventHandler.c **** #ifdef CYBLE_OTS_CLIENT
ARM GAS  C:\Users\LIAMSA~1\AppData\Local\Temp\cc7Yswwd.s 			page 23


1035:Generated_Source\PSoC4/CYBLE_eventHandler.c ****     if((cyBle_eventHandlerFlag & CYBLE_CALLBACK) != 0u)
1036:Generated_Source\PSoC4/CYBLE_eventHandler.c ****     {
1037:Generated_Source\PSoC4/CYBLE_eventHandler.c ****         CyBle_OtscIndicationEventHandler(eventParam);
1038:Generated_Source\PSoC4/CYBLE_eventHandler.c ****     }
1039:Generated_Source\PSoC4/CYBLE_eventHandler.c **** #endif /* CYBLE_OTS_CLIENT */
1040:Generated_Source\PSoC4/CYBLE_eventHandler.c **** #ifdef CYBLE_PLXS_CLIENT
1041:Generated_Source\PSoC4/CYBLE_eventHandler.c ****     if((cyBle_eventHandlerFlag & CYBLE_CALLBACK) != 0u)
1042:Generated_Source\PSoC4/CYBLE_eventHandler.c ****     {
1043:Generated_Source\PSoC4/CYBLE_eventHandler.c ****         CyBle_PlxscIndicationEventHandler(eventParam);
1044:Generated_Source\PSoC4/CYBLE_eventHandler.c ****     }
1045:Generated_Source\PSoC4/CYBLE_eventHandler.c **** #endif /* CYBLE_PLXS_CLIENT */
1046:Generated_Source\PSoC4/CYBLE_eventHandler.c **** #ifdef CYBLE_RSCS_CLIENT
1047:Generated_Source\PSoC4/CYBLE_eventHandler.c ****     if((cyBle_eventHandlerFlag & CYBLE_CALLBACK) != 0u)
1048:Generated_Source\PSoC4/CYBLE_eventHandler.c ****     {
1049:Generated_Source\PSoC4/CYBLE_eventHandler.c ****         CyBle_RscscIndicationEventHandler(eventParam);
1050:Generated_Source\PSoC4/CYBLE_eventHandler.c ****     }
1051:Generated_Source\PSoC4/CYBLE_eventHandler.c **** #endif /* CYBLE_RSCS_CLIENT */
1052:Generated_Source\PSoC4/CYBLE_eventHandler.c **** #ifdef CYBLE_UDS_CLIENT
1053:Generated_Source\PSoC4/CYBLE_eventHandler.c ****     if((cyBle_eventHandlerFlag & CYBLE_CALLBACK) != 0u)
1054:Generated_Source\PSoC4/CYBLE_eventHandler.c ****     {
1055:Generated_Source\PSoC4/CYBLE_eventHandler.c ****         CyBle_UdscIndicationEventHandler(eventParam);
1056:Generated_Source\PSoC4/CYBLE_eventHandler.c ****     }
1057:Generated_Source\PSoC4/CYBLE_eventHandler.c **** #endif /* CYBLE_UDS_CLIENT */
1058:Generated_Source\PSoC4/CYBLE_eventHandler.c **** #ifdef CYBLE_WPTS_CLIENT
1059:Generated_Source\PSoC4/CYBLE_eventHandler.c ****     if((cyBle_eventHandlerFlag & CYBLE_CALLBACK) != 0u)
1060:Generated_Source\PSoC4/CYBLE_eventHandler.c ****     {
1061:Generated_Source\PSoC4/CYBLE_eventHandler.c ****         CyBle_WptscIndicationEventHandler(eventParam);
1062:Generated_Source\PSoC4/CYBLE_eventHandler.c ****     }
1063:Generated_Source\PSoC4/CYBLE_eventHandler.c **** #endif /* CYBLE_WPTS_CLIENT */
1064:Generated_Source\PSoC4/CYBLE_eventHandler.c **** #ifdef CYBLE_WSS_CLIENT
1065:Generated_Source\PSoC4/CYBLE_eventHandler.c ****     if((cyBle_eventHandlerFlag & CYBLE_CALLBACK) != 0u)
1066:Generated_Source\PSoC4/CYBLE_eventHandler.c ****     {
1067:Generated_Source\PSoC4/CYBLE_eventHandler.c ****         CyBle_WsscIndicationEventHandler(eventParam);
1068:Generated_Source\PSoC4/CYBLE_eventHandler.c ****     }
1069:Generated_Source\PSoC4/CYBLE_eventHandler.c **** #endif /* CYBLE_WSS_CLIENT */
1070:Generated_Source\PSoC4/CYBLE_eventHandler.c **** }
1071:Generated_Source\PSoC4/CYBLE_eventHandler.c **** 
1072:Generated_Source\PSoC4/CYBLE_eventHandler.c **** /******************************************************************************    
1073:Generated_Source\PSoC4/CYBLE_eventHandler.c **** * Function Name: CyBle_ReadResponseEventHandler
1074:Generated_Source\PSoC4/CYBLE_eventHandler.c **** ***************************************************************************//**
1075:Generated_Source\PSoC4/CYBLE_eventHandler.c **** * 
1076:Generated_Source\PSoC4/CYBLE_eventHandler.c **** *  Handles the Read Response event from BLE stack.
1077:Generated_Source\PSoC4/CYBLE_eventHandler.c **** * 
1078:Generated_Source\PSoC4/CYBLE_eventHandler.c **** *  \param eventParam: event parameter
1079:Generated_Source\PSoC4/CYBLE_eventHandler.c **** * 
1080:Generated_Source\PSoC4/CYBLE_eventHandler.c **** * \return
1081:Generated_Source\PSoC4/CYBLE_eventHandler.c **** *  None
1082:Generated_Source\PSoC4/CYBLE_eventHandler.c **** * 
1083:Generated_Source\PSoC4/CYBLE_eventHandler.c **** ******************************************************************************/
1084:Generated_Source\PSoC4/CYBLE_eventHandler.c **** static void CyBle_ReadResponseEventHandler(CYBLE_GATTC_READ_RSP_PARAM_T *eventParam)
1085:Generated_Source\PSoC4/CYBLE_eventHandler.c **** {
1086:Generated_Source\PSoC4/CYBLE_eventHandler.c **** #ifdef CYBLE_CUSTOM_CLIENT
1087:Generated_Source\PSoC4/CYBLE_eventHandler.c ****     /* Read response with 128-bit included service uuid */
1088:Generated_Source\PSoC4/CYBLE_eventHandler.c ****     if((CyBle_GetClientState() == CYBLE_CLIENT_STATE_INCL_DISCOVERING) &&
1089:Generated_Source\PSoC4/CYBLE_eventHandler.c ****        (cyBle_discInclInfo.inclDefHandle != 0u))
1090:Generated_Source\PSoC4/CYBLE_eventHandler.c ****     {
1091:Generated_Source\PSoC4/CYBLE_eventHandler.c ****         CYBLE_DISC_SRVC128_INFO_T discServInfo;
ARM GAS  C:\Users\LIAMSA~1\AppData\Local\Temp\cc7Yswwd.s 			page 24


1092:Generated_Source\PSoC4/CYBLE_eventHandler.c **** 
1093:Generated_Source\PSoC4/CYBLE_eventHandler.c ****         /* Store service range */
1094:Generated_Source\PSoC4/CYBLE_eventHandler.c ****         discServInfo.range = cyBle_discInclInfo.inclHandleRange;
1095:Generated_Source\PSoC4/CYBLE_eventHandler.c ****         (void)memcpy((void *) discServInfo.uuid.uuid128.value, (void *)eventParam->value.val, event
1096:Generated_Source\PSoC4/CYBLE_eventHandler.c ****         CyBle_CustomcDiscoverServiceEventHandler(&discServInfo);
1097:Generated_Source\PSoC4/CYBLE_eventHandler.c ****         
1098:Generated_Source\PSoC4/CYBLE_eventHandler.c ****         /* Re-initiate CyBle_GattcFindIncludedServices function, setting the start
1099:Generated_Source\PSoC4/CYBLE_eventHandler.c ****            handle to the attribute handle which is placed next to the one used in
1100:Generated_Source\PSoC4/CYBLE_eventHandler.c ****            the above step.
1101:Generated_Source\PSoC4/CYBLE_eventHandler.c ****         */
1102:Generated_Source\PSoC4/CYBLE_eventHandler.c ****         discServInfo.range.startHandle = cyBle_discInclInfo.inclDefHandle + 1u;
1103:Generated_Source\PSoC4/CYBLE_eventHandler.c ****         discServInfo.range.endHandle = cyBle_serverInfo[cyBle_disCount].range.endHandle;
1104:Generated_Source\PSoC4/CYBLE_eventHandler.c ****         if(discServInfo.range.startHandle <= discServInfo.range.endHandle)
1105:Generated_Source\PSoC4/CYBLE_eventHandler.c ****         {
1106:Generated_Source\PSoC4/CYBLE_eventHandler.c ****             if(CYBLE_ERROR_OK != CyBle_GattcFindIncludedServices(cyBle_connHandle, &discServInfo.ra
1107:Generated_Source\PSoC4/CYBLE_eventHandler.c ****             {
1108:Generated_Source\PSoC4/CYBLE_eventHandler.c ****                 CyBle_ApplCallback(CYBLE_EVT_GATTC_INCL_DISCOVERY_FAILED, NULL);
1109:Generated_Source\PSoC4/CYBLE_eventHandler.c ****                 cyBle_eventHandlerFlag &= (uint8)~CYBLE_AUTO_DISCOVERY;
1110:Generated_Source\PSoC4/CYBLE_eventHandler.c ****             }
1111:Generated_Source\PSoC4/CYBLE_eventHandler.c ****         }
1112:Generated_Source\PSoC4/CYBLE_eventHandler.c ****         else /* Continue discovery of the following service */
1113:Generated_Source\PSoC4/CYBLE_eventHandler.c ****         {
1114:Generated_Source\PSoC4/CYBLE_eventHandler.c ****             CyBle_NextInclDiscovery(CYBLE_DISCOVERY_CONTINUE);
1115:Generated_Source\PSoC4/CYBLE_eventHandler.c ****         }
1116:Generated_Source\PSoC4/CYBLE_eventHandler.c ****         
1117:Generated_Source\PSoC4/CYBLE_eventHandler.c ****         cyBle_eventHandlerFlag &= (uint8)~CYBLE_CALLBACK;
1118:Generated_Source\PSoC4/CYBLE_eventHandler.c ****     #ifdef CYBLE_CUSTOM_CLIENT
1119:Generated_Source\PSoC4/CYBLE_eventHandler.c ****         cyBle_discInclInfo.inclDefHandle = 0u;
1120:Generated_Source\PSoC4/CYBLE_eventHandler.c ****     #endif /* CYBLE_CUSTOM_CLIENT */
1121:Generated_Source\PSoC4/CYBLE_eventHandler.c ****     }
1122:Generated_Source\PSoC4/CYBLE_eventHandler.c **** #endif /* CYBLE_CUSTOM_CLIENT */
1123:Generated_Source\PSoC4/CYBLE_eventHandler.c **** #ifdef CYBLE_AIOS_CLIENT
1124:Generated_Source\PSoC4/CYBLE_eventHandler.c ****     if((cyBle_eventHandlerFlag & CYBLE_CALLBACK) != 0u)
1125:Generated_Source\PSoC4/CYBLE_eventHandler.c ****     {
1126:Generated_Source\PSoC4/CYBLE_eventHandler.c ****         CyBle_AioscReadResponseEventHandler(eventParam);
1127:Generated_Source\PSoC4/CYBLE_eventHandler.c ****     }
1128:Generated_Source\PSoC4/CYBLE_eventHandler.c **** #endif /* CYBLE_AIOS_CLIENT */
1129:Generated_Source\PSoC4/CYBLE_eventHandler.c **** #ifdef CYBLE_ANCS_CLIENT
1130:Generated_Source\PSoC4/CYBLE_eventHandler.c ****     if((cyBle_eventHandlerFlag & CYBLE_CALLBACK) != 0u)
1131:Generated_Source\PSoC4/CYBLE_eventHandler.c ****     {
1132:Generated_Source\PSoC4/CYBLE_eventHandler.c ****         CyBle_AncscReadResponseEventHandler(eventParam);
1133:Generated_Source\PSoC4/CYBLE_eventHandler.c ****     }
1134:Generated_Source\PSoC4/CYBLE_eventHandler.c **** #endif /* CYBLE_ANCS_CLIENT */
1135:Generated_Source\PSoC4/CYBLE_eventHandler.c **** #ifdef CYBLE_ANS_CLIENT
1136:Generated_Source\PSoC4/CYBLE_eventHandler.c ****     if((cyBle_eventHandlerFlag & CYBLE_CALLBACK) != 0u)
1137:Generated_Source\PSoC4/CYBLE_eventHandler.c ****     {
1138:Generated_Source\PSoC4/CYBLE_eventHandler.c ****         CyBle_AnscReadResponseEventHandler(eventParam);
1139:Generated_Source\PSoC4/CYBLE_eventHandler.c ****     }
1140:Generated_Source\PSoC4/CYBLE_eventHandler.c **** #endif /* CYBLE_ANS_CLIENT */
1141:Generated_Source\PSoC4/CYBLE_eventHandler.c **** #ifdef CYBLE_BAS_CLIENT
1142:Generated_Source\PSoC4/CYBLE_eventHandler.c ****     if((cyBle_eventHandlerFlag & CYBLE_CALLBACK) != 0u)
1143:Generated_Source\PSoC4/CYBLE_eventHandler.c ****     {
1144:Generated_Source\PSoC4/CYBLE_eventHandler.c ****         CyBle_BascReadResponseEventHandler(eventParam);
1145:Generated_Source\PSoC4/CYBLE_eventHandler.c ****     }
1146:Generated_Source\PSoC4/CYBLE_eventHandler.c **** #endif /* CYBLE_BAS_CLIENT */
1147:Generated_Source\PSoC4/CYBLE_eventHandler.c **** #ifdef CYBLE_BLS_CLIENT
1148:Generated_Source\PSoC4/CYBLE_eventHandler.c ****     if((cyBle_eventHandlerFlag & CYBLE_CALLBACK) != 0u)
ARM GAS  C:\Users\LIAMSA~1\AppData\Local\Temp\cc7Yswwd.s 			page 25


1149:Generated_Source\PSoC4/CYBLE_eventHandler.c ****     {
1150:Generated_Source\PSoC4/CYBLE_eventHandler.c ****         CyBle_BlscReadResponseEventHandler(eventParam);
1151:Generated_Source\PSoC4/CYBLE_eventHandler.c ****     }
1152:Generated_Source\PSoC4/CYBLE_eventHandler.c **** #endif /* CYBLE_BLS_CLIENT */
1153:Generated_Source\PSoC4/CYBLE_eventHandler.c **** #ifdef CYBLE_BCS_CLIENT
1154:Generated_Source\PSoC4/CYBLE_eventHandler.c ****     if((cyBle_eventHandlerFlag & CYBLE_CALLBACK) != 0u)
1155:Generated_Source\PSoC4/CYBLE_eventHandler.c ****     {
1156:Generated_Source\PSoC4/CYBLE_eventHandler.c ****         CyBle_BcscReadResponseEventHandler(eventParam);
1157:Generated_Source\PSoC4/CYBLE_eventHandler.c ****     }
1158:Generated_Source\PSoC4/CYBLE_eventHandler.c **** #endif /* CYBLE_BCS_CLIENT */
1159:Generated_Source\PSoC4/CYBLE_eventHandler.c **** #ifdef CYBLE_BMS_CLIENT
1160:Generated_Source\PSoC4/CYBLE_eventHandler.c ****     if((cyBle_eventHandlerFlag & CYBLE_CALLBACK) != 0u)
1161:Generated_Source\PSoC4/CYBLE_eventHandler.c ****     {
1162:Generated_Source\PSoC4/CYBLE_eventHandler.c ****         CyBle_BmscReadResponseEventHandler(eventParam);
1163:Generated_Source\PSoC4/CYBLE_eventHandler.c ****     }
1164:Generated_Source\PSoC4/CYBLE_eventHandler.c **** #endif /* CYBLE_BMS_CLIENT */
1165:Generated_Source\PSoC4/CYBLE_eventHandler.c **** #ifdef CYBLE_CGMS_CLIENT
1166:Generated_Source\PSoC4/CYBLE_eventHandler.c ****     if((cyBle_eventHandlerFlag & CYBLE_CALLBACK) != 0u)
1167:Generated_Source\PSoC4/CYBLE_eventHandler.c ****     {
1168:Generated_Source\PSoC4/CYBLE_eventHandler.c ****         CyBle_CgmscReadResponseEventHandler(eventParam);
1169:Generated_Source\PSoC4/CYBLE_eventHandler.c ****     }
1170:Generated_Source\PSoC4/CYBLE_eventHandler.c **** #endif /* CYBLE_CGMS_CLIENT */
1171:Generated_Source\PSoC4/CYBLE_eventHandler.c **** #ifdef CYBLE_CPS_CLIENT
1172:Generated_Source\PSoC4/CYBLE_eventHandler.c ****     if((cyBle_eventHandlerFlag & CYBLE_CALLBACK) != 0u)
1173:Generated_Source\PSoC4/CYBLE_eventHandler.c ****     {
1174:Generated_Source\PSoC4/CYBLE_eventHandler.c ****         CyBle_CpscReadResponseEventHandler(eventParam);
1175:Generated_Source\PSoC4/CYBLE_eventHandler.c ****     }
1176:Generated_Source\PSoC4/CYBLE_eventHandler.c **** #endif /* CYBLE_CPS_CLIENT */
1177:Generated_Source\PSoC4/CYBLE_eventHandler.c **** #ifdef CYBLE_CSCS_CLIENT
1178:Generated_Source\PSoC4/CYBLE_eventHandler.c ****     if((cyBle_eventHandlerFlag & CYBLE_CALLBACK) != 0u)
1179:Generated_Source\PSoC4/CYBLE_eventHandler.c ****     {
1180:Generated_Source\PSoC4/CYBLE_eventHandler.c ****         CyBle_CscscReadResponseEventHandler(eventParam);
1181:Generated_Source\PSoC4/CYBLE_eventHandler.c ****     }
1182:Generated_Source\PSoC4/CYBLE_eventHandler.c **** #endif /* CYBLE_CSCS_CLIENT */
1183:Generated_Source\PSoC4/CYBLE_eventHandler.c **** #ifdef CYBLE_CTS_CLIENT
1184:Generated_Source\PSoC4/CYBLE_eventHandler.c ****     if((cyBle_eventHandlerFlag & CYBLE_CALLBACK) != 0u)
1185:Generated_Source\PSoC4/CYBLE_eventHandler.c ****     {
1186:Generated_Source\PSoC4/CYBLE_eventHandler.c ****         CyBle_CtscReadResponseEventHandler(eventParam);
1187:Generated_Source\PSoC4/CYBLE_eventHandler.c ****     }
1188:Generated_Source\PSoC4/CYBLE_eventHandler.c **** #endif /* CYBLE_BAS_CLIENT */
1189:Generated_Source\PSoC4/CYBLE_eventHandler.c **** #ifdef CYBLE_DIS_CLIENT
1190:Generated_Source\PSoC4/CYBLE_eventHandler.c ****     if((cyBle_eventHandlerFlag & CYBLE_CALLBACK) != 0u)
1191:Generated_Source\PSoC4/CYBLE_eventHandler.c ****     {
1192:Generated_Source\PSoC4/CYBLE_eventHandler.c ****         CyBle_DiscReadResponseEventHandler(eventParam);
1193:Generated_Source\PSoC4/CYBLE_eventHandler.c ****     }
1194:Generated_Source\PSoC4/CYBLE_eventHandler.c **** #endif /* CYBLE_DIS_CLIENT */
1195:Generated_Source\PSoC4/CYBLE_eventHandler.c **** #ifdef CYBLE_ESS_CLIENT
1196:Generated_Source\PSoC4/CYBLE_eventHandler.c ****     if((cyBle_eventHandlerFlag & CYBLE_CALLBACK) != 0u)
1197:Generated_Source\PSoC4/CYBLE_eventHandler.c ****     {
1198:Generated_Source\PSoC4/CYBLE_eventHandler.c ****         CyBle_EsscReadResponseEventHandler(eventParam);
1199:Generated_Source\PSoC4/CYBLE_eventHandler.c ****     }
1200:Generated_Source\PSoC4/CYBLE_eventHandler.c **** #endif /* CYBLE_ESS_CLIENT */
1201:Generated_Source\PSoC4/CYBLE_eventHandler.c **** #ifdef CYBLE_GLS_CLIENT
1202:Generated_Source\PSoC4/CYBLE_eventHandler.c ****     if((cyBle_eventHandlerFlag & CYBLE_CALLBACK) != 0u)
1203:Generated_Source\PSoC4/CYBLE_eventHandler.c ****     {
1204:Generated_Source\PSoC4/CYBLE_eventHandler.c ****         CyBle_GlscReadResponseEventHandler(eventParam);
1205:Generated_Source\PSoC4/CYBLE_eventHandler.c ****     }
ARM GAS  C:\Users\LIAMSA~1\AppData\Local\Temp\cc7Yswwd.s 			page 26


1206:Generated_Source\PSoC4/CYBLE_eventHandler.c **** #endif /* CYBLE_GLS_CLIENT */
1207:Generated_Source\PSoC4/CYBLE_eventHandler.c **** #ifdef CYBLE_HIDS_CLIENT
1208:Generated_Source\PSoC4/CYBLE_eventHandler.c ****     if((cyBle_eventHandlerFlag & CYBLE_CALLBACK) != 0u)
1209:Generated_Source\PSoC4/CYBLE_eventHandler.c ****     {
1210:Generated_Source\PSoC4/CYBLE_eventHandler.c ****         CyBle_HidscReadResponseEventHandler(eventParam);
1211:Generated_Source\PSoC4/CYBLE_eventHandler.c ****     }
1212:Generated_Source\PSoC4/CYBLE_eventHandler.c **** #endif /* CYBLE_HIDS_CLIENT */
1213:Generated_Source\PSoC4/CYBLE_eventHandler.c **** #ifdef CYBLE_HPS_CLIENT
1214:Generated_Source\PSoC4/CYBLE_eventHandler.c ****     if((cyBle_eventHandlerFlag & CYBLE_CALLBACK) != 0u)
1215:Generated_Source\PSoC4/CYBLE_eventHandler.c ****     {
1216:Generated_Source\PSoC4/CYBLE_eventHandler.c ****         CyBle_HpscReadResponseEventHandler(eventParam);
1217:Generated_Source\PSoC4/CYBLE_eventHandler.c ****     }
1218:Generated_Source\PSoC4/CYBLE_eventHandler.c **** #endif /* CYBLE_HPS_CLIENT */
1219:Generated_Source\PSoC4/CYBLE_eventHandler.c **** #ifdef CYBLE_HRS_CLIENT
1220:Generated_Source\PSoC4/CYBLE_eventHandler.c ****     if((cyBle_eventHandlerFlag & CYBLE_CALLBACK) != 0u)
1221:Generated_Source\PSoC4/CYBLE_eventHandler.c ****     {
1222:Generated_Source\PSoC4/CYBLE_eventHandler.c ****         CyBle_HrscReadResponseEventHandler(eventParam);
1223:Generated_Source\PSoC4/CYBLE_eventHandler.c ****     }
1224:Generated_Source\PSoC4/CYBLE_eventHandler.c **** #endif /* CYBLE_HRS_CLIENT */
1225:Generated_Source\PSoC4/CYBLE_eventHandler.c **** #ifdef CYBLE_HTS_CLIENT
1226:Generated_Source\PSoC4/CYBLE_eventHandler.c ****     if((cyBle_eventHandlerFlag & CYBLE_CALLBACK) != 0u)
1227:Generated_Source\PSoC4/CYBLE_eventHandler.c ****     {
1228:Generated_Source\PSoC4/CYBLE_eventHandler.c ****         CyBle_HtscReadResponseEventHandler(eventParam);
1229:Generated_Source\PSoC4/CYBLE_eventHandler.c ****     }
1230:Generated_Source\PSoC4/CYBLE_eventHandler.c **** #endif /* CYBLE_HTS_CLIENT */
1231:Generated_Source\PSoC4/CYBLE_eventHandler.c **** #ifdef CYBLE_IPS_CLIENT
1232:Generated_Source\PSoC4/CYBLE_eventHandler.c ****     if((cyBle_eventHandlerFlag & CYBLE_CALLBACK) != 0u)
1233:Generated_Source\PSoC4/CYBLE_eventHandler.c ****     {
1234:Generated_Source\PSoC4/CYBLE_eventHandler.c ****         CyBle_IpscReadResponseEventHandler(eventParam);
1235:Generated_Source\PSoC4/CYBLE_eventHandler.c ****     }
1236:Generated_Source\PSoC4/CYBLE_eventHandler.c **** #endif /* CYBLE_IPS_CLIENT */
1237:Generated_Source\PSoC4/CYBLE_eventHandler.c **** #ifdef CYBLE_LLS_CLIENT
1238:Generated_Source\PSoC4/CYBLE_eventHandler.c ****     if((cyBle_eventHandlerFlag & CYBLE_CALLBACK) != 0u)
1239:Generated_Source\PSoC4/CYBLE_eventHandler.c ****     {
1240:Generated_Source\PSoC4/CYBLE_eventHandler.c ****         CyBle_LlscReadResponseEventHandler(eventParam);
1241:Generated_Source\PSoC4/CYBLE_eventHandler.c ****     }
1242:Generated_Source\PSoC4/CYBLE_eventHandler.c **** #endif /* CYBLE_LLS_CLIENT */
1243:Generated_Source\PSoC4/CYBLE_eventHandler.c **** #ifdef CYBLE_LNS_CLIENT
1244:Generated_Source\PSoC4/CYBLE_eventHandler.c ****     if((cyBle_eventHandlerFlag & CYBLE_CALLBACK) != 0u)
1245:Generated_Source\PSoC4/CYBLE_eventHandler.c ****     {
1246:Generated_Source\PSoC4/CYBLE_eventHandler.c ****         CyBle_LnscReadResponseEventHandler(eventParam);
1247:Generated_Source\PSoC4/CYBLE_eventHandler.c ****     }
1248:Generated_Source\PSoC4/CYBLE_eventHandler.c **** #endif /* CYBLE_LNS_CLIENT */
1249:Generated_Source\PSoC4/CYBLE_eventHandler.c **** #ifdef CYBLE_NDCS_CLIENT
1250:Generated_Source\PSoC4/CYBLE_eventHandler.c ****     if((cyBle_eventHandlerFlag & CYBLE_CALLBACK) != 0u)
1251:Generated_Source\PSoC4/CYBLE_eventHandler.c ****     {
1252:Generated_Source\PSoC4/CYBLE_eventHandler.c ****         CyBle_NdcscReadResponseEventHandler(eventParam);
1253:Generated_Source\PSoC4/CYBLE_eventHandler.c ****     }
1254:Generated_Source\PSoC4/CYBLE_eventHandler.c **** #endif /* CYBLE_NDCS_CLIENT */
1255:Generated_Source\PSoC4/CYBLE_eventHandler.c **** #ifdef CYBLE_OTS_CLIENT
1256:Generated_Source\PSoC4/CYBLE_eventHandler.c ****     if((cyBle_eventHandlerFlag & CYBLE_CALLBACK) != 0u)
1257:Generated_Source\PSoC4/CYBLE_eventHandler.c ****     {
1258:Generated_Source\PSoC4/CYBLE_eventHandler.c ****         CyBle_OtscReadResponseEventHandler(eventParam);
1259:Generated_Source\PSoC4/CYBLE_eventHandler.c ****     }
1260:Generated_Source\PSoC4/CYBLE_eventHandler.c **** #endif /* CYBLE_OTS_CLIENT */
1261:Generated_Source\PSoC4/CYBLE_eventHandler.c **** #ifdef CYBLE_PASS_CLIENT
1262:Generated_Source\PSoC4/CYBLE_eventHandler.c ****     if((cyBle_eventHandlerFlag & CYBLE_CALLBACK) != 0u)
ARM GAS  C:\Users\LIAMSA~1\AppData\Local\Temp\cc7Yswwd.s 			page 27


1263:Generated_Source\PSoC4/CYBLE_eventHandler.c ****     {
1264:Generated_Source\PSoC4/CYBLE_eventHandler.c ****         CyBle_PasscReadResponseEventHandler(eventParam);
1265:Generated_Source\PSoC4/CYBLE_eventHandler.c ****     }
1266:Generated_Source\PSoC4/CYBLE_eventHandler.c **** #endif /* CYBLE_PASS_CLIENT */
1267:Generated_Source\PSoC4/CYBLE_eventHandler.c **** #ifdef CYBLE_PLXS_CLIENT
1268:Generated_Source\PSoC4/CYBLE_eventHandler.c ****     if((cyBle_eventHandlerFlag & CYBLE_CALLBACK) != 0u)
1269:Generated_Source\PSoC4/CYBLE_eventHandler.c ****     {
1270:Generated_Source\PSoC4/CYBLE_eventHandler.c ****         CyBle_PlxscReadResponseEventHandler(eventParam);
1271:Generated_Source\PSoC4/CYBLE_eventHandler.c ****     }
1272:Generated_Source\PSoC4/CYBLE_eventHandler.c **** #endif /* CYBLE_PLXS_CLIENT */
1273:Generated_Source\PSoC4/CYBLE_eventHandler.c **** #ifdef CYBLE_RSCS_CLIENT
1274:Generated_Source\PSoC4/CYBLE_eventHandler.c ****     if((cyBle_eventHandlerFlag & CYBLE_CALLBACK) != 0u)
1275:Generated_Source\PSoC4/CYBLE_eventHandler.c ****     {
1276:Generated_Source\PSoC4/CYBLE_eventHandler.c ****         CyBle_RscscReadResponseEventHandler(eventParam);
1277:Generated_Source\PSoC4/CYBLE_eventHandler.c ****     }
1278:Generated_Source\PSoC4/CYBLE_eventHandler.c **** #endif /* CYBLE_RSCS_CLIENT */
1279:Generated_Source\PSoC4/CYBLE_eventHandler.c **** #ifdef CYBLE_RTUS_CLIENT
1280:Generated_Source\PSoC4/CYBLE_eventHandler.c ****     if((cyBle_eventHandlerFlag & CYBLE_CALLBACK) != 0u)
1281:Generated_Source\PSoC4/CYBLE_eventHandler.c ****     {
1282:Generated_Source\PSoC4/CYBLE_eventHandler.c ****         CyBle_RtuscReadResponseEventHandler(eventParam);
1283:Generated_Source\PSoC4/CYBLE_eventHandler.c ****     }
1284:Generated_Source\PSoC4/CYBLE_eventHandler.c **** #endif /* CYBLE_RTUS_CLIENT */
1285:Generated_Source\PSoC4/CYBLE_eventHandler.c **** #ifdef CYBLE_SCPS_CLIENT
1286:Generated_Source\PSoC4/CYBLE_eventHandler.c ****     if((cyBle_eventHandlerFlag & CYBLE_CALLBACK) != 0u)
1287:Generated_Source\PSoC4/CYBLE_eventHandler.c ****     {
1288:Generated_Source\PSoC4/CYBLE_eventHandler.c ****         CyBle_ScpscReadResponseEventHandler(eventParam);
1289:Generated_Source\PSoC4/CYBLE_eventHandler.c ****     }
1290:Generated_Source\PSoC4/CYBLE_eventHandler.c **** #endif /* CYBLE_SCPS_CLIENT */
1291:Generated_Source\PSoC4/CYBLE_eventHandler.c **** #ifdef CYBLE_TPS_CLIENT
1292:Generated_Source\PSoC4/CYBLE_eventHandler.c ****     if((cyBle_eventHandlerFlag & CYBLE_CALLBACK) != 0u)
1293:Generated_Source\PSoC4/CYBLE_eventHandler.c ****     {
1294:Generated_Source\PSoC4/CYBLE_eventHandler.c ****         CyBle_TpscReadResponseEventHandler(eventParam);
1295:Generated_Source\PSoC4/CYBLE_eventHandler.c ****     }
1296:Generated_Source\PSoC4/CYBLE_eventHandler.c **** #endif /* CYBLE_TPS_CLIENT */
1297:Generated_Source\PSoC4/CYBLE_eventHandler.c **** #ifdef CYBLE_UDS_CLIENT
1298:Generated_Source\PSoC4/CYBLE_eventHandler.c ****     if((cyBle_eventHandlerFlag & CYBLE_CALLBACK) != 0u)
1299:Generated_Source\PSoC4/CYBLE_eventHandler.c ****     {
1300:Generated_Source\PSoC4/CYBLE_eventHandler.c ****         CyBle_UdscReadResponseEventHandler(eventParam);
1301:Generated_Source\PSoC4/CYBLE_eventHandler.c ****     }
1302:Generated_Source\PSoC4/CYBLE_eventHandler.c **** #endif /* CYBLE_UDS_CLIENT */
1303:Generated_Source\PSoC4/CYBLE_eventHandler.c **** #ifdef CYBLE_WPTS_CLIENT
1304:Generated_Source\PSoC4/CYBLE_eventHandler.c ****     if((cyBle_eventHandlerFlag & CYBLE_CALLBACK) != 0u)
1305:Generated_Source\PSoC4/CYBLE_eventHandler.c ****     {
1306:Generated_Source\PSoC4/CYBLE_eventHandler.c ****         CyBle_WptscReadResponseEventHandler(eventParam);
1307:Generated_Source\PSoC4/CYBLE_eventHandler.c ****     }
1308:Generated_Source\PSoC4/CYBLE_eventHandler.c **** #endif /* CYBLE_WPTS_CLIENT */
1309:Generated_Source\PSoC4/CYBLE_eventHandler.c **** #ifdef CYBLE_WSS_CLIENT
1310:Generated_Source\PSoC4/CYBLE_eventHandler.c ****     if((cyBle_eventHandlerFlag & CYBLE_CALLBACK) != 0u)
1311:Generated_Source\PSoC4/CYBLE_eventHandler.c ****     {
1312:Generated_Source\PSoC4/CYBLE_eventHandler.c ****         CyBle_WsscReadResponseEventHandler(eventParam);
1313:Generated_Source\PSoC4/CYBLE_eventHandler.c ****     }
1314:Generated_Source\PSoC4/CYBLE_eventHandler.c **** #endif /* CYBLE_WSS_CLIENT */
1315:Generated_Source\PSoC4/CYBLE_eventHandler.c **** }
1316:Generated_Source\PSoC4/CYBLE_eventHandler.c **** 
1317:Generated_Source\PSoC4/CYBLE_eventHandler.c **** /******************************************************************************    
1318:Generated_Source\PSoC4/CYBLE_eventHandler.c **** * Function Name: CyBle_ReadMultipleResponseEventHandler
1319:Generated_Source\PSoC4/CYBLE_eventHandler.c **** ***************************************************************************//**
ARM GAS  C:\Users\LIAMSA~1\AppData\Local\Temp\cc7Yswwd.s 			page 28


1320:Generated_Source\PSoC4/CYBLE_eventHandler.c **** * 
1321:Generated_Source\PSoC4/CYBLE_eventHandler.c **** *  Handles the Read Multiple Response event from BLE stack.
1322:Generated_Source\PSoC4/CYBLE_eventHandler.c **** * 
1323:Generated_Source\PSoC4/CYBLE_eventHandler.c **** *  \param eventParam: event parameter
1324:Generated_Source\PSoC4/CYBLE_eventHandler.c **** * 
1325:Generated_Source\PSoC4/CYBLE_eventHandler.c **** * \return
1326:Generated_Source\PSoC4/CYBLE_eventHandler.c **** *  None
1327:Generated_Source\PSoC4/CYBLE_eventHandler.c **** * 
1328:Generated_Source\PSoC4/CYBLE_eventHandler.c **** ******************************************************************************/
1329:Generated_Source\PSoC4/CYBLE_eventHandler.c **** static void CyBle_ReadMultipleResponseEventHandler(CYBLE_GATTC_READ_RSP_PARAM_T *eventParam)
1330:Generated_Source\PSoC4/CYBLE_eventHandler.c **** {
1331:Generated_Source\PSoC4/CYBLE_eventHandler.c **** #ifdef CYBLE_CUSTOM_CLIENT
1332:Generated_Source\PSoC4/CYBLE_eventHandler.c ****     /* Read response with 128-bit included service uuid */
1333:Generated_Source\PSoC4/CYBLE_eventHandler.c ****     if((CYBLE_CLIENT_STATE_INCL_DISCOVERING == CyBle_GetClientState()) &&
1334:Generated_Source\PSoC4/CYBLE_eventHandler.c ****        (cyBle_discInclInfo.inclDefHandle != 0u))
1335:Generated_Source\PSoC4/CYBLE_eventHandler.c ****     {
1336:Generated_Source\PSoC4/CYBLE_eventHandler.c ****         CYBLE_DISC_SRVC128_INFO_T discServInfo;
1337:Generated_Source\PSoC4/CYBLE_eventHandler.c **** 
1338:Generated_Source\PSoC4/CYBLE_eventHandler.c ****         /* Store service range */
1339:Generated_Source\PSoC4/CYBLE_eventHandler.c ****         discServInfo.range = cyBle_discInclInfo.inclHandleRange;
1340:Generated_Source\PSoC4/CYBLE_eventHandler.c ****         (void)memcpy((void *) discServInfo.uuid.uuid128.value, (void *)eventParam->value.val, event
1341:Generated_Source\PSoC4/CYBLE_eventHandler.c ****         CyBle_CustomcDiscoverServiceEventHandler(&discServInfo);
1342:Generated_Source\PSoC4/CYBLE_eventHandler.c ****         
1343:Generated_Source\PSoC4/CYBLE_eventHandler.c ****         /* Re-initiate CyBle_GattcFindIncludedServices function, setting the start
1344:Generated_Source\PSoC4/CYBLE_eventHandler.c ****            handle to the attribute handle which is placed next to the one used in
1345:Generated_Source\PSoC4/CYBLE_eventHandler.c ****            the above step.
1346:Generated_Source\PSoC4/CYBLE_eventHandler.c ****         */
1347:Generated_Source\PSoC4/CYBLE_eventHandler.c ****         discServInfo.range.startHandle = cyBle_discInclInfo.inclDefHandle + 1;
1348:Generated_Source\PSoC4/CYBLE_eventHandler.c ****         discServInfo.range.endHandle = cyBle_serverInfo[cyBle_disCount].range.endHandle;
1349:Generated_Source\PSoC4/CYBLE_eventHandler.c ****         if(discServInfo.range.startHandle <= discServInfo.range.endHandle)
1350:Generated_Source\PSoC4/CYBLE_eventHandler.c ****         {
1351:Generated_Source\PSoC4/CYBLE_eventHandler.c ****             if(CYBLE_ERROR_OK != CyBle_GattcFindIncludedServices(cyBle_connHandle, &discServInfo.ra
1352:Generated_Source\PSoC4/CYBLE_eventHandler.c ****             {
1353:Generated_Source\PSoC4/CYBLE_eventHandler.c ****                 CyBle_ApplCallback(CYBLE_EVT_GATTC_INCL_DISCOVERY_FAILED, NULL);
1354:Generated_Source\PSoC4/CYBLE_eventHandler.c ****                 cyBle_eventHandlerFlag &= (uint8)~CYBLE_AUTO_DISCOVERY;
1355:Generated_Source\PSoC4/CYBLE_eventHandler.c ****             }
1356:Generated_Source\PSoC4/CYBLE_eventHandler.c ****         }
1357:Generated_Source\PSoC4/CYBLE_eventHandler.c ****         else /* Continue discovery of the following service */
1358:Generated_Source\PSoC4/CYBLE_eventHandler.c ****         {
1359:Generated_Source\PSoC4/CYBLE_eventHandler.c ****             CyBle_NextInclDiscovery(CYBLE_DISCOVERY_CONTINUE);
1360:Generated_Source\PSoC4/CYBLE_eventHandler.c ****         }
1361:Generated_Source\PSoC4/CYBLE_eventHandler.c ****         
1362:Generated_Source\PSoC4/CYBLE_eventHandler.c ****         cyBle_eventHandlerFlag &= (uint8)~CYBLE_CALLBACK;
1363:Generated_Source\PSoC4/CYBLE_eventHandler.c ****     #ifdef CYBLE_CUSTOM_CLIENT
1364:Generated_Source\PSoC4/CYBLE_eventHandler.c ****         cyBle_discInclInfo.inclDefHandle = 0u;
1365:Generated_Source\PSoC4/CYBLE_eventHandler.c ****     #endif /* CYBLE_CUSTOM_CLIENT */
1366:Generated_Source\PSoC4/CYBLE_eventHandler.c ****     }
1367:Generated_Source\PSoC4/CYBLE_eventHandler.c **** #endif /* CYBLE_CUSTOM_CLIENT */
1368:Generated_Source\PSoC4/CYBLE_eventHandler.c **** #ifdef CYBLE_IPS_CLIENT
1369:Generated_Source\PSoC4/CYBLE_eventHandler.c ****     if((cyBle_eventHandlerFlag & CYBLE_CALLBACK) != 0u)
1370:Generated_Source\PSoC4/CYBLE_eventHandler.c ****     {
1371:Generated_Source\PSoC4/CYBLE_eventHandler.c ****         CyBle_IpscReadMultipleResponseEventHandler(eventParam);
1372:Generated_Source\PSoC4/CYBLE_eventHandler.c ****     }
1373:Generated_Source\PSoC4/CYBLE_eventHandler.c **** #endif /* CYBLE_IPS_CLIENT */
1374:Generated_Source\PSoC4/CYBLE_eventHandler.c ****     /* MISRA 16.7 violation workaround */
1375:Generated_Source\PSoC4/CYBLE_eventHandler.c ****     eventParam = eventParam;
1376:Generated_Source\PSoC4/CYBLE_eventHandler.c **** }
ARM GAS  C:\Users\LIAMSA~1\AppData\Local\Temp\cc7Yswwd.s 			page 29


1377:Generated_Source\PSoC4/CYBLE_eventHandler.c **** #endif /* CYBLE_GATT_ROLE_CLIENT */
1378:Generated_Source\PSoC4/CYBLE_eventHandler.c **** 
1379:Generated_Source\PSoC4/CYBLE_eventHandler.c **** 
1380:Generated_Source\PSoC4/CYBLE_eventHandler.c **** /****************************************************************************** 
1381:Generated_Source\PSoC4/CYBLE_eventHandler.c **** * Function Name: CyBle_DisconnectEventHandler
1382:Generated_Source\PSoC4/CYBLE_eventHandler.c **** ***************************************************************************//**
1383:Generated_Source\PSoC4/CYBLE_eventHandler.c **** * 
1384:Generated_Source\PSoC4/CYBLE_eventHandler.c **** *  Handles the GATT Disconnection event from the BLE stack.
1385:Generated_Source\PSoC4/CYBLE_eventHandler.c **** * 
1386:Generated_Source\PSoC4/CYBLE_eventHandler.c **** * \return
1387:Generated_Source\PSoC4/CYBLE_eventHandler.c **** *  None
1388:Generated_Source\PSoC4/CYBLE_eventHandler.c **** * 
1389:Generated_Source\PSoC4/CYBLE_eventHandler.c **** ******************************************************************************/
1390:Generated_Source\PSoC4/CYBLE_eventHandler.c **** static void CyBle_GattDisconnectEventHandler(void)
1391:Generated_Source\PSoC4/CYBLE_eventHandler.c **** {
 220              		.loc 1 1391 0
 221              		.cfi_startproc
 222              		@ args = 0, pretend = 0, frame = 0
 223              		@ frame_needed = 1, uses_anonymous_args = 0
 224 0000 80B5     		push	{r7, lr}
 225              		.cfi_def_cfa_offset 8
 226              		.cfi_offset 7, -8
 227              		.cfi_offset 14, -4
 228 0002 00AF     		add	r7, sp, #0
 229              		.cfi_def_cfa_register 7
1392:Generated_Source\PSoC4/CYBLE_eventHandler.c ****     cyBle_connHandle.attId = 0u;
 230              		.loc 1 1392 0
 231 0004 044B     		ldr	r3, .L11
 232 0006 0022     		movs	r2, #0
 233 0008 5A70     		strb	r2, [r3, #1]
1393:Generated_Source\PSoC4/CYBLE_eventHandler.c ****     cyBle_connHandle.bdHandle = 0u;
 234              		.loc 1 1393 0
 235 000a 034B     		ldr	r3, .L11
 236 000c 0022     		movs	r2, #0
 237 000e 1A70     		strb	r2, [r3]
1394:Generated_Source\PSoC4/CYBLE_eventHandler.c ****     
1395:Generated_Source\PSoC4/CYBLE_eventHandler.c ****     #if (CYBLE_GATT_ROLE_CLIENT)
1396:Generated_Source\PSoC4/CYBLE_eventHandler.c ****         if(CyBle_GetClientState() == CYBLE_CLIENT_STATE_DISCOVERED)
1397:Generated_Source\PSoC4/CYBLE_eventHandler.c ****         {
1398:Generated_Source\PSoC4/CYBLE_eventHandler.c ****             CyBle_SetClientState(CYBLE_CLIENT_STATE_DISCONNECTED_DISCOVERED);
1399:Generated_Source\PSoC4/CYBLE_eventHandler.c ****         }
1400:Generated_Source\PSoC4/CYBLE_eventHandler.c ****         else
1401:Generated_Source\PSoC4/CYBLE_eventHandler.c ****         {
1402:Generated_Source\PSoC4/CYBLE_eventHandler.c ****             CyBle_SetClientState(CYBLE_CLIENT_STATE_DISCONNECTED);
1403:Generated_Source\PSoC4/CYBLE_eventHandler.c ****         }
1404:Generated_Source\PSoC4/CYBLE_eventHandler.c ****     #endif /* CYBLE_GATT_ROLE_CLIENT */
1405:Generated_Source\PSoC4/CYBLE_eventHandler.c ****         
1406:Generated_Source\PSoC4/CYBLE_eventHandler.c ****     #ifdef CYBLE_CPS_SERVER
1407:Generated_Source\PSoC4/CYBLE_eventHandler.c ****         #if CYBLE_GAP_ROLE_BROADCASTER
1408:Generated_Source\PSoC4/CYBLE_eventHandler.c ****             CyBle_CpssDisconnectEventHandler();
1409:Generated_Source\PSoC4/CYBLE_eventHandler.c ****         #endif /* CYBLE_GAP_ROLE_BROADCASTER */
1410:Generated_Source\PSoC4/CYBLE_eventHandler.c ****     #endif /* CYBLE_CPS_SERVER */
1411:Generated_Source\PSoC4/CYBLE_eventHandler.c **** 
1412:Generated_Source\PSoC4/CYBLE_eventHandler.c ****     #ifdef CYBLE_CPS_CLIENT
1413:Generated_Source\PSoC4/CYBLE_eventHandler.c ****         CyBle_CpscDisconnectEventHandler();
1414:Generated_Source\PSoC4/CYBLE_eventHandler.c ****     #endif /* CYBLE_CPS_CLIENT */
1415:Generated_Source\PSoC4/CYBLE_eventHandler.c **** 
ARM GAS  C:\Users\LIAMSA~1\AppData\Local\Temp\cc7Yswwd.s 			page 30


1416:Generated_Source\PSoC4/CYBLE_eventHandler.c ****     #ifdef CYBLE_IAS_SERVER
1417:Generated_Source\PSoC4/CYBLE_eventHandler.c ****         CyBle_IassDisconnectEventHandler();
1418:Generated_Source\PSoC4/CYBLE_eventHandler.c ****     #endif /* CYBLE_IAS_SERVER */
1419:Generated_Source\PSoC4/CYBLE_eventHandler.c ****     
1420:Generated_Source\PSoC4/CYBLE_eventHandler.c ****     #ifdef CYBLE_GLS_SERVER
1421:Generated_Source\PSoC4/CYBLE_eventHandler.c ****         CyBle_GlsInit();
1422:Generated_Source\PSoC4/CYBLE_eventHandler.c ****     #endif /* CYBLE_GLS_SERVER */
1423:Generated_Source\PSoC4/CYBLE_eventHandler.c ****     
1424:Generated_Source\PSoC4/CYBLE_eventHandler.c ****     #ifdef CYBLE_LNS_SERVER
1425:Generated_Source\PSoC4/CYBLE_eventHandler.c ****         CyBle_LnsInit();
1426:Generated_Source\PSoC4/CYBLE_eventHandler.c ****     #endif /* CYBLE_LNS_SERVER */
1427:Generated_Source\PSoC4/CYBLE_eventHandler.c ****     
1428:Generated_Source\PSoC4/CYBLE_eventHandler.c ****     #ifdef CYBLE_UDS_SERVER
1429:Generated_Source\PSoC4/CYBLE_eventHandler.c ****         CyBle_UdsInit();
1430:Generated_Source\PSoC4/CYBLE_eventHandler.c ****     #endif /* CYBLE_UDS_SERVER */
1431:Generated_Source\PSoC4/CYBLE_eventHandler.c **** }
 238              		.loc 1 1431 0
 239 0010 C046     		nop
 240 0012 BD46     		mov	sp, r7
 241              		@ sp needed
 242 0014 80BD     		pop	{r7, pc}
 243              	.L12:
 244 0016 C046     		.align	2
 245              	.L11:
 246 0018 00000000 		.word	cyBle_connHandle
 247              		.cfi_endproc
 248              	.LFE4:
 249              		.size	CyBle_GattDisconnectEventHandler, .-CyBle_GattDisconnectEventHandler
 250              		.section	.text.CyBle_TimeOutEventHandler,"ax",%progbits
 251              		.align	2
 252              		.code	16
 253              		.thumb_func
 254              		.type	CyBle_TimeOutEventHandler, %function
 255              	CyBle_TimeOutEventHandler:
 256              	.LFB5:
1432:Generated_Source\PSoC4/CYBLE_eventHandler.c **** 
1433:Generated_Source\PSoC4/CYBLE_eventHandler.c **** 
1434:Generated_Source\PSoC4/CYBLE_eventHandler.c **** /****************************************************************************** 
1435:Generated_Source\PSoC4/CYBLE_eventHandler.c **** * Function Name: CyBle_TimeOutEventHandler
1436:Generated_Source\PSoC4/CYBLE_eventHandler.c **** ***************************************************************************//**
1437:Generated_Source\PSoC4/CYBLE_eventHandler.c **** * 
1438:Generated_Source\PSoC4/CYBLE_eventHandler.c **** *  Handles the CYBLE_EVT_TIMEOUT event from the BLE stack.
1439:Generated_Source\PSoC4/CYBLE_eventHandler.c **** * 
1440:Generated_Source\PSoC4/CYBLE_eventHandler.c **** *  \param eventParam: The pointer to a structure of type CYBLE_TO_REASON_CODE_T.
1441:Generated_Source\PSoC4/CYBLE_eventHandler.c **** * 
1442:Generated_Source\PSoC4/CYBLE_eventHandler.c **** * \return
1443:Generated_Source\PSoC4/CYBLE_eventHandler.c **** *  None
1444:Generated_Source\PSoC4/CYBLE_eventHandler.c **** * 
1445:Generated_Source\PSoC4/CYBLE_eventHandler.c **** ******************************************************************************/
1446:Generated_Source\PSoC4/CYBLE_eventHandler.c **** static void CyBle_TimeOutEventHandler(const CYBLE_TO_REASON_CODE_T *eventParam)
1447:Generated_Source\PSoC4/CYBLE_eventHandler.c **** {
 257              		.loc 1 1447 0
 258              		.cfi_startproc
 259              		@ args = 0, pretend = 0, frame = 8
 260              		@ frame_needed = 1, uses_anonymous_args = 0
 261 0000 80B5     		push	{r7, lr}
 262              		.cfi_def_cfa_offset 8
ARM GAS  C:\Users\LIAMSA~1\AppData\Local\Temp\cc7Yswwd.s 			page 31


 263              		.cfi_offset 7, -8
 264              		.cfi_offset 14, -4
 265 0002 82B0     		sub	sp, sp, #8
 266              		.cfi_def_cfa_offset 16
 267 0004 00AF     		add	r7, sp, #0
 268              		.cfi_def_cfa_register 7
 269 0006 7860     		str	r0, [r7, #4]
1448:Generated_Source\PSoC4/CYBLE_eventHandler.c ****     if(*eventParam == CYBLE_GATT_RSP_TO)
1449:Generated_Source\PSoC4/CYBLE_eventHandler.c ****     {
1450:Generated_Source\PSoC4/CYBLE_eventHandler.c ****     #if (CYBLE_GATT_ROLE_CLIENT)
1451:Generated_Source\PSoC4/CYBLE_eventHandler.c ****         if((cyBle_eventHandlerFlag & CYBLE_AUTO_DISCOVERY) != 0u)
1452:Generated_Source\PSoC4/CYBLE_eventHandler.c ****         {
1453:Generated_Source\PSoC4/CYBLE_eventHandler.c ****             switch(CyBle_GetClientState())
1454:Generated_Source\PSoC4/CYBLE_eventHandler.c ****             {
1455:Generated_Source\PSoC4/CYBLE_eventHandler.c ****                 case CYBLE_CLIENT_STATE_SRVC_DISCOVERING:
1456:Generated_Source\PSoC4/CYBLE_eventHandler.c ****                     CyBle_ApplCallback(CYBLE_EVT_GATTC_SRVC_DISCOVERY_FAILED, NULL);
1457:Generated_Source\PSoC4/CYBLE_eventHandler.c ****                     break;
1458:Generated_Source\PSoC4/CYBLE_eventHandler.c ****                 case CYBLE_CLIENT_STATE_INCL_DISCOVERING:
1459:Generated_Source\PSoC4/CYBLE_eventHandler.c ****                     CyBle_ApplCallback(CYBLE_EVT_GATTC_INCL_DISCOVERY_FAILED, NULL);
1460:Generated_Source\PSoC4/CYBLE_eventHandler.c ****                     break;
1461:Generated_Source\PSoC4/CYBLE_eventHandler.c ****                 case CYBLE_CLIENT_STATE_CHAR_DISCOVERING:
1462:Generated_Source\PSoC4/CYBLE_eventHandler.c ****                     CyBle_ApplCallback(CYBLE_EVT_GATTC_CHAR_DISCOVERY_FAILED, NULL);
1463:Generated_Source\PSoC4/CYBLE_eventHandler.c ****                     break;
1464:Generated_Source\PSoC4/CYBLE_eventHandler.c ****                 case CYBLE_CLIENT_STATE_DESCR_DISCOVERING:
1465:Generated_Source\PSoC4/CYBLE_eventHandler.c ****                     CyBle_ApplCallback(CYBLE_EVT_GATTC_DESCR_DISCOVERY_FAILED, NULL);
1466:Generated_Source\PSoC4/CYBLE_eventHandler.c ****                     break;
1467:Generated_Source\PSoC4/CYBLE_eventHandler.c ****                 default:        /* Other states should not be set in Auto discovery mode */
1468:Generated_Source\PSoC4/CYBLE_eventHandler.c ****                     break;
1469:Generated_Source\PSoC4/CYBLE_eventHandler.c ****             }
1470:Generated_Source\PSoC4/CYBLE_eventHandler.c ****             cyBle_eventHandlerFlag &= (uint8)~CYBLE_AUTO_DISCOVERY;
1471:Generated_Source\PSoC4/CYBLE_eventHandler.c ****             CyBle_SetClientState(CYBLE_CLIENT_STATE_CONNECTED);
1472:Generated_Source\PSoC4/CYBLE_eventHandler.c ****         }
1473:Generated_Source\PSoC4/CYBLE_eventHandler.c ****     #endif /* CYBLE_GATT_ROLE_CLIENT */
1474:Generated_Source\PSoC4/CYBLE_eventHandler.c ****     #ifdef CYBLE_CPS_SERVER
1475:Generated_Source\PSoC4/CYBLE_eventHandler.c ****         CyBle_CpssTimeOutEventHandler();
1476:Generated_Source\PSoC4/CYBLE_eventHandler.c ****     #endif /* CYBLE_CPS_SERVER */
1477:Generated_Source\PSoC4/CYBLE_eventHandler.c ****     }
1478:Generated_Source\PSoC4/CYBLE_eventHandler.c ****     
1479:Generated_Source\PSoC4/CYBLE_eventHandler.c ****     /* Connection procedure timeout */
1480:Generated_Source\PSoC4/CYBLE_eventHandler.c ****     if(*eventParam == CYBLE_GENERIC_TO)
1481:Generated_Source\PSoC4/CYBLE_eventHandler.c ****     {
1482:Generated_Source\PSoC4/CYBLE_eventHandler.c ****     #if(CYBLE_GAP_ROLE_CENTRAL)
1483:Generated_Source\PSoC4/CYBLE_eventHandler.c ****         if(CyBle_GetState() == CYBLE_STATE_CONNECTING)
1484:Generated_Source\PSoC4/CYBLE_eventHandler.c ****         {
1485:Generated_Source\PSoC4/CYBLE_eventHandler.c ****             (void)CyBle_GapcCancelDeviceConnection();
1486:Generated_Source\PSoC4/CYBLE_eventHandler.c ****         }
1487:Generated_Source\PSoC4/CYBLE_eventHandler.c ****     #endif /* CYBLE_GAP_ROLE_CENTRAL */
1488:Generated_Source\PSoC4/CYBLE_eventHandler.c ****     }
1489:Generated_Source\PSoC4/CYBLE_eventHandler.c **** }
 270              		.loc 1 1489 0
 271 0008 C046     		nop
 272 000a BD46     		mov	sp, r7
 273 000c 02B0     		add	sp, sp, #8
 274              		@ sp needed
 275 000e 80BD     		pop	{r7, pc}
 276              		.cfi_endproc
 277              	.LFE5:
ARM GAS  C:\Users\LIAMSA~1\AppData\Local\Temp\cc7Yswwd.s 			page 32


 278              		.size	CyBle_TimeOutEventHandler, .-CyBle_TimeOutEventHandler
 279              		.section	.text.CyBle_GattConnectReqHandler,"ax",%progbits
 280              		.align	2
 281              		.code	16
 282              		.thumb_func
 283              		.type	CyBle_GattConnectReqHandler, %function
 284              	CyBle_GattConnectReqHandler:
 285              	.LFB6:
1490:Generated_Source\PSoC4/CYBLE_eventHandler.c **** 
1491:Generated_Source\PSoC4/CYBLE_eventHandler.c **** 
1492:Generated_Source\PSoC4/CYBLE_eventHandler.c **** /****************************************************************************** 
1493:Generated_Source\PSoC4/CYBLE_eventHandler.c **** * Function Name: CyBle_GattConnectReqHandler
1494:Generated_Source\PSoC4/CYBLE_eventHandler.c **** ***************************************************************************//**
1495:Generated_Source\PSoC4/CYBLE_eventHandler.c **** * 
1496:Generated_Source\PSoC4/CYBLE_eventHandler.c **** *  Handles the GATT connect event from the BLE stack.
1497:Generated_Source\PSoC4/CYBLE_eventHandler.c **** * 
1498:Generated_Source\PSoC4/CYBLE_eventHandler.c **** * \return
1499:Generated_Source\PSoC4/CYBLE_eventHandler.c **** *  None
1500:Generated_Source\PSoC4/CYBLE_eventHandler.c **** * 
1501:Generated_Source\PSoC4/CYBLE_eventHandler.c **** ******************************************************************************/
1502:Generated_Source\PSoC4/CYBLE_eventHandler.c **** static void CyBle_GattConnectReqHandler(void)
1503:Generated_Source\PSoC4/CYBLE_eventHandler.c **** {
 286              		.loc 1 1503 0
 287              		.cfi_startproc
 288              		@ args = 0, pretend = 0, frame = 0
 289              		@ frame_needed = 1, uses_anonymous_args = 0
 290 0000 80B5     		push	{r7, lr}
 291              		.cfi_def_cfa_offset 8
 292              		.cfi_offset 7, -8
 293              		.cfi_offset 14, -4
 294 0002 00AF     		add	r7, sp, #0
 295              		.cfi_def_cfa_register 7
1504:Generated_Source\PSoC4/CYBLE_eventHandler.c ****     #ifdef CYBLE_CGMS_SERVER
1505:Generated_Source\PSoC4/CYBLE_eventHandler.c ****         CyBle_CgmsInit();
1506:Generated_Source\PSoC4/CYBLE_eventHandler.c ****     #endif /* CYBLE_CGMS_SERVER */
1507:Generated_Source\PSoC4/CYBLE_eventHandler.c ****     
1508:Generated_Source\PSoC4/CYBLE_eventHandler.c ****     #ifdef CYBLE_CPS_SERVER
1509:Generated_Source\PSoC4/CYBLE_eventHandler.c ****         CyBle_CpssConnectEventHandler();
1510:Generated_Source\PSoC4/CYBLE_eventHandler.c ****     #endif /* CYBLE_CPS_SERVER */
1511:Generated_Source\PSoC4/CYBLE_eventHandler.c ****     
1512:Generated_Source\PSoC4/CYBLE_eventHandler.c ****     #ifdef CYBLE_CSCS_SERVER
1513:Generated_Source\PSoC4/CYBLE_eventHandler.c ****             CyBle_CscsInit();
1514:Generated_Source\PSoC4/CYBLE_eventHandler.c ****     #endif /* CYBLE_CSCS_SERVER */
1515:Generated_Source\PSoC4/CYBLE_eventHandler.c ****     
1516:Generated_Source\PSoC4/CYBLE_eventHandler.c ****     #ifdef CYBLE_LLS_SERVER
1517:Generated_Source\PSoC4/CYBLE_eventHandler.c ****         CyBle_LlssConnectEventHandler();
 296              		.loc 1 1517 0
 297 0004 FFF7FEFF 		bl	CyBle_LlssConnectEventHandler
1518:Generated_Source\PSoC4/CYBLE_eventHandler.c ****     #endif /* CYBLE_LLS_SERVER */
1519:Generated_Source\PSoC4/CYBLE_eventHandler.c ****     
1520:Generated_Source\PSoC4/CYBLE_eventHandler.c ****     #ifdef CYBLE_HIDS_SERVER
1521:Generated_Source\PSoC4/CYBLE_eventHandler.c ****         CyBle_HidssOnDeviceConnected();
1522:Generated_Source\PSoC4/CYBLE_eventHandler.c ****     #endif /* CYBLE_HIDS_SERVER */
1523:Generated_Source\PSoC4/CYBLE_eventHandler.c **** 
1524:Generated_Source\PSoC4/CYBLE_eventHandler.c ****     #ifdef CYBLE_RSCS_SERVER
1525:Generated_Source\PSoC4/CYBLE_eventHandler.c ****         CyBle_RscsInit();
1526:Generated_Source\PSoC4/CYBLE_eventHandler.c ****     #endif /* CYBLE_RSCS_SERVER */
ARM GAS  C:\Users\LIAMSA~1\AppData\Local\Temp\cc7Yswwd.s 			page 33


1527:Generated_Source\PSoC4/CYBLE_eventHandler.c **** }
 298              		.loc 1 1527 0
 299 0008 C046     		nop
 300 000a BD46     		mov	sp, r7
 301              		@ sp needed
 302 000c 80BD     		pop	{r7, pc}
 303              		.cfi_endproc
 304              	.LFE6:
 305              		.size	CyBle_GattConnectReqHandler, .-CyBle_GattConnectReqHandler
 306 000e C046     		.section	.text.CyBle_IsDeviceAddressValid,"ax",%progbits
 307              		.align	2
 308              		.global	CyBle_IsDeviceAddressValid
 309              		.code	16
 310              		.thumb_func
 311              		.type	CyBle_IsDeviceAddressValid, %function
 312              	CyBle_IsDeviceAddressValid:
 313              	.LFB7:
1528:Generated_Source\PSoC4/CYBLE_eventHandler.c **** 
1529:Generated_Source\PSoC4/CYBLE_eventHandler.c **** 
1530:Generated_Source\PSoC4/CYBLE_eventHandler.c **** #if (CYBLE_GATT_ROLE_SERVER || CYBLE_GATT_ROLE_CLIENT)
1531:Generated_Source\PSoC4/CYBLE_eventHandler.c **** 
1532:Generated_Source\PSoC4/CYBLE_eventHandler.c **** /****************************************************************************** 
1533:Generated_Source\PSoC4/CYBLE_eventHandler.c **** * Function Name: CyBle_IsDeviceAddressValid
1534:Generated_Source\PSoC4/CYBLE_eventHandler.c **** ***************************************************************************//**
1535:Generated_Source\PSoC4/CYBLE_eventHandler.c **** * 
1536:Generated_Source\PSoC4/CYBLE_eventHandler.c **** *  This function verifies that BLE public address has been programmed to SFLASH 
1537:Generated_Source\PSoC4/CYBLE_eventHandler.c **** *  during manufacture. It could be used to verify if public device address is 
1538:Generated_Source\PSoC4/CYBLE_eventHandler.c **** *  programmed to flash memory.
1539:Generated_Source\PSoC4/CYBLE_eventHandler.c **** * 
1540:Generated_Source\PSoC4/CYBLE_eventHandler.c **** *  \param deviceAddress: the pointer to the BD address of type CYBLE_GAP_BD_ADDR_T. 
1541:Generated_Source\PSoC4/CYBLE_eventHandler.c **** * 
1542:Generated_Source\PSoC4/CYBLE_eventHandler.c **** * \return
1543:Generated_Source\PSoC4/CYBLE_eventHandler.c **** *  Non zero value when a device address differs from the default SFLASH content.
1544:Generated_Source\PSoC4/CYBLE_eventHandler.c **** * 
1545:Generated_Source\PSoC4/CYBLE_eventHandler.c **** ******************************************************************************/
1546:Generated_Source\PSoC4/CYBLE_eventHandler.c **** uint8 CyBle_IsDeviceAddressValid(const CYBLE_GAP_BD_ADDR_T *deviceAddress)
1547:Generated_Source\PSoC4/CYBLE_eventHandler.c **** {
 314              		.loc 1 1547 0
 315              		.cfi_startproc
 316              		@ args = 0, pretend = 0, frame = 16
 317              		@ frame_needed = 1, uses_anonymous_args = 0
 318 0000 80B5     		push	{r7, lr}
 319              		.cfi_def_cfa_offset 8
 320              		.cfi_offset 7, -8
 321              		.cfi_offset 14, -4
 322 0002 84B0     		sub	sp, sp, #16
 323              		.cfi_def_cfa_offset 24
 324 0004 00AF     		add	r7, sp, #0
 325              		.cfi_def_cfa_register 7
 326 0006 7860     		str	r0, [r7, #4]
1548:Generated_Source\PSoC4/CYBLE_eventHandler.c ****     uint8 i;
1549:Generated_Source\PSoC4/CYBLE_eventHandler.c ****     uint8 addressValid = 0u;
 327              		.loc 1 1549 0
 328 0008 0E23     		movs	r3, #14
 329 000a FB18     		adds	r3, r7, r3
 330 000c 0022     		movs	r2, #0
 331 000e 1A70     		strb	r2, [r3]
ARM GAS  C:\Users\LIAMSA~1\AppData\Local\Temp\cc7Yswwd.s 			page 34


1550:Generated_Source\PSoC4/CYBLE_eventHandler.c ****     
1551:Generated_Source\PSoC4/CYBLE_eventHandler.c ****     if(deviceAddress -> type == CYBLE_GAP_ADDR_TYPE_PUBLIC)  
 332              		.loc 1 1551 0
 333 0010 7B68     		ldr	r3, [r7, #4]
 334 0012 9B79     		ldrb	r3, [r3, #6]
 335 0014 002B     		cmp	r3, #0
 336 0016 1CD1     		bne	.L16
1552:Generated_Source\PSoC4/CYBLE_eventHandler.c ****     {
1553:Generated_Source\PSoC4/CYBLE_eventHandler.c ****         for(i = 0u; i < CYBLE_GAP_BD_ADDR_SIZE; i++)
 337              		.loc 1 1553 0
 338 0018 0F23     		movs	r3, #15
 339 001a FB18     		adds	r3, r7, r3
 340 001c 0022     		movs	r2, #0
 341 001e 1A70     		strb	r2, [r3]
 342 0020 12E0     		b	.L17
 343              	.L19:
1554:Generated_Source\PSoC4/CYBLE_eventHandler.c ****         {
1555:Generated_Source\PSoC4/CYBLE_eventHandler.c ****             if(deviceAddress->bdAddr[i] != 0u)
 344              		.loc 1 1555 0
 345 0022 0F23     		movs	r3, #15
 346 0024 FB18     		adds	r3, r7, r3
 347 0026 1B78     		ldrb	r3, [r3]
 348 0028 7A68     		ldr	r2, [r7, #4]
 349 002a D35C     		ldrb	r3, [r2, r3]
 350 002c 002B     		cmp	r3, #0
 351 002e 04D0     		beq	.L18
1556:Generated_Source\PSoC4/CYBLE_eventHandler.c ****             {
1557:Generated_Source\PSoC4/CYBLE_eventHandler.c ****                 addressValid = 1u;
 352              		.loc 1 1557 0
 353 0030 0E23     		movs	r3, #14
 354 0032 FB18     		adds	r3, r7, r3
 355 0034 0122     		movs	r2, #1
 356 0036 1A70     		strb	r2, [r3]
1558:Generated_Source\PSoC4/CYBLE_eventHandler.c ****                 break;
 357              		.loc 1 1558 0
 358 0038 0BE0     		b	.L16
 359              	.L18:
1553:Generated_Source\PSoC4/CYBLE_eventHandler.c ****         {
 360              		.loc 1 1553 0 discriminator 2
 361 003a 0F23     		movs	r3, #15
 362 003c FB18     		adds	r3, r7, r3
 363 003e 1A78     		ldrb	r2, [r3]
 364 0040 0F23     		movs	r3, #15
 365 0042 FB18     		adds	r3, r7, r3
 366 0044 0132     		adds	r2, r2, #1
 367 0046 1A70     		strb	r2, [r3]
 368              	.L17:
1553:Generated_Source\PSoC4/CYBLE_eventHandler.c ****         {
 369              		.loc 1 1553 0 is_stmt 0 discriminator 1
 370 0048 0F23     		movs	r3, #15
 371 004a FB18     		adds	r3, r7, r3
 372 004c 1B78     		ldrb	r3, [r3]
 373 004e 052B     		cmp	r3, #5
 374 0050 E7D9     		bls	.L19
 375              	.L16:
1559:Generated_Source\PSoC4/CYBLE_eventHandler.c ****             }
1560:Generated_Source\PSoC4/CYBLE_eventHandler.c ****         }
ARM GAS  C:\Users\LIAMSA~1\AppData\Local\Temp\cc7Yswwd.s 			page 35


1561:Generated_Source\PSoC4/CYBLE_eventHandler.c ****     }
1562:Generated_Source\PSoC4/CYBLE_eventHandler.c ****     return (addressValid);
 376              		.loc 1 1562 0 is_stmt 1
 377 0052 0E23     		movs	r3, #14
 378 0054 FB18     		adds	r3, r7, r3
 379 0056 1B78     		ldrb	r3, [r3]
1563:Generated_Source\PSoC4/CYBLE_eventHandler.c **** }
 380              		.loc 1 1563 0
 381 0058 1800     		movs	r0, r3
 382 005a BD46     		mov	sp, r7
 383 005c 04B0     		add	sp, sp, #16
 384              		@ sp needed
 385 005e 80BD     		pop	{r7, pc}
 386              		.cfi_endproc
 387              	.LFE7:
 388              		.size	CyBle_IsDeviceAddressValid, .-CyBle_IsDeviceAddressValid
 389              		.section	.text.CyBle_L2Cap_ConnParamUpdateRspEventHandler,"ax",%progbits
 390              		.align	2
 391              		.code	16
 392              		.thumb_func
 393              		.type	CyBle_L2Cap_ConnParamUpdateRspEventHandler, %function
 394              	CyBle_L2Cap_ConnParamUpdateRspEventHandler:
 395              	.LFB8:
1564:Generated_Source\PSoC4/CYBLE_eventHandler.c **** #endif /* CYBLE_GATT_ROLE_SERVER || CYBLE_GATT_ROLE_CLIENT */
1565:Generated_Source\PSoC4/CYBLE_eventHandler.c **** 
1566:Generated_Source\PSoC4/CYBLE_eventHandler.c **** 
1567:Generated_Source\PSoC4/CYBLE_eventHandler.c **** /****************************************************************************** 
1568:Generated_Source\PSoC4/CYBLE_eventHandler.c **** * Function Name: CyBle_L2Cap_ConnParamUpdateRspHandler
1569:Generated_Source\PSoC4/CYBLE_eventHandler.c **** ***************************************************************************//**
1570:Generated_Source\PSoC4/CYBLE_eventHandler.c **** * 
1571:Generated_Source\PSoC4/CYBLE_eventHandler.c **** *  Handles the L2CAP connection parameter response event from
1572:Generated_Source\PSoC4/CYBLE_eventHandler.c **** *  the BLE stack.
1573:Generated_Source\PSoC4/CYBLE_eventHandler.c **** * 
1574:Generated_Source\PSoC4/CYBLE_eventHandler.c **** *  \param response:
1575:Generated_Source\PSoC4/CYBLE_eventHandler.c **** *      * Accepted = 0x0000
1576:Generated_Source\PSoC4/CYBLE_eventHandler.c **** *      * Rejected = 0x0001
1577:Generated_Source\PSoC4/CYBLE_eventHandler.c **** * 
1578:Generated_Source\PSoC4/CYBLE_eventHandler.c **** * \return
1579:Generated_Source\PSoC4/CYBLE_eventHandler.c **** *  None
1580:Generated_Source\PSoC4/CYBLE_eventHandler.c **** * 
1581:Generated_Source\PSoC4/CYBLE_eventHandler.c **** ******************************************************************************/
1582:Generated_Source\PSoC4/CYBLE_eventHandler.c **** static void CyBle_L2Cap_ConnParamUpdateRspEventHandler(uint16 response)
1583:Generated_Source\PSoC4/CYBLE_eventHandler.c **** {
 396              		.loc 1 1583 0
 397              		.cfi_startproc
 398              		@ args = 0, pretend = 0, frame = 8
 399              		@ frame_needed = 1, uses_anonymous_args = 0
 400 0000 80B5     		push	{r7, lr}
 401              		.cfi_def_cfa_offset 8
 402              		.cfi_offset 7, -8
 403              		.cfi_offset 14, -4
 404 0002 82B0     		sub	sp, sp, #8
 405              		.cfi_def_cfa_offset 16
 406 0004 00AF     		add	r7, sp, #0
 407              		.cfi_def_cfa_register 7
 408 0006 0200     		movs	r2, r0
 409 0008 BB1D     		adds	r3, r7, #6
ARM GAS  C:\Users\LIAMSA~1\AppData\Local\Temp\cc7Yswwd.s 			page 36


 410 000a 1A80     		strh	r2, [r3]
1584:Generated_Source\PSoC4/CYBLE_eventHandler.c ****     #ifdef CYBLE_CPS_SERVER
1585:Generated_Source\PSoC4/CYBLE_eventHandler.c ****         CyBle_CpssConnParamUpdateRspEventHandler(response);
1586:Generated_Source\PSoC4/CYBLE_eventHandler.c ****     #endif /* CYBLE_CPS_SERVER */
1587:Generated_Source\PSoC4/CYBLE_eventHandler.c ****     
1588:Generated_Source\PSoC4/CYBLE_eventHandler.c ****     /* Unreferenced variable warning workaround */
1589:Generated_Source\PSoC4/CYBLE_eventHandler.c ****     if(response != 0u)
1590:Generated_Source\PSoC4/CYBLE_eventHandler.c ****     {
1591:Generated_Source\PSoC4/CYBLE_eventHandler.c ****     }
1592:Generated_Source\PSoC4/CYBLE_eventHandler.c **** }
 411              		.loc 1 1592 0
 412 000c C046     		nop
 413 000e BD46     		mov	sp, r7
 414 0010 02B0     		add	sp, sp, #8
 415              		@ sp needed
 416 0012 80BD     		pop	{r7, pc}
 417              		.cfi_endproc
 418              	.LFE8:
 419              		.size	CyBle_L2Cap_ConnParamUpdateRspEventHandler, .-CyBle_L2Cap_ConnParamUpdateRspEventHandler
 420              		.section	.text.CyBle_GapConnUpdateCompleteEventHandler,"ax",%progbits
 421              		.align	2
 422              		.code	16
 423              		.thumb_func
 424              		.type	CyBle_GapConnUpdateCompleteEventHandler, %function
 425              	CyBle_GapConnUpdateCompleteEventHandler:
 426              	.LFB9:
1593:Generated_Source\PSoC4/CYBLE_eventHandler.c **** 
1594:Generated_Source\PSoC4/CYBLE_eventHandler.c **** 
1595:Generated_Source\PSoC4/CYBLE_eventHandler.c **** /****************************************************************************** 
1596:Generated_Source\PSoC4/CYBLE_eventHandler.c **** * Function Name: CyBle_GapConnUpdateCompleteEventHandler
1597:Generated_Source\PSoC4/CYBLE_eventHandler.c **** ***************************************************************************//**
1598:Generated_Source\PSoC4/CYBLE_eventHandler.c **** * 
1599:Generated_Source\PSoC4/CYBLE_eventHandler.c **** *  Handles the CYBLE_EVT_GAP_CONNECTION_UPDATE_COMPLETE event from
1600:Generated_Source\PSoC4/CYBLE_eventHandler.c **** *  the BLE stack.
1601:Generated_Source\PSoC4/CYBLE_eventHandler.c **** * 
1602:Generated_Source\PSoC4/CYBLE_eventHandler.c **** *  \param eventParam: The pointer to the data structure specified by the event.
1603:Generated_Source\PSoC4/CYBLE_eventHandler.c **** * 
1604:Generated_Source\PSoC4/CYBLE_eventHandler.c **** * \return
1605:Generated_Source\PSoC4/CYBLE_eventHandler.c **** *  None
1606:Generated_Source\PSoC4/CYBLE_eventHandler.c **** * 
1607:Generated_Source\PSoC4/CYBLE_eventHandler.c **** ******************************************************************************/
1608:Generated_Source\PSoC4/CYBLE_eventHandler.c **** static void CyBle_GapConnUpdateCompleteEventHandler(const CYBLE_GAP_CONN_PARAM_UPDATED_IN_CONTROLLE
1609:Generated_Source\PSoC4/CYBLE_eventHandler.c **** {
 427              		.loc 1 1609 0
 428              		.cfi_startproc
 429              		@ args = 0, pretend = 0, frame = 8
 430              		@ frame_needed = 1, uses_anonymous_args = 0
 431 0000 80B5     		push	{r7, lr}
 432              		.cfi_def_cfa_offset 8
 433              		.cfi_offset 7, -8
 434              		.cfi_offset 14, -4
 435 0002 82B0     		sub	sp, sp, #8
 436              		.cfi_def_cfa_offset 16
 437 0004 00AF     		add	r7, sp, #0
 438              		.cfi_def_cfa_register 7
 439 0006 7860     		str	r0, [r7, #4]
1610:Generated_Source\PSoC4/CYBLE_eventHandler.c ****     #ifdef CYBLE_CPS_SERVER
ARM GAS  C:\Users\LIAMSA~1\AppData\Local\Temp\cc7Yswwd.s 			page 37


1611:Generated_Source\PSoC4/CYBLE_eventHandler.c ****         CyBle_CpssConnUpdateCompleteEventHandler(eventParam);
1612:Generated_Source\PSoC4/CYBLE_eventHandler.c ****     #endif /* CYBLE_CPS_SERVER */
1613:Generated_Source\PSoC4/CYBLE_eventHandler.c ****     
1614:Generated_Source\PSoC4/CYBLE_eventHandler.c ****     /* Unreferenced variable warning workaround */
1615:Generated_Source\PSoC4/CYBLE_eventHandler.c ****     if(eventParam != 0u)
1616:Generated_Source\PSoC4/CYBLE_eventHandler.c ****     {
1617:Generated_Source\PSoC4/CYBLE_eventHandler.c ****     }
1618:Generated_Source\PSoC4/CYBLE_eventHandler.c **** }
 440              		.loc 1 1618 0
 441 0008 C046     		nop
 442 000a BD46     		mov	sp, r7
 443 000c 02B0     		add	sp, sp, #8
 444              		@ sp needed
 445 000e 80BD     		pop	{r7, pc}
 446              		.cfi_endproc
 447              	.LFE9:
 448              		.size	CyBle_GapConnUpdateCompleteEventHandler, .-CyBle_GapConnUpdateCompleteEventHandler
 449              		.section	.text.CyBle_EventHandler,"ax",%progbits
 450              		.align	2
 451              		.global	CyBle_EventHandler
 452              		.code	16
 453              		.thumb_func
 454              		.type	CyBle_EventHandler, %function
 455              	CyBle_EventHandler:
 456              	.LFB10:
1619:Generated_Source\PSoC4/CYBLE_eventHandler.c **** 
1620:Generated_Source\PSoC4/CYBLE_eventHandler.c **** 
1621:Generated_Source\PSoC4/CYBLE_eventHandler.c **** /****************************************************************************** 
1622:Generated_Source\PSoC4/CYBLE_eventHandler.c **** * Function Name: CyBle_EventHandler
1623:Generated_Source\PSoC4/CYBLE_eventHandler.c **** ***************************************************************************//**
1624:Generated_Source\PSoC4/CYBLE_eventHandler.c **** * 
1625:Generated_Source\PSoC4/CYBLE_eventHandler.c **** *  Handles the events from the BLE stack
1626:Generated_Source\PSoC4/CYBLE_eventHandler.c **** * 
1627:Generated_Source\PSoC4/CYBLE_eventHandler.c **** *  \param eventCode:    the event code
1628:Generated_Source\PSoC4/CYBLE_eventHandler.c **** *  \param eventParam:  the event parameters
1629:Generated_Source\PSoC4/CYBLE_eventHandler.c **** * 
1630:Generated_Source\PSoC4/CYBLE_eventHandler.c **** * \return
1631:Generated_Source\PSoC4/CYBLE_eventHandler.c **** *  None.
1632:Generated_Source\PSoC4/CYBLE_eventHandler.c **** * 
1633:Generated_Source\PSoC4/CYBLE_eventHandler.c **** ******************************************************************************/
1634:Generated_Source\PSoC4/CYBLE_eventHandler.c **** void CyBle_EventHandler(uint8 eventCode, void *eventParam)
1635:Generated_Source\PSoC4/CYBLE_eventHandler.c **** {
 457              		.loc 1 1635 0
 458              		.cfi_startproc
 459              		@ args = 0, pretend = 0, frame = 32
 460              		@ frame_needed = 1, uses_anonymous_args = 0
 461 0000 80B5     		push	{r7, lr}
 462              		.cfi_def_cfa_offset 8
 463              		.cfi_offset 7, -8
 464              		.cfi_offset 14, -4
 465 0002 88B0     		sub	sp, sp, #32
 466              		.cfi_def_cfa_offset 40
 467 0004 00AF     		add	r7, sp, #0
 468              		.cfi_def_cfa_register 7
 469 0006 0200     		movs	r2, r0
 470 0008 3960     		str	r1, [r7]
 471 000a FB1D     		adds	r3, r7, #7
ARM GAS  C:\Users\LIAMSA~1\AppData\Local\Temp\cc7Yswwd.s 			page 38


 472 000c 1A70     		strb	r2, [r3]
1636:Generated_Source\PSoC4/CYBLE_eventHandler.c ****     cyBle_eventHandlerFlag |= CYBLE_CALLBACK;
 473              		.loc 1 1636 0
 474 000e CD4B     		ldr	r3, .L66
 475 0010 1B78     		ldrb	r3, [r3]
 476 0012 DBB2     		uxtb	r3, r3
 477 0014 0122     		movs	r2, #1
 478 0016 1343     		orrs	r3, r2
 479 0018 DAB2     		uxtb	r2, r3
 480 001a CA4B     		ldr	r3, .L66
 481 001c 1A70     		strb	r2, [r3]
1637:Generated_Source\PSoC4/CYBLE_eventHandler.c **** 
1638:Generated_Source\PSoC4/CYBLE_eventHandler.c ****     /* Common Profile event handling */
1639:Generated_Source\PSoC4/CYBLE_eventHandler.c ****     switch(eventCode)
 482              		.loc 1 1639 0
 483 001e FB1D     		adds	r3, r7, #7
 484 0020 1B78     		ldrb	r3, [r3]
 485 0022 712B     		cmp	r3, #113
 486 0024 00D9     		bls	.LCB376
 487 0026 6BE1     		b	.L61	@long jump
 488              	.LCB376:
 489 0028 9A00     		lsls	r2, r3, #2
 490 002a C74B     		ldr	r3, .L66+4
 491 002c D318     		adds	r3, r2, r3
 492 002e 1B68     		ldr	r3, [r3]
 493 0030 9F46     		mov	pc, r3
 494              		.section	.rodata
 495              		.align	2
 496              	.L26:
 497 000c 00030000 		.word	.L61
 498 0010 32000000 		.word	.L25
 499 0014 38010000 		.word	.L27
 500 0018 00030000 		.word	.L61
 501 001c 00030000 		.word	.L61
 502 0020 42010000 		.word	.L28
 503 0024 4C010000 		.word	.L29
 504 0028 00030000 		.word	.L61
 505 002c 00030000 		.word	.L61
 506 0030 00030000 		.word	.L61
 507 0034 00030000 		.word	.L61
 508 0038 00030000 		.word	.L61
 509 003c 00030000 		.word	.L61
 510 0040 00030000 		.word	.L61
 511 0044 00030000 		.word	.L61
 512 0048 00030000 		.word	.L61
 513 004c 00030000 		.word	.L61
 514 0050 00030000 		.word	.L61
 515 0054 00030000 		.word	.L61
 516 0058 00030000 		.word	.L61
 517 005c 00030000 		.word	.L61
 518 0060 00030000 		.word	.L61
 519 0064 00030000 		.word	.L61
 520 0068 00030000 		.word	.L61
 521 006c 00030000 		.word	.L61
 522 0070 00030000 		.word	.L61
 523 0074 00030000 		.word	.L61
 524 0078 00030000 		.word	.L61
ARM GAS  C:\Users\LIAMSA~1\AppData\Local\Temp\cc7Yswwd.s 			page 39


 525 007c 00030000 		.word	.L61
 526 0080 00030000 		.word	.L61
 527 0084 00030000 		.word	.L61
 528 0088 00030000 		.word	.L61
 529 008c 00030000 		.word	.L61
 530 0090 8C010000 		.word	.L30
 531 0094 00030000 		.word	.L61
 532 0098 00030000 		.word	.L61
 533 009c 00030000 		.word	.L61
 534 00a0 00030000 		.word	.L61
 535 00a4 0E020000 		.word	.L32
 536 00a8 F6010000 		.word	.L33
 537 00ac 06020000 		.word	.L34
 538 00b0 00030000 		.word	.L61
 539 00b4 EC010000 		.word	.L35
 540 00b8 00030000 		.word	.L61
 541 00bc 00030000 		.word	.L61
 542 00c0 00030000 		.word	.L61
 543 00c4 00030000 		.word	.L61
 544 00c8 00030000 		.word	.L61
 545 00cc 00030000 		.word	.L61
 546 00d0 00030000 		.word	.L61
 547 00d4 00030000 		.word	.L61
 548 00d8 00030000 		.word	.L61
 549 00dc 00030000 		.word	.L61
 550 00e0 00030000 		.word	.L61
 551 00e4 00030000 		.word	.L61
 552 00e8 00030000 		.word	.L61
 553 00ec 00030000 		.word	.L61
 554 00f0 00030000 		.word	.L61
 555 00f4 00030000 		.word	.L61
 556 00f8 00030000 		.word	.L61
 557 00fc 00030000 		.word	.L61
 558 0100 00030000 		.word	.L61
 559 0104 00030000 		.word	.L61
 560 0108 00030000 		.word	.L61
 561 010c 00030000 		.word	.L61
 562 0110 90020000 		.word	.L36
 563 0114 AC020000 		.word	.L37
 564 0118 B2020000 		.word	.L38
 565 011c 00030000 		.word	.L61
 566 0120 00030000 		.word	.L61
 567 0124 00030000 		.word	.L61
 568 0128 00030000 		.word	.L61
 569 012c 00030000 		.word	.L61
 570 0130 00030000 		.word	.L61
 571 0134 00030000 		.word	.L61
 572 0138 00030000 		.word	.L61
 573 013c EC020000 		.word	.L39
 574 0140 00030000 		.word	.L61
 575 0144 00030000 		.word	.L61
 576 0148 00030000 		.word	.L61
 577 014c 00030000 		.word	.L61
 578 0150 00030000 		.word	.L61
 579 0154 00030000 		.word	.L61
 580 0158 00030000 		.word	.L61
 581 015c F6020000 		.word	.L43
ARM GAS  C:\Users\LIAMSA~1\AppData\Local\Temp\cc7Yswwd.s 			page 40


 582 0160 00030000 		.word	.L61
 583 0164 00030000 		.word	.L61
 584 0168 00030000 		.word	.L61
 585 016c 00030000 		.word	.L61
 586 0170 00030000 		.word	.L61
 587 0174 00030000 		.word	.L61
 588 0178 00030000 		.word	.L61
 589 017c 00030000 		.word	.L61
 590 0180 00030000 		.word	.L61
 591 0184 00030000 		.word	.L61
 592 0188 00030000 		.word	.L61
 593 018c 00030000 		.word	.L61
 594 0190 00030000 		.word	.L61
 595 0194 00030000 		.word	.L61
 596 0198 00030000 		.word	.L61
 597 019c 00030000 		.word	.L61
 598 01a0 00030000 		.word	.L61
 599 01a4 00030000 		.word	.L61
 600 01a8 00030000 		.word	.L61
 601 01ac 00030000 		.word	.L61
 602 01b0 00030000 		.word	.L61
 603 01b4 00030000 		.word	.L61
 604 01b8 00030000 		.word	.L61
 605 01bc 00030000 		.word	.L61
 606 01c0 00030000 		.word	.L61
 607 01c4 00030000 		.word	.L61
 608 01c8 00030000 		.word	.L61
 609 01cc 00030000 		.word	.L61
 610 01d0 84020000 		.word	.L45
 611              		.section	.text.CyBle_EventHandler
 612              	.L25:
 613              	.LBB3:
1640:Generated_Source\PSoC4/CYBLE_eventHandler.c ****     {
1641:Generated_Source\PSoC4/CYBLE_eventHandler.c ****         /**********************************************************
1642:Generated_Source\PSoC4/CYBLE_eventHandler.c ****         * General events
1643:Generated_Source\PSoC4/CYBLE_eventHandler.c ****         ************************************************************/
1644:Generated_Source\PSoC4/CYBLE_eventHandler.c ****         case CYBLE_EVT_STACK_ON:
1645:Generated_Source\PSoC4/CYBLE_eventHandler.c ****         #if(CYBLE_MODE_PROFILE)
1646:Generated_Source\PSoC4/CYBLE_eventHandler.c ****         {
1647:Generated_Source\PSoC4/CYBLE_eventHandler.c ****             CYBLE_BLESS_PWR_IN_DB_T bleSsPowerLevel;
1648:Generated_Source\PSoC4/CYBLE_eventHandler.c ****             
1649:Generated_Source\PSoC4/CYBLE_eventHandler.c ****             /* Set Tx Power Level for advertising and connection channels */
1650:Generated_Source\PSoC4/CYBLE_eventHandler.c ****             bleSsPowerLevel.blePwrLevelInDbm = CYBLE_TX_POWER_LEVEL_ADV;
 614              		.loc 1 1650 0
 615 0032 1023     		movs	r3, #16
 616 0034 FB18     		adds	r3, r7, r3
 617 0036 0722     		movs	r2, #7
 618 0038 1A70     		strb	r2, [r3]
1651:Generated_Source\PSoC4/CYBLE_eventHandler.c ****             bleSsPowerLevel.bleSsChId = CYBLE_LL_ADV_CH_TYPE;
 619              		.loc 1 1651 0
 620 003a 1023     		movs	r3, #16
 621 003c FB18     		adds	r3, r7, r3
 622 003e 0022     		movs	r2, #0
 623 0040 5A70     		strb	r2, [r3, #1]
1652:Generated_Source\PSoC4/CYBLE_eventHandler.c ****             (void) CyBle_SetTxPowerLevel (&bleSsPowerLevel);
 624              		.loc 1 1652 0
 625 0042 1023     		movs	r3, #16
ARM GAS  C:\Users\LIAMSA~1\AppData\Local\Temp\cc7Yswwd.s 			page 41


 626 0044 FB18     		adds	r3, r7, r3
 627 0046 1800     		movs	r0, r3
 628 0048 FFF7FEFF 		bl	CyBle_SetTxPowerLevel
1653:Generated_Source\PSoC4/CYBLE_eventHandler.c ****             bleSsPowerLevel.blePwrLevelInDbm = CYBLE_TX_POWER_LEVEL_CONN;
 629              		.loc 1 1653 0
 630 004c 1023     		movs	r3, #16
 631 004e FB18     		adds	r3, r7, r3
 632 0050 0722     		movs	r2, #7
 633 0052 1A70     		strb	r2, [r3]
1654:Generated_Source\PSoC4/CYBLE_eventHandler.c ****             bleSsPowerLevel.bleSsChId = CYBLE_LL_CONN_CH_TYPE;
 634              		.loc 1 1654 0
 635 0054 1023     		movs	r3, #16
 636 0056 FB18     		adds	r3, r7, r3
 637 0058 0122     		movs	r2, #1
 638 005a 5A70     		strb	r2, [r3, #1]
1655:Generated_Source\PSoC4/CYBLE_eventHandler.c ****             (void) CyBle_SetTxPowerLevel (&bleSsPowerLevel);
 639              		.loc 1 1655 0
 640 005c 1023     		movs	r3, #16
 641 005e FB18     		adds	r3, r7, r3
 642 0060 1800     		movs	r0, r3
 643 0062 FFF7FEFF 		bl	CyBle_SetTxPowerLevel
1656:Generated_Source\PSoC4/CYBLE_eventHandler.c ****             
1657:Generated_Source\PSoC4/CYBLE_eventHandler.c ****             #if (CYBLE_GATT_ROLE_SERVER)
1658:Generated_Source\PSoC4/CYBLE_eventHandler.c ****                 /* As per Privacy Errata a call to CyBle_EnableDefaultDevicePrivacy() is
1659:Generated_Source\PSoC4/CYBLE_eventHandler.c ****                   required to set a device to use device privacy instead of network privacy
1660:Generated_Source\PSoC4/CYBLE_eventHandler.c ****                   that is enabled by default starting from BLE Stack 3.3.
1661:Generated_Source\PSoC4/CYBLE_eventHandler.c ****                 */
1662:Generated_Source\PSoC4/CYBLE_eventHandler.c ****                 if(cyBle_gaps.rpaOnlyCharHandle != CYBLE_GATT_INVALID_ATTR_HANDLE_VALUE)
 644              		.loc 1 1662 0
 645 0066 0023     		movs	r3, #0
 646 0068 002B     		cmp	r3, #0
 647 006a 01D0     		beq	.L46
1663:Generated_Source\PSoC4/CYBLE_eventHandler.c ****                 {
1664:Generated_Source\PSoC4/CYBLE_eventHandler.c ****                     CyBle_EnableDefaultDevicePrivacy();
 648              		.loc 1 1664 0
 649 006c FFF7FEFF 		bl	CyBle_EnableDefaultDevicePrivacy
 650              	.L46:
 651              	.LBE3:
1665:Generated_Source\PSoC4/CYBLE_eventHandler.c ****                 }
1666:Generated_Source\PSoC4/CYBLE_eventHandler.c ****             #endif /* (CYBLE_GATT_ROLE_SERVER) */
1667:Generated_Source\PSoC4/CYBLE_eventHandler.c ****             
1668:Generated_Source\PSoC4/CYBLE_eventHandler.c ****             #if (CYBLE_STRICT_PAIRING_ENABLED)
1669:Generated_Source\PSoC4/CYBLE_eventHandler.c ****                 (void) CyBle_GapSetSecurityRequirements(CYBLE_STRICT_PAIRING_REQ_VALUE, CYBLE_SECUR
1670:Generated_Source\PSoC4/CYBLE_eventHandler.c ****             #endif /* (CYBLE_STRICT_PAIRING_ENABLED) */
1671:Generated_Source\PSoC4/CYBLE_eventHandler.c ****             
1672:Generated_Source\PSoC4/CYBLE_eventHandler.c ****         }
1673:Generated_Source\PSoC4/CYBLE_eventHandler.c ****         #endif /* CYBLE_MODE_PROFILE */
1674:Generated_Source\PSoC4/CYBLE_eventHandler.c ****         #if (CYBLE_GATT_ROLE_SERVER || CYBLE_GATT_ROLE_CLIENT)
1675:Generated_Source\PSoC4/CYBLE_eventHandler.c ****             /* Set device Address  */
1676:Generated_Source\PSoC4/CYBLE_eventHandler.c ****             if(CyBle_IsDeviceAddressValid(cyBle_sflashDeviceAddress) != 0u)
 652              		.loc 1 1676 0
 653 0070 B64B     		ldr	r3, .L66+8
 654 0072 1B68     		ldr	r3, [r3]
 655 0074 1800     		movs	r0, r3
 656 0076 FFF7FEFF 		bl	CyBle_IsDeviceAddressValid
 657 007a 031E     		subs	r3, r0, #0
 658 007c 11D0     		beq	.L47
ARM GAS  C:\Users\LIAMSA~1\AppData\Local\Temp\cc7Yswwd.s 			page 42


1677:Generated_Source\PSoC4/CYBLE_eventHandler.c ****             {
1678:Generated_Source\PSoC4/CYBLE_eventHandler.c ****                 (void) CyBle_SetDeviceAddress(cyBle_sflashDeviceAddress);
 659              		.loc 1 1678 0
 660 007e B34B     		ldr	r3, .L66+8
 661 0080 1B68     		ldr	r3, [r3]
 662 0082 1800     		movs	r0, r3
 663 0084 FFF7FEFF 		bl	CyBle_SetDeviceAddress
1679:Generated_Source\PSoC4/CYBLE_eventHandler.c ****                 #if(CYBLE_GAP_ROLE_PERIPHERAL || CYBLE_GAP_ROLE_BROADCASTER)
1680:Generated_Source\PSoC4/CYBLE_eventHandler.c ****                     CyBle_ChangeAdDeviceAddress(cyBle_sflashDeviceAddress, 0u);
 664              		.loc 1 1680 0
 665 0088 B04B     		ldr	r3, .L66+8
 666 008a 1B68     		ldr	r3, [r3]
 667 008c 0021     		movs	r1, #0
 668 008e 1800     		movs	r0, r3
 669 0090 FFF7FEFF 		bl	CyBle_ChangeAdDeviceAddress
1681:Generated_Source\PSoC4/CYBLE_eventHandler.c ****                     CyBle_ChangeAdDeviceAddress(cyBle_sflashDeviceAddress, 1u);
 670              		.loc 1 1681 0
 671 0094 AD4B     		ldr	r3, .L66+8
 672 0096 1B68     		ldr	r3, [r3]
 673 0098 0121     		movs	r1, #1
 674 009a 1800     		movs	r0, r3
 675 009c FFF7FEFF 		bl	CyBle_ChangeAdDeviceAddress
 676 00a0 36E0     		b	.L48
 677              	.L47:
 678              	.LBB4:
1682:Generated_Source\PSoC4/CYBLE_eventHandler.c ****                 #endif /* CYBLE_GAP_ROLE_PERIPHERAL || CYBLE_GAP_ROLE_BROADCASTER */    
1683:Generated_Source\PSoC4/CYBLE_eventHandler.c ****             }
1684:Generated_Source\PSoC4/CYBLE_eventHandler.c ****             else
1685:Generated_Source\PSoC4/CYBLE_eventHandler.c ****             {
1686:Generated_Source\PSoC4/CYBLE_eventHandler.c ****             #if (SILICON_GENERATED_DEVICE_ADDRESS != 0u)
1687:Generated_Source\PSoC4/CYBLE_eventHandler.c ****             {
1688:Generated_Source\PSoC4/CYBLE_eventHandler.c ****                 uint32 bdAddrLoc;
1689:Generated_Source\PSoC4/CYBLE_eventHandler.c ****                 bdAddrLoc = (CYBLE_SFLASH_DIE_X_REG & CYBLE_SFLASH_DIE_X_MASK) |
 679              		.loc 1 1689 0
 680 00a2 AB4B     		ldr	r3, .L66+12
 681 00a4 1B78     		ldrb	r3, [r3]
 682 00a6 1A00     		movs	r2, r3
 683 00a8 3F23     		movs	r3, #63
 684 00aa 1A40     		ands	r2, r3
1690:Generated_Source\PSoC4/CYBLE_eventHandler.c ****                     ((uint32)(((uint32)CYBLE_SFLASH_DIE_Y_REG) & ((uint32)CYBLE_SFLASH_DIE_Y_MASK))
 685              		.loc 1 1690 0
 686 00ac A94B     		ldr	r3, .L66+16
 687 00ae 1B78     		ldrb	r3, [r3]
 688 00b0 9901     		lsls	r1, r3, #6
 689 00b2 FC23     		movs	r3, #252
 690 00b4 1B01     		lsls	r3, r3, #4
 691 00b6 0B40     		ands	r3, r1
1689:Generated_Source\PSoC4/CYBLE_eventHandler.c ****                     ((uint32)(((uint32)CYBLE_SFLASH_DIE_Y_REG) & ((uint32)CYBLE_SFLASH_DIE_Y_MASK))
 692              		.loc 1 1689 0
 693 00b8 1A43     		orrs	r2, r3
1691:Generated_Source\PSoC4/CYBLE_eventHandler.c ****                         CYBLE_SFLASH_DIE_X_BITS) |
1692:Generated_Source\PSoC4/CYBLE_eventHandler.c ****                     ((uint32)(((uint32)CYBLE_SFLASH_DIE_WAFER_REG) & ((uint32)CYBLE_SFLASH_DIE_WAFE
 694              		.loc 1 1692 0
 695 00ba A74B     		ldr	r3, .L66+20
 696 00bc 1B78     		ldrb	r3, [r3]
 697 00be 1903     		lsls	r1, r3, #12
 698 00c0 F823     		movs	r3, #248
ARM GAS  C:\Users\LIAMSA~1\AppData\Local\Temp\cc7Yswwd.s 			page 43


 699 00c2 5B02     		lsls	r3, r3, #9
 700 00c4 0B40     		ands	r3, r1
1691:Generated_Source\PSoC4/CYBLE_eventHandler.c ****                         CYBLE_SFLASH_DIE_X_BITS) |
 701              		.loc 1 1691 0
 702 00c6 1A43     		orrs	r2, r3
1693:Generated_Source\PSoC4/CYBLE_eventHandler.c ****                         CYBLE_SFLASH_DIE_XY_BITS) |
1694:Generated_Source\PSoC4/CYBLE_eventHandler.c ****                     ((uint32)(((uint32)CYBLE_SFLASH_DIE_LOT_REG) & ((uint32)CYBLE_SFLASH_DIE_LOT_MA
 703              		.loc 1 1694 0
 704 00c8 A44B     		ldr	r3, .L66+24
 705 00ca 1B78     		ldrb	r3, [r3]
 706 00cc 5904     		lsls	r1, r3, #17
 707 00ce FE23     		movs	r3, #254
 708 00d0 1B04     		lsls	r3, r3, #16
 709 00d2 0B40     		ands	r3, r1
1689:Generated_Source\PSoC4/CYBLE_eventHandler.c ****                     ((uint32)(((uint32)CYBLE_SFLASH_DIE_Y_REG) & ((uint32)CYBLE_SFLASH_DIE_Y_MASK))
 710              		.loc 1 1689 0
 711 00d4 1343     		orrs	r3, r2
 712 00d6 BB61     		str	r3, [r7, #24]
1695:Generated_Source\PSoC4/CYBLE_eventHandler.c ****                         CYBLE_SFLASH_DIE_XYWAFER_BITS);
1696:Generated_Source\PSoC4/CYBLE_eventHandler.c ****                             
1697:Generated_Source\PSoC4/CYBLE_eventHandler.c ****                 cyBle_deviceAddress.bdAddr[0] = (uint8)bdAddrLoc;
 713              		.loc 1 1697 0
 714 00d8 BB69     		ldr	r3, [r7, #24]
 715 00da DAB2     		uxtb	r2, r3
 716 00dc A04B     		ldr	r3, .L66+28
 717 00de 1A70     		strb	r2, [r3]
1698:Generated_Source\PSoC4/CYBLE_eventHandler.c ****                 cyBle_deviceAddress.bdAddr[1] = (uint8)(bdAddrLoc >> 8u);
 718              		.loc 1 1698 0
 719 00e0 BB69     		ldr	r3, [r7, #24]
 720 00e2 1B0A     		lsrs	r3, r3, #8
 721 00e4 DAB2     		uxtb	r2, r3
 722 00e6 9E4B     		ldr	r3, .L66+28
 723 00e8 5A70     		strb	r2, [r3, #1]
1699:Generated_Source\PSoC4/CYBLE_eventHandler.c ****                 cyBle_deviceAddress.bdAddr[2] = (uint8)(bdAddrLoc >> 16u);
 724              		.loc 1 1699 0
 725 00ea BB69     		ldr	r3, [r7, #24]
 726 00ec 1B0C     		lsrs	r3, r3, #16
 727 00ee DAB2     		uxtb	r2, r3
 728 00f0 9B4B     		ldr	r3, .L66+28
 729 00f2 9A70     		strb	r2, [r3, #2]
 730              	.LBE4:
1700:Generated_Source\PSoC4/CYBLE_eventHandler.c ****             }
1701:Generated_Source\PSoC4/CYBLE_eventHandler.c ****             #endif /* SILICON_GENERATED_DEVICE_ADDRESS != 0u */
1702:Generated_Source\PSoC4/CYBLE_eventHandler.c ****                 (void) CyBle_SetDeviceAddress(&cyBle_deviceAddress);
 731              		.loc 1 1702 0
 732 00f4 9A4B     		ldr	r3, .L66+28
 733 00f6 1800     		movs	r0, r3
 734 00f8 FFF7FEFF 		bl	CyBle_SetDeviceAddress
1703:Generated_Source\PSoC4/CYBLE_eventHandler.c ****                 #if(CYBLE_GAP_ROLE_PERIPHERAL || CYBLE_GAP_ROLE_BROADCASTER)
1704:Generated_Source\PSoC4/CYBLE_eventHandler.c ****                     CyBle_ChangeAdDeviceAddress(&cyBle_deviceAddress, 0u);
 735              		.loc 1 1704 0
 736 00fc 984B     		ldr	r3, .L66+28
 737 00fe 0021     		movs	r1, #0
 738 0100 1800     		movs	r0, r3
 739 0102 FFF7FEFF 		bl	CyBle_ChangeAdDeviceAddress
1705:Generated_Source\PSoC4/CYBLE_eventHandler.c ****                     CyBle_ChangeAdDeviceAddress(&cyBle_deviceAddress, 1u);
 740              		.loc 1 1705 0
ARM GAS  C:\Users\LIAMSA~1\AppData\Local\Temp\cc7Yswwd.s 			page 44


 741 0106 964B     		ldr	r3, .L66+28
 742 0108 0121     		movs	r1, #1
 743 010a 1800     		movs	r0, r3
 744 010c FFF7FEFF 		bl	CyBle_ChangeAdDeviceAddress
 745              	.L48:
1706:Generated_Source\PSoC4/CYBLE_eventHandler.c ****                 #endif /* CYBLE_GAP_ROLE_PERIPHERAL || CYBLE_GAP_ROLE_BROADCASTER */    
1707:Generated_Source\PSoC4/CYBLE_eventHandler.c ****             }
1708:Generated_Source\PSoC4/CYBLE_eventHandler.c ****             /* Set device IO Capability  */
1709:Generated_Source\PSoC4/CYBLE_eventHandler.c ****             (void) CyBle_GapSetIoCap(CYBLE_IO_CAPABILITY);    
 746              		.loc 1 1709 0
 747 0110 0320     		movs	r0, #3
 748 0112 FFF7FEFF 		bl	CyBle_GapSetIoCap
 749              	.LBB5:
1710:Generated_Source\PSoC4/CYBLE_eventHandler.c ****             {
1711:Generated_Source\PSoC4/CYBLE_eventHandler.c ****                 /* Enable all 4.1 events and configured 4.2 events */
1712:Generated_Source\PSoC4/CYBLE_eventHandler.c ****                 uint8 leMask[CYBLE_LE_MASK_LENGTH] = {LO8(CYBLE_LE_MASK), HI8(CYBLE_LE_MASK)};
 750              		.loc 1 1712 0
 751 0116 0C23     		movs	r3, #12
 752 0118 FB18     		adds	r3, r7, r3
 753 011a 3F22     		movs	r2, #63
 754 011c 1A70     		strb	r2, [r3]
 755 011e 0C23     		movs	r3, #12
 756 0120 FB18     		adds	r3, r7, r3
 757 0122 0022     		movs	r2, #0
 758 0124 5A70     		strb	r2, [r3, #1]
1713:Generated_Source\PSoC4/CYBLE_eventHandler.c ****                 (void) CyBle_GapSetLeEventMask(leMask);
 759              		.loc 1 1713 0
 760 0126 0C23     		movs	r3, #12
 761 0128 FB18     		adds	r3, r7, r3
 762 012a 1800     		movs	r0, r3
 763 012c FFF7FEFF 		bl	CyBle_GapSetLeEventMask
 764              	.LBE5:
1714:Generated_Source\PSoC4/CYBLE_eventHandler.c ****             }
1715:Generated_Source\PSoC4/CYBLE_eventHandler.c ****         #if(CYBLE_DLE_FEATURE_ENABLED)
1716:Generated_Source\PSoC4/CYBLE_eventHandler.c ****         {
1717:Generated_Source\PSoC4/CYBLE_eventHandler.c ****             /* Set maximum suggested TX payload size */
1718:Generated_Source\PSoC4/CYBLE_eventHandler.c ****             uint16 payloadTime = CYBLE_LL_MAX_TX_TIME;
1719:Generated_Source\PSoC4/CYBLE_eventHandler.c ****             (void) CyBle_GapConvertOctetToTime(CYBLE_GAP_PHY_1MBPS, CYBLE_LL_MAX_TX_PAYLOAD_SIZE, &
1720:Generated_Source\PSoC4/CYBLE_eventHandler.c ****             (void) CyBle_GapSetSuggestedDataLength(CYBLE_LL_MAX_TX_PAYLOAD_SIZE, payloadTime); 
1721:Generated_Source\PSoC4/CYBLE_eventHandler.c ****         }
1722:Generated_Source\PSoC4/CYBLE_eventHandler.c ****         #endif /* CYBLE_DLE_FEATURE != 0u */
1723:Generated_Source\PSoC4/CYBLE_eventHandler.c ****         
1724:Generated_Source\PSoC4/CYBLE_eventHandler.c ****         #endif /* CYBLE_GATT_ROLE_SERVER || CYBLE_GATT_ROLE_CLIENT */
1725:Generated_Source\PSoC4/CYBLE_eventHandler.c ****             CyBle_SetState(CYBLE_STATE_DISCONNECTED);
 765              		.loc 1 1725 0
 766 0130 8C4B     		ldr	r3, .L66+32
 767 0132 0422     		movs	r2, #4
 768 0134 1A70     		strb	r2, [r3]
1726:Generated_Source\PSoC4/CYBLE_eventHandler.c ****             break;
 769              		.loc 1 1726 0
 770 0136 EAE0     		b	.L49
 771              	.L27:
1727:Generated_Source\PSoC4/CYBLE_eventHandler.c ****         case CYBLE_EVT_TIMEOUT:
1728:Generated_Source\PSoC4/CYBLE_eventHandler.c ****             CyBle_TimeOutEventHandler((CYBLE_TO_REASON_CODE_T *)eventParam);
 772              		.loc 1 1728 0
 773 0138 3B68     		ldr	r3, [r7]
 774 013a 1800     		movs	r0, r3
ARM GAS  C:\Users\LIAMSA~1\AppData\Local\Temp\cc7Yswwd.s 			page 45


 775 013c FFF7FEFF 		bl	CyBle_TimeOutEventHandler
1729:Generated_Source\PSoC4/CYBLE_eventHandler.c ****             break;
 776              		.loc 1 1729 0
 777 0140 E5E0     		b	.L49
 778              	.L28:
1730:Generated_Source\PSoC4/CYBLE_eventHandler.c ****     	case CYBLE_EVT_STACK_BUSY_STATUS:
1731:Generated_Source\PSoC4/CYBLE_eventHandler.c ****             cyBle_busyStatus = *(uint8 *)eventParam;
 779              		.loc 1 1731 0
 780 0142 3B68     		ldr	r3, [r7]
 781 0144 1A78     		ldrb	r2, [r3]
 782 0146 884B     		ldr	r3, .L66+36
 783 0148 1A70     		strb	r2, [r3]
1732:Generated_Source\PSoC4/CYBLE_eventHandler.c ****             break;
 784              		.loc 1 1732 0
 785 014a E0E0     		b	.L49
 786              	.L29:
 787              	.LBB6:
1733:Generated_Source\PSoC4/CYBLE_eventHandler.c ****     	case CYBLE_EVT_MEMORY_REQUEST:
1734:Generated_Source\PSoC4/CYBLE_eventHandler.c ****         #if(CYBLE_MODE_PROFILE)
1735:Generated_Source\PSoC4/CYBLE_eventHandler.c ****         {
1736:Generated_Source\PSoC4/CYBLE_eventHandler.c ****             CYBLE_MEMORY_REQUEST_T *memReq = (CYBLE_MEMORY_REQUEST_T *)eventParam;
 788              		.loc 1 1736 0
 789 014c 3B68     		ldr	r3, [r7]
 790 014e 7B61     		str	r3, [r7, #20]
1737:Generated_Source\PSoC4/CYBLE_eventHandler.c ****             if(memReq->request == CYBLE_PREPARED_WRITE_REQUEST)
 791              		.loc 1 1737 0
 792 0150 7B69     		ldr	r3, [r7, #20]
 793 0152 1B78     		ldrb	r3, [r3]
 794 0154 002B     		cmp	r3, #0
 795 0156 00D0     		beq	.LCB545
 796 0158 D4E0     		b	.L62	@long jump
 797              	.LCB545:
1738:Generated_Source\PSoC4/CYBLE_eventHandler.c ****             {  
1739:Generated_Source\PSoC4/CYBLE_eventHandler.c ****             #if(CYBLE_GATT_ENABLE_EXTERNAL_PREP_WRITE_BUFF == 0u)
1740:Generated_Source\PSoC4/CYBLE_eventHandler.c ****                 /* Stack requests to provide memory to process remote request */
1741:Generated_Source\PSoC4/CYBLE_eventHandler.c ****                 if(memReq->allocFree == CYBLE_ALLOC_MEMORY)
 798              		.loc 1 1741 0
 799 015a 7B69     		ldr	r3, [r7, #20]
 800 015c 5B78     		ldrb	r3, [r3, #1]
 801 015e 002B     		cmp	r3, #0
 802 0160 0BD1     		bne	.L51
 803              	.LBB7:
1742:Generated_Source\PSoC4/CYBLE_eventHandler.c ****                 {
1743:Generated_Source\PSoC4/CYBLE_eventHandler.c ****                     static CYBLE_PREPARE_WRITE_REQUEST_MEMORY_T gPrepWriteReqMem;
1744:Generated_Source\PSoC4/CYBLE_eventHandler.c ****                     
1745:Generated_Source\PSoC4/CYBLE_eventHandler.c ****                     /* Configure and return statically allocated buffer at the end of cyBle_stackMe
1746:Generated_Source\PSoC4/CYBLE_eventHandler.c ****                     gPrepWriteReqMem.prepareWriteQueueSize = CYBLE_GATT_MAX_PREPARE_BUFF_COUNT;
 804              		.loc 1 1746 0
 805 0162 824B     		ldr	r3, .L66+40
 806 0164 0022     		movs	r2, #0
 807 0166 DA80     		strh	r2, [r3, #6]
1747:Generated_Source\PSoC4/CYBLE_eventHandler.c ****                     gPrepWriteReqMem.totalAttrValueLength = CYBLE_GATT_PREPARE_LENGTH_ALIGN;
 808              		.loc 1 1747 0
 809 0168 804B     		ldr	r3, .L66+40
 810 016a 0022     		movs	r2, #0
 811 016c 9A80     		strh	r2, [r3, #4]
1748:Generated_Source\PSoC4/CYBLE_eventHandler.c ****                     gPrepWriteReqMem.queueBuffer = &cyBle_stackMemoryRam[CYBLE_STACK_RAM_SIZE - 
ARM GAS  C:\Users\LIAMSA~1\AppData\Local\Temp\cc7Yswwd.s 			page 46


 812              		.loc 1 1748 0
 813 016e 7F4B     		ldr	r3, .L66+40
 814 0170 7F4A     		ldr	r2, .L66+44
 815 0172 1A60     		str	r2, [r3]
1749:Generated_Source\PSoC4/CYBLE_eventHandler.c ****                                                                          CYBLE_GATT_PREPARE_WRITE_B
1750:Generated_Source\PSoC4/CYBLE_eventHandler.c ****                     memReq->configMemory = &gPrepWriteReqMem;  
 816              		.loc 1 1750 0
 817 0174 7B69     		ldr	r3, [r7, #20]
 818 0176 7D4A     		ldr	r2, .L66+40
 819 0178 5A60     		str	r2, [r3, #4]
 820              	.L51:
 821              	.LBE7:
1751:Generated_Source\PSoC4/CYBLE_eventHandler.c ****                 }                
1752:Generated_Source\PSoC4/CYBLE_eventHandler.c ****                 /* Clear CYBLE_CALLBACK flag not to provide handled event to application */
1753:Generated_Source\PSoC4/CYBLE_eventHandler.c ****                 cyBle_eventHandlerFlag &= (uint8)~CYBLE_CALLBACK;
 822              		.loc 1 1753 0
 823 017a 724B     		ldr	r3, .L66
 824 017c 1B78     		ldrb	r3, [r3]
 825 017e DBB2     		uxtb	r3, r3
 826 0180 0122     		movs	r2, #1
 827 0182 9343     		bics	r3, r2
 828 0184 DAB2     		uxtb	r2, r3
 829 0186 6F4B     		ldr	r3, .L66
 830 0188 1A70     		strb	r2, [r3]
 831              	.LBE6:
1754:Generated_Source\PSoC4/CYBLE_eventHandler.c ****             #endif  /* CYBLE_GATT_ENABLE_EXTERNAL_PREP_WRITE_BUFF == 0u */
1755:Generated_Source\PSoC4/CYBLE_eventHandler.c ****             }
1756:Generated_Source\PSoC4/CYBLE_eventHandler.c ****         }
1757:Generated_Source\PSoC4/CYBLE_eventHandler.c ****         #endif /* CYBLE_MODE_PROFILE */
1758:Generated_Source\PSoC4/CYBLE_eventHandler.c ****             break;
 832              		.loc 1 1758 0
 833 018a BBE0     		b	.L62
 834              	.L30:
1759:Generated_Source\PSoC4/CYBLE_eventHandler.c ****         /**********************************************************
1760:Generated_Source\PSoC4/CYBLE_eventHandler.c ****         * GAP events
1761:Generated_Source\PSoC4/CYBLE_eventHandler.c ****         ************************************************************/
1762:Generated_Source\PSoC4/CYBLE_eventHandler.c ****         case CYBLE_EVT_GAP_AUTH_REQ:
1763:Generated_Source\PSoC4/CYBLE_eventHandler.c ****         #if(CYBLE_MODE_PROFILE)
1764:Generated_Source\PSoC4/CYBLE_eventHandler.c ****             if((cyBle_eventHandlerFlag & CYBLE_DISABLE_AUTOMATIC_AUTH) == 0u)
 835              		.loc 1 1764 0
 836 018c 6D4B     		ldr	r3, .L66
 837 018e 1B78     		ldrb	r3, [r3]
 838 0190 DBB2     		uxtb	r3, r3
 839 0192 1A00     		movs	r2, r3
 840 0194 2023     		movs	r3, #32
 841 0196 1340     		ands	r3, r2
 842 0198 00D0     		beq	.LCB586
 843 019a B5E0     		b	.L63	@long jump
 844              	.LCB586:
1765:Generated_Source\PSoC4/CYBLE_eventHandler.c ****             {
1766:Generated_Source\PSoC4/CYBLE_eventHandler.c ****                 /* If the responding device does not support pairing then the responding 
1767:Generated_Source\PSoC4/CYBLE_eventHandler.c ****                    device shall respond using the Pairing Failed message with the error 
1768:Generated_Source\PSoC4/CYBLE_eventHandler.c ****                    code "Pairing Not Supported" otherwise it responds with a Pairing 
1769:Generated_Source\PSoC4/CYBLE_eventHandler.c ****                    Response message.
1770:Generated_Source\PSoC4/CYBLE_eventHandler.c ****                 */
1771:Generated_Source\PSoC4/CYBLE_eventHandler.c ****                 if(cyBle_authInfo.security == (CYBLE_GAP_SEC_MODE_1 | CYBLE_GAP_SEC_LEVEL_1))
 845              		.loc 1 1771 0
ARM GAS  C:\Users\LIAMSA~1\AppData\Local\Temp\cc7Yswwd.s 			page 47


 846 019c 754B     		ldr	r3, .L66+48
 847 019e 1B78     		ldrb	r3, [r3]
 848 01a0 102B     		cmp	r3, #16
 849 01a2 02D1     		bne	.L53
1772:Generated_Source\PSoC4/CYBLE_eventHandler.c ****                 {
1773:Generated_Source\PSoC4/CYBLE_eventHandler.c ****                     cyBle_authInfo.authErr = CYBLE_GAP_AUTH_ERROR_PAIRING_NOT_SUPPORTED;
 850              		.loc 1 1773 0
 851 01a4 734B     		ldr	r3, .L66+48
 852 01a6 0522     		movs	r2, #5
 853 01a8 DA70     		strb	r2, [r3, #3]
 854              	.L53:
 855              	.LBB8:
1774:Generated_Source\PSoC4/CYBLE_eventHandler.c ****                 }    
1775:Generated_Source\PSoC4/CYBLE_eventHandler.c ****             #if(CYBLE_GAP_ROLE_PERIPHERAL)
1776:Generated_Source\PSoC4/CYBLE_eventHandler.c ****                 {
1777:Generated_Source\PSoC4/CYBLE_eventHandler.c ****                     CYBLE_API_RESULT_T apiResult;
1778:Generated_Source\PSoC4/CYBLE_eventHandler.c ****                     
1779:Generated_Source\PSoC4/CYBLE_eventHandler.c ****                     apiResult = CyBle_GappAuthReqReply(cyBle_connHandle.bdHandle, &cyBle_authInfo);
 856              		.loc 1 1779 0
 857 01aa 734B     		ldr	r3, .L66+52
 858 01ac 1B78     		ldrb	r3, [r3]
 859 01ae 714A     		ldr	r2, .L66+48
 860 01b0 1100     		movs	r1, r2
 861 01b2 1800     		movs	r0, r3
 862 01b4 FFF7FEFF 		bl	CyBle_GappAuthReqReply
 863 01b8 0300     		movs	r3, r0
 864 01ba 1A00     		movs	r2, r3
 865 01bc 0A23     		movs	r3, #10
 866 01be FB18     		adds	r3, r7, r3
 867 01c0 1A80     		strh	r2, [r3]
1780:Generated_Source\PSoC4/CYBLE_eventHandler.c ****                     /* Setting callback flag again as CyBle_GappAuthReqReply() will generate
1781:Generated_Source\PSoC4/CYBLE_eventHandler.c ****                     * CYBLE_EVT_GAP_SMP_NEGOTIATED_AUTH_INFO event which will clear the callback
1782:Generated_Source\PSoC4/CYBLE_eventHandler.c ****                     * flag.
1783:Generated_Source\PSoC4/CYBLE_eventHandler.c ****                     */
1784:Generated_Source\PSoC4/CYBLE_eventHandler.c ****                     if (apiResult != CYBLE_ERROR_OK)
 868              		.loc 1 1784 0
 869 01c2 0A23     		movs	r3, #10
 870 01c4 FB18     		adds	r3, r7, r3
 871 01c6 1B88     		ldrh	r3, [r3]
 872 01c8 002B     		cmp	r3, #0
 873 01ca 06D0     		beq	.L54
1785:Generated_Source\PSoC4/CYBLE_eventHandler.c ****                     {   
1786:Generated_Source\PSoC4/CYBLE_eventHandler.c ****                         CyBle_ApplCallback(CYBLE_EVT_GAP_AUTH_REQ_REPLY_ERR , &apiResult);
 874              		.loc 1 1786 0
 875 01cc 6B4B     		ldr	r3, .L66+56
 876 01ce 1B68     		ldr	r3, [r3]
 877 01d0 0A22     		movs	r2, #10
 878 01d2 BA18     		adds	r2, r7, r2
 879 01d4 1100     		movs	r1, r2
 880 01d6 3620     		movs	r0, #54
 881 01d8 9847     		blx	r3
 882              	.L54:
1787:Generated_Source\PSoC4/CYBLE_eventHandler.c ****                     }
1788:Generated_Source\PSoC4/CYBLE_eventHandler.c ****                     cyBle_eventHandlerFlag |= CYBLE_CALLBACK;
 883              		.loc 1 1788 0
 884 01da 5A4B     		ldr	r3, .L66
 885 01dc 1B78     		ldrb	r3, [r3]
ARM GAS  C:\Users\LIAMSA~1\AppData\Local\Temp\cc7Yswwd.s 			page 48


 886 01de DBB2     		uxtb	r3, r3
 887 01e0 0122     		movs	r2, #1
 888 01e2 1343     		orrs	r3, r2
 889 01e4 DAB2     		uxtb	r2, r3
 890 01e6 574B     		ldr	r3, .L66
 891 01e8 1A70     		strb	r2, [r3]
 892              	.LBE8:
1789:Generated_Source\PSoC4/CYBLE_eventHandler.c ****                 }
1790:Generated_Source\PSoC4/CYBLE_eventHandler.c ****             #endif /* CYBLE_GAP_ROLE_PERIPHERAL */
1791:Generated_Source\PSoC4/CYBLE_eventHandler.c ****             #if (CYBLE_GAP_ROLE_CENTRAL)
1792:Generated_Source\PSoC4/CYBLE_eventHandler.c ****                 (void)CyBle_GapAuthReq(cyBle_connHandle.bdHandle, &cyBle_authInfo);
1793:Generated_Source\PSoC4/CYBLE_eventHandler.c ****             #endif /* CYBLE_GAP_ROLE_CENTRAL */
1794:Generated_Source\PSoC4/CYBLE_eventHandler.c ****             }
1795:Generated_Source\PSoC4/CYBLE_eventHandler.c ****         #endif /* CYBLE_MODE_PROFILE */
1796:Generated_Source\PSoC4/CYBLE_eventHandler.c ****             break;
 893              		.loc 1 1796 0
 894 01ea 8DE0     		b	.L63
 895              	.L35:
1797:Generated_Source\PSoC4/CYBLE_eventHandler.c ****         
1798:Generated_Source\PSoC4/CYBLE_eventHandler.c ****         case CYBLE_EVT_GAP_AUTH_COMPLETE:
1799:Generated_Source\PSoC4/CYBLE_eventHandler.c ****         #if((CYBLE_GAP_ROLE_PERIPHERAL || CYBLE_GAP_ROLE_CENTRAL) && (CYBLE_BONDING_REQUIREMENT == 
1800:Generated_Source\PSoC4/CYBLE_eventHandler.c ****             cyBle_peerBonding = ((CYBLE_GAP_AUTH_INFO_T *)eventParam)->bonding;
1801:Generated_Source\PSoC4/CYBLE_eventHandler.c ****         #endif  /* CYBLE_BONDING_REQUIREMENT == CYBLE_BONDING_YES */
1802:Generated_Source\PSoC4/CYBLE_eventHandler.c ****             break;
1803:Generated_Source\PSoC4/CYBLE_eventHandler.c ****         
1804:Generated_Source\PSoC4/CYBLE_eventHandler.c ****         case CYBLE_EVT_GAP_CONNECTION_UPDATE_COMPLETE:
1805:Generated_Source\PSoC4/CYBLE_eventHandler.c ****             CyBle_GapConnUpdateCompleteEventHandler((const CYBLE_GAP_CONN_PARAM_UPDATED_IN_CONTROLL
 896              		.loc 1 1805 0
 897 01ec 3B68     		ldr	r3, [r7]
 898 01ee 1800     		movs	r0, r3
 899 01f0 FFF7FEFF 		bl	CyBle_GapConnUpdateCompleteEventHandler
1806:Generated_Source\PSoC4/CYBLE_eventHandler.c ****             break;
 900              		.loc 1 1806 0
 901 01f4 8BE0     		b	.L49
 902              	.L33:
1807:Generated_Source\PSoC4/CYBLE_eventHandler.c ****             
1808:Generated_Source\PSoC4/CYBLE_eventHandler.c ****     #if(CYBLE_LL_PRIVACY_FEATURE != 0u)        
1809:Generated_Source\PSoC4/CYBLE_eventHandler.c ****         case CYBLE_EVT_GAP_ENHANCE_CONN_COMPLETE:
1810:Generated_Source\PSoC4/CYBLE_eventHandler.c ****         {
1811:Generated_Source\PSoC4/CYBLE_eventHandler.c ****             CYBLE_GAP_CONN_PARAM_UPDATED_IN_CONTROLLER_T  connCParam;
1812:Generated_Source\PSoC4/CYBLE_eventHandler.c ****             CYBLE_GAP_ENHANCE_CONN_COMPLETE_T *connEnhanceParam;
1813:Generated_Source\PSoC4/CYBLE_eventHandler.c ****             
1814:Generated_Source\PSoC4/CYBLE_eventHandler.c ****             connEnhanceParam = (CYBLE_GAP_ENHANCE_CONN_COMPLETE_T *)eventParam;
1815:Generated_Source\PSoC4/CYBLE_eventHandler.c ****             connCParam.status = connEnhanceParam->status;
1816:Generated_Source\PSoC4/CYBLE_eventHandler.c ****             connCParam.connIntv = connEnhanceParam->connIntv;
1817:Generated_Source\PSoC4/CYBLE_eventHandler.c ****             connCParam.connLatency = connEnhanceParam->connLatency;
1818:Generated_Source\PSoC4/CYBLE_eventHandler.c ****             connCParam.supervisionTO = connEnhanceParam->supervisionTo;
1819:Generated_Source\PSoC4/CYBLE_eventHandler.c ****             CyBle_GapConnUpdateCompleteEventHandler((const CYBLE_GAP_CONN_PARAM_UPDATED_IN_CONTROLL
1820:Generated_Source\PSoC4/CYBLE_eventHandler.c ****             
1821:Generated_Source\PSoC4/CYBLE_eventHandler.c ****             #if(CYBLE_GAP_ROLE_CENTRAL)
1822:Generated_Source\PSoC4/CYBLE_eventHandler.c ****                 if(cyBle_connectingTimeout != 0u)
1823:Generated_Source\PSoC4/CYBLE_eventHandler.c ****                 {
1824:Generated_Source\PSoC4/CYBLE_eventHandler.c ****                    (void)CyBle_StopTimer();
1825:Generated_Source\PSoC4/CYBLE_eventHandler.c ****                 }
1826:Generated_Source\PSoC4/CYBLE_eventHandler.c ****             #endif /* CYBLE_GAP_ROLE_CENTRAL */
1827:Generated_Source\PSoC4/CYBLE_eventHandler.c ****             CyBle_SetState(CYBLE_STATE_CONNECTED);
1828:Generated_Source\PSoC4/CYBLE_eventHandler.c ****         }
ARM GAS  C:\Users\LIAMSA~1\AppData\Local\Temp\cc7Yswwd.s 			page 49


1829:Generated_Source\PSoC4/CYBLE_eventHandler.c ****             break;
1830:Generated_Source\PSoC4/CYBLE_eventHandler.c ****     #endif /* CYBLE_LL_PRIVACY_FEATURE != 0u */      
1831:Generated_Source\PSoC4/CYBLE_eventHandler.c ****             
1832:Generated_Source\PSoC4/CYBLE_eventHandler.c ****         case CYBLE_EVT_GAP_DEVICE_CONNECTED:
1833:Generated_Source\PSoC4/CYBLE_eventHandler.c ****             CyBle_GapConnUpdateCompleteEventHandler((const CYBLE_GAP_CONN_PARAM_UPDATED_IN_CONTROLL
 903              		.loc 1 1833 0
 904 01f6 3B68     		ldr	r3, [r7]
 905 01f8 1800     		movs	r0, r3
 906 01fa FFF7FEFF 		bl	CyBle_GapConnUpdateCompleteEventHandler
1834:Generated_Source\PSoC4/CYBLE_eventHandler.c ****             #if(CYBLE_GAP_ROLE_CENTRAL)
1835:Generated_Source\PSoC4/CYBLE_eventHandler.c ****                 if(cyBle_connectingTimeout != 0u)
1836:Generated_Source\PSoC4/CYBLE_eventHandler.c ****                 {
1837:Generated_Source\PSoC4/CYBLE_eventHandler.c ****                    (void)CyBle_StopTimer();
1838:Generated_Source\PSoC4/CYBLE_eventHandler.c ****                 }
1839:Generated_Source\PSoC4/CYBLE_eventHandler.c ****             #endif /* CYBLE_GAP_ROLE_CENTRAL */
1840:Generated_Source\PSoC4/CYBLE_eventHandler.c ****             CyBle_SetState(CYBLE_STATE_CONNECTED);
 907              		.loc 1 1840 0
 908 01fe 594B     		ldr	r3, .L66+32
 909 0200 0222     		movs	r2, #2
 910 0202 1A70     		strb	r2, [r3]
1841:Generated_Source\PSoC4/CYBLE_eventHandler.c ****             break;
 911              		.loc 1 1841 0
 912 0204 83E0     		b	.L49
 913              	.L34:
1842:Generated_Source\PSoC4/CYBLE_eventHandler.c **** 
1843:Generated_Source\PSoC4/CYBLE_eventHandler.c ****         case CYBLE_EVT_GAP_DEVICE_DISCONNECTED:
1844:Generated_Source\PSoC4/CYBLE_eventHandler.c ****             CyBle_SetState(CYBLE_STATE_DISCONNECTED);
 914              		.loc 1 1844 0
 915 0206 574B     		ldr	r3, .L66+32
 916 0208 0422     		movs	r2, #4
 917 020a 1A70     		strb	r2, [r3]
1845:Generated_Source\PSoC4/CYBLE_eventHandler.c ****             break;
 918              		.loc 1 1845 0
 919 020c 7FE0     		b	.L49
 920              	.L32:
1846:Generated_Source\PSoC4/CYBLE_eventHandler.c ****         #if(CYBLE_GAP_ROLE_PERIPHERAL || CYBLE_GAP_ROLE_BROADCASTER)
1847:Generated_Source\PSoC4/CYBLE_eventHandler.c ****             
1848:Generated_Source\PSoC4/CYBLE_eventHandler.c ****         case CYBLE_EVT_GAPP_ADVERTISEMENT_START_STOP:
1849:Generated_Source\PSoC4/CYBLE_eventHandler.c ****             #ifdef CYBLE_CPS_SERVER
1850:Generated_Source\PSoC4/CYBLE_eventHandler.c ****                 #if(CYBLE_GAP_ROLE_BROADCASTER)
1851:Generated_Source\PSoC4/CYBLE_eventHandler.c ****                     CyBle_CpssAdvertisementStartStopEventHandler();
1852:Generated_Source\PSoC4/CYBLE_eventHandler.c ****                 #endif /* CYBLE_GAP_ROLE_BROADCASTER */
1853:Generated_Source\PSoC4/CYBLE_eventHandler.c ****             #endif /* CYBLE_CPS_SERVER */
1854:Generated_Source\PSoC4/CYBLE_eventHandler.c ****             
1855:Generated_Source\PSoC4/CYBLE_eventHandler.c ****             if((CYBLE_STATE_CONNECTED != CyBle_GetState()) && ((cyBle_eventHandlerFlag & CYBLE_CALL
 921              		.loc 1 1855 0
 922 020e 554B     		ldr	r3, .L66+32
 923 0210 1B78     		ldrb	r3, [r3]
 924 0212 022B     		cmp	r3, #2
 925 0214 00D1     		bne	.LCB662
 926 0216 79E0     		b	.L64	@long jump
 927              	.LCB662:
 928              		.loc 1 1855 0 is_stmt 0 discriminator 1
 929 0218 4A4B     		ldr	r3, .L66
 930 021a 1B78     		ldrb	r3, [r3]
 931 021c DBB2     		uxtb	r3, r3
 932 021e 1A00     		movs	r2, r3
ARM GAS  C:\Users\LIAMSA~1\AppData\Local\Temp\cc7Yswwd.s 			page 50


 933 0220 0123     		movs	r3, #1
 934 0222 1340     		ands	r3, r2
 935 0224 00D1     		bne	.LCB670
 936 0226 71E0     		b	.L64	@long jump
 937              	.LCB670:
1856:Generated_Source\PSoC4/CYBLE_eventHandler.c ****             {
1857:Generated_Source\PSoC4/CYBLE_eventHandler.c ****                 /* After CyBle_GappStartAdvertisement first event indicates that advertising has be
1858:Generated_Source\PSoC4/CYBLE_eventHandler.c ****                 if(0u != (cyBle_eventHandlerFlag & CYBLE_START_FLAG))
 938              		.loc 1 1858 0 is_stmt 1
 939 0228 464B     		ldr	r3, .L66
 940 022a 1B78     		ldrb	r3, [r3]
 941 022c DBB2     		uxtb	r3, r3
 942 022e 1A00     		movs	r2, r3
 943 0230 0423     		movs	r3, #4
 944 0232 1340     		ands	r3, r2
 945 0234 0BD0     		beq	.L56
1859:Generated_Source\PSoC4/CYBLE_eventHandler.c ****                 {
1860:Generated_Source\PSoC4/CYBLE_eventHandler.c ****                     CyBle_SetState(CYBLE_STATE_ADVERTISING);
 946              		.loc 1 1860 0
 947 0236 4B4B     		ldr	r3, .L66+32
 948 0238 0322     		movs	r2, #3
 949 023a 1A70     		strb	r2, [r3]
1861:Generated_Source\PSoC4/CYBLE_eventHandler.c ****                     cyBle_eventHandlerFlag &= (uint8)~CYBLE_START_FLAG;
 950              		.loc 1 1861 0
 951 023c 414B     		ldr	r3, .L66
 952 023e 1B78     		ldrb	r3, [r3]
 953 0240 DBB2     		uxtb	r3, r3
 954 0242 0422     		movs	r2, #4
 955 0244 9343     		bics	r3, r2
 956 0246 DAB2     		uxtb	r2, r3
 957 0248 3E4B     		ldr	r3, .L66
 958 024a 1A70     		strb	r2, [r3]
1862:Generated_Source\PSoC4/CYBLE_eventHandler.c ****                 }
1863:Generated_Source\PSoC4/CYBLE_eventHandler.c ****                 /* When application initiated stop advertisement */
1864:Generated_Source\PSoC4/CYBLE_eventHandler.c ****                 else if(0u != (cyBle_eventHandlerFlag & CYBLE_STOP_FLAG))
1865:Generated_Source\PSoC4/CYBLE_eventHandler.c ****                 {
1866:Generated_Source\PSoC4/CYBLE_eventHandler.c ****                     CyBle_SetState(CYBLE_STATE_DISCONNECTED);  
1867:Generated_Source\PSoC4/CYBLE_eventHandler.c ****                     cyBle_eventHandlerFlag &= (uint8)~CYBLE_STOP_FLAG;
1868:Generated_Source\PSoC4/CYBLE_eventHandler.c ****                 }
1869:Generated_Source\PSoC4/CYBLE_eventHandler.c ****                 else /* Following event indicates that advertising has been stopped */
1870:Generated_Source\PSoC4/CYBLE_eventHandler.c ****                 {
1871:Generated_Source\PSoC4/CYBLE_eventHandler.c ****                     if(CyBle_GetState() == CYBLE_STATE_ADVERTISING)
1872:Generated_Source\PSoC4/CYBLE_eventHandler.c ****                     {
1873:Generated_Source\PSoC4/CYBLE_eventHandler.c ****                         CyBle_SetState(CYBLE_STATE_DISCONNECTED);
1874:Generated_Source\PSoC4/CYBLE_eventHandler.c ****                     #if ((CYBLE_SLOW_ADV_ENABLED != 0u) && (CYBLE_FAST_ADV_TIMEOUT != 0u))
1875:Generated_Source\PSoC4/CYBLE_eventHandler.c ****                         if(cyBle_advertisingIntervalType == CYBLE_ADVERTISING_FAST)
1876:Generated_Source\PSoC4/CYBLE_eventHandler.c ****                         {
1877:Generated_Source\PSoC4/CYBLE_eventHandler.c ****                             /* When fast advertising time out occur: Start slow advertising */
1878:Generated_Source\PSoC4/CYBLE_eventHandler.c ****                             if(CyBle_GappStartAdvertisement(CYBLE_ADVERTISING_SLOW) == CYBLE_ERROR_
1879:Generated_Source\PSoC4/CYBLE_eventHandler.c ****                             {
1880:Generated_Source\PSoC4/CYBLE_eventHandler.c ****                                 CyBle_SetState(CYBLE_STATE_ADVERTISING);
1881:Generated_Source\PSoC4/CYBLE_eventHandler.c ****                             }
1882:Generated_Source\PSoC4/CYBLE_eventHandler.c ****                         }
1883:Generated_Source\PSoC4/CYBLE_eventHandler.c ****                     #endif /* CYBLE_SLOW_ADV_ENABLED */
1884:Generated_Source\PSoC4/CYBLE_eventHandler.c ****                     }
1885:Generated_Source\PSoC4/CYBLE_eventHandler.c ****                 }
1886:Generated_Source\PSoC4/CYBLE_eventHandler.c ****             }
ARM GAS  C:\Users\LIAMSA~1\AppData\Local\Temp\cc7Yswwd.s 			page 51


1887:Generated_Source\PSoC4/CYBLE_eventHandler.c ****             break;
 959              		.loc 1 1887 0
 960 024c 5EE0     		b	.L64
 961              	.L56:
1864:Generated_Source\PSoC4/CYBLE_eventHandler.c ****                 {
 962              		.loc 1 1864 0
 963 024e 3D4B     		ldr	r3, .L66
 964 0250 1B78     		ldrb	r3, [r3]
 965 0252 DBB2     		uxtb	r3, r3
 966 0254 1A00     		movs	r2, r3
 967 0256 0823     		movs	r3, #8
 968 0258 1340     		ands	r3, r2
 969 025a 0BD0     		beq	.L57
1866:Generated_Source\PSoC4/CYBLE_eventHandler.c ****                     cyBle_eventHandlerFlag &= (uint8)~CYBLE_STOP_FLAG;
 970              		.loc 1 1866 0
 971 025c 414B     		ldr	r3, .L66+32
 972 025e 0422     		movs	r2, #4
 973 0260 1A70     		strb	r2, [r3]
1867:Generated_Source\PSoC4/CYBLE_eventHandler.c ****                 }
 974              		.loc 1 1867 0
 975 0262 384B     		ldr	r3, .L66
 976 0264 1B78     		ldrb	r3, [r3]
 977 0266 DBB2     		uxtb	r3, r3
 978 0268 0822     		movs	r2, #8
 979 026a 9343     		bics	r3, r2
 980 026c DAB2     		uxtb	r2, r3
 981 026e 354B     		ldr	r3, .L66
 982 0270 1A70     		strb	r2, [r3]
 983              		.loc 1 1887 0
 984 0272 4BE0     		b	.L64
 985              	.L57:
1871:Generated_Source\PSoC4/CYBLE_eventHandler.c ****                     {
 986              		.loc 1 1871 0
 987 0274 3B4B     		ldr	r3, .L66+32
 988 0276 1B78     		ldrb	r3, [r3]
 989 0278 032B     		cmp	r3, #3
 990 027a 47D1     		bne	.L64
1873:Generated_Source\PSoC4/CYBLE_eventHandler.c ****                     #if ((CYBLE_SLOW_ADV_ENABLED != 0u) && (CYBLE_FAST_ADV_TIMEOUT != 0u))
 991              		.loc 1 1873 0
 992 027c 394B     		ldr	r3, .L66+32
 993 027e 0422     		movs	r2, #4
 994 0280 1A70     		strb	r2, [r3]
 995              		.loc 1 1887 0
 996 0282 43E0     		b	.L64
 997              	.L45:
1888:Generated_Source\PSoC4/CYBLE_eventHandler.c ****         #endif /* CYBLE_GAP_ROLE_PERIPHERAL || CYBLE_GAP_ROLE_BROADCASTER */
1889:Generated_Source\PSoC4/CYBLE_eventHandler.c ****         
1890:Generated_Source\PSoC4/CYBLE_eventHandler.c ****         #if(CYBLE_GAP_ROLE_CENTRAL || CYBLE_GAP_ROLE_OBSERVER)    
1891:Generated_Source\PSoC4/CYBLE_eventHandler.c ****         case CYBLE_EVT_GAPC_SCAN_START_STOP:
1892:Generated_Source\PSoC4/CYBLE_eventHandler.c ****             #ifdef CYBLE_CPS_CLIENT
1893:Generated_Source\PSoC4/CYBLE_eventHandler.c ****                 CyBle_CpscScanStartStopEventHandler();
1894:Generated_Source\PSoC4/CYBLE_eventHandler.c ****             #endif /* CYBLE_CPS_CLIENT */
1895:Generated_Source\PSoC4/CYBLE_eventHandler.c ****             
1896:Generated_Source\PSoC4/CYBLE_eventHandler.c ****             if((CYBLE_STATE_CONNECTED != CyBle_GetState()) && ((cyBle_eventHandlerFlag & CYBLE_CALL
1897:Generated_Source\PSoC4/CYBLE_eventHandler.c ****             {
1898:Generated_Source\PSoC4/CYBLE_eventHandler.c ****                 /* After CyBle_GapcStartScan first event indicates that scanning has been started *
1899:Generated_Source\PSoC4/CYBLE_eventHandler.c ****                 if(0u != (cyBle_eventHandlerFlag & CYBLE_START_FLAG))
ARM GAS  C:\Users\LIAMSA~1\AppData\Local\Temp\cc7Yswwd.s 			page 52


1900:Generated_Source\PSoC4/CYBLE_eventHandler.c ****                 {
1901:Generated_Source\PSoC4/CYBLE_eventHandler.c ****                     CyBle_SetState(CYBLE_STATE_SCANNING);
1902:Generated_Source\PSoC4/CYBLE_eventHandler.c ****                     cyBle_eventHandlerFlag &= (uint8)~CYBLE_START_FLAG;
1903:Generated_Source\PSoC4/CYBLE_eventHandler.c ****                 }
1904:Generated_Source\PSoC4/CYBLE_eventHandler.c ****                 /* When application initiated stop scanning */
1905:Generated_Source\PSoC4/CYBLE_eventHandler.c ****                 else if(0u != (cyBle_eventHandlerFlag & CYBLE_STOP_FLAG))
1906:Generated_Source\PSoC4/CYBLE_eventHandler.c ****                 {
1907:Generated_Source\PSoC4/CYBLE_eventHandler.c ****                     CyBle_SetState(CYBLE_STATE_DISCONNECTED);  
1908:Generated_Source\PSoC4/CYBLE_eventHandler.c ****                     cyBle_eventHandlerFlag &= (uint8)~CYBLE_STOP_FLAG;
1909:Generated_Source\PSoC4/CYBLE_eventHandler.c ****                 }
1910:Generated_Source\PSoC4/CYBLE_eventHandler.c ****                 else /* Following event indicates that scanning has been stopped by stack */
1911:Generated_Source\PSoC4/CYBLE_eventHandler.c ****                 {
1912:Generated_Source\PSoC4/CYBLE_eventHandler.c ****                     if(CyBle_GetState() == CYBLE_STATE_SCANNING)
1913:Generated_Source\PSoC4/CYBLE_eventHandler.c ****                     {
1914:Generated_Source\PSoC4/CYBLE_eventHandler.c ****                         CyBle_SetState(CYBLE_STATE_DISCONNECTED);  
1915:Generated_Source\PSoC4/CYBLE_eventHandler.c ****                     #if ((CYBLE_SLOW_SCAN_ENABLED != 0u) && (CYBLE_FAST_SCAN_TIMEOUT != 0u))
1916:Generated_Source\PSoC4/CYBLE_eventHandler.c ****                         if(cyBle_scanningIntervalType == CYBLE_SCANNING_FAST)
1917:Generated_Source\PSoC4/CYBLE_eventHandler.c ****                         {
1918:Generated_Source\PSoC4/CYBLE_eventHandler.c ****                             /* When fast scanning time out occur: Start slow scanning */
1919:Generated_Source\PSoC4/CYBLE_eventHandler.c ****                             if(CyBle_GapcStartScan(CYBLE_SCANNING_SLOW) == CYBLE_ERROR_OK)
1920:Generated_Source\PSoC4/CYBLE_eventHandler.c ****                             {
1921:Generated_Source\PSoC4/CYBLE_eventHandler.c ****                                 CyBle_SetState(CYBLE_STATE_SCANNING);
1922:Generated_Source\PSoC4/CYBLE_eventHandler.c ****                             }
1923:Generated_Source\PSoC4/CYBLE_eventHandler.c ****                         }
1924:Generated_Source\PSoC4/CYBLE_eventHandler.c ****                     #endif /* CYBLE_SLOW_SCAN_ENABLED */
1925:Generated_Source\PSoC4/CYBLE_eventHandler.c ****                     }
1926:Generated_Source\PSoC4/CYBLE_eventHandler.c ****                 }
1927:Generated_Source\PSoC4/CYBLE_eventHandler.c ****             }
1928:Generated_Source\PSoC4/CYBLE_eventHandler.c ****             break;
1929:Generated_Source\PSoC4/CYBLE_eventHandler.c ****         #endif /* CYBLE_GAP_ROLE_CENTRAL || CYBLE_GAP_ROLE_OBSERVER */
1930:Generated_Source\PSoC4/CYBLE_eventHandler.c **** 
1931:Generated_Source\PSoC4/CYBLE_eventHandler.c ****         /**********************************************************
1932:Generated_Source\PSoC4/CYBLE_eventHandler.c ****         * L2AP events 
1933:Generated_Source\PSoC4/CYBLE_eventHandler.c ****         ************************************************************/
1934:Generated_Source\PSoC4/CYBLE_eventHandler.c ****         case CYBLE_EVT_L2CAP_CONN_PARAM_UPDATE_RSP:
1935:Generated_Source\PSoC4/CYBLE_eventHandler.c ****             CyBle_L2Cap_ConnParamUpdateRspEventHandler(*(uint16 *)eventParam);
 998              		.loc 1 1935 0
 999 0284 3B68     		ldr	r3, [r7]
 1000 0286 1B88     		ldrh	r3, [r3]
 1001 0288 1800     		movs	r0, r3
 1002 028a FFF7FEFF 		bl	CyBle_L2Cap_ConnParamUpdateRspEventHandler
1936:Generated_Source\PSoC4/CYBLE_eventHandler.c ****             break;
 1003              		.loc 1 1936 0
 1004 028e 3EE0     		b	.L49
 1005              	.L36:
1937:Generated_Source\PSoC4/CYBLE_eventHandler.c ****         
1938:Generated_Source\PSoC4/CYBLE_eventHandler.c ****         /**********************************************************
1939:Generated_Source\PSoC4/CYBLE_eventHandler.c ****         * GATT events
1940:Generated_Source\PSoC4/CYBLE_eventHandler.c ****         ************************************************************/        
1941:Generated_Source\PSoC4/CYBLE_eventHandler.c ****         case CYBLE_EVT_GATT_CONNECT_IND:
1942:Generated_Source\PSoC4/CYBLE_eventHandler.c ****             cyBle_connHandle = *(CYBLE_CONN_HANDLE_T *)eventParam;
 1006              		.loc 1 1942 0
 1007 0290 394A     		ldr	r2, .L66+52
 1008 0292 3B68     		ldr	r3, [r7]
 1009 0294 1000     		movs	r0, r2
 1010 0296 1900     		movs	r1, r3
 1011 0298 0223     		movs	r3, #2
ARM GAS  C:\Users\LIAMSA~1\AppData\Local\Temp\cc7Yswwd.s 			page 53


 1012 029a 1A00     		movs	r2, r3
 1013 029c FFF7FEFF 		bl	memcpy
1943:Generated_Source\PSoC4/CYBLE_eventHandler.c ****             cyBle_busyStatus = CYBLE_STACK_STATE_FREE;
 1014              		.loc 1 1943 0
 1015 02a0 314B     		ldr	r3, .L66+36
 1016 02a2 0022     		movs	r2, #0
 1017 02a4 1A70     		strb	r2, [r3]
1944:Generated_Source\PSoC4/CYBLE_eventHandler.c ****             
1945:Generated_Source\PSoC4/CYBLE_eventHandler.c ****         #if((CYBLE_GATT_ROLE_SERVER) && (CYBLE_GATT_DB_CCCD_COUNT != 0u) && \
1946:Generated_Source\PSoC4/CYBLE_eventHandler.c ****             (CYBLE_BONDING_REQUIREMENT == CYBLE_BONDING_YES))
1947:Generated_Source\PSoC4/CYBLE_eventHandler.c ****             /* Init CCCD values in RAM when bonding is enabled */
1948:Generated_Source\PSoC4/CYBLE_eventHandler.c ****         	(void) memcpy (cyBle_attValuesCCCD, cyBle_flashStorage.attValuesCCCDFlashMemory[cyBle_conn
1949:Generated_Source\PSoC4/CYBLE_eventHandler.c ****                             CYBLE_GATT_DB_CCCD_COUNT);
1950:Generated_Source\PSoC4/CYBLE_eventHandler.c ****         #endif /* CYBLE_GATT_ROLE_SERVER && (CYBLE_BONDING_REQUIREMENT == CYBLE_BONDING_YES) */
1951:Generated_Source\PSoC4/CYBLE_eventHandler.c ****         
1952:Generated_Source\PSoC4/CYBLE_eventHandler.c ****         #if (CYBLE_GATT_ROLE_CLIENT)
1953:Generated_Source\PSoC4/CYBLE_eventHandler.c ****             CyBle_SetClientState(CYBLE_CLIENT_STATE_CONNECTED);
1954:Generated_Source\PSoC4/CYBLE_eventHandler.c ****         #endif /* CYBLE_GATT_ROLE_CLIENT */
1955:Generated_Source\PSoC4/CYBLE_eventHandler.c ****         
1956:Generated_Source\PSoC4/CYBLE_eventHandler.c ****             CyBle_GattConnectReqHandler();
 1018              		.loc 1 1956 0
 1019 02a6 FFF7FEFF 		bl	CyBle_GattConnectReqHandler
1957:Generated_Source\PSoC4/CYBLE_eventHandler.c ****             break;
 1020              		.loc 1 1957 0
 1021 02aa 30E0     		b	.L49
 1022              	.L37:
1958:Generated_Source\PSoC4/CYBLE_eventHandler.c **** 
1959:Generated_Source\PSoC4/CYBLE_eventHandler.c ****         case CYBLE_EVT_GATT_DISCONNECT_IND:
1960:Generated_Source\PSoC4/CYBLE_eventHandler.c ****             CyBle_GattDisconnectEventHandler();
 1023              		.loc 1 1960 0
 1024 02ac FFF7FEFF 		bl	CyBle_GattDisconnectEventHandler
1961:Generated_Source\PSoC4/CYBLE_eventHandler.c ****             break;
 1025              		.loc 1 1961 0
 1026 02b0 2DE0     		b	.L49
 1027              	.L38:
 1028              	.LBB9:
1962:Generated_Source\PSoC4/CYBLE_eventHandler.c **** 
1963:Generated_Source\PSoC4/CYBLE_eventHandler.c ****     #if((CYBLE_GATT_ROLE_SERVER) || (CYBLE_GATT_ROLE_CLIENT))
1964:Generated_Source\PSoC4/CYBLE_eventHandler.c ****         case CYBLE_EVT_GATTS_XCNHG_MTU_REQ:
1965:Generated_Source\PSoC4/CYBLE_eventHandler.c ****             {
1966:Generated_Source\PSoC4/CYBLE_eventHandler.c ****                 uint16 cyBle_mtuSize;
1967:Generated_Source\PSoC4/CYBLE_eventHandler.c ****                 if(CYBLE_GATT_MTU > ((CYBLE_GATT_XCHG_MTU_PARAM_T *)eventParam)->mtu)
 1029              		.loc 1 1967 0
 1030 02b2 3B68     		ldr	r3, [r7]
 1031 02b4 5B88     		ldrh	r3, [r3, #2]
 1032 02b6 162B     		cmp	r3, #22
 1033 02b8 05D8     		bhi	.L58
1968:Generated_Source\PSoC4/CYBLE_eventHandler.c ****                 {
1969:Generated_Source\PSoC4/CYBLE_eventHandler.c ****                     cyBle_mtuSize = ((CYBLE_GATT_XCHG_MTU_PARAM_T *)eventParam)->mtu;
 1034              		.loc 1 1969 0
 1035 02ba 1E23     		movs	r3, #30
 1036 02bc FB18     		adds	r3, r7, r3
 1037 02be 3A68     		ldr	r2, [r7]
 1038 02c0 5288     		ldrh	r2, [r2, #2]
 1039 02c2 1A80     		strh	r2, [r3]
 1040 02c4 03E0     		b	.L59
 1041              	.L58:
ARM GAS  C:\Users\LIAMSA~1\AppData\Local\Temp\cc7Yswwd.s 			page 54


1970:Generated_Source\PSoC4/CYBLE_eventHandler.c ****                 }
1971:Generated_Source\PSoC4/CYBLE_eventHandler.c ****                 else
1972:Generated_Source\PSoC4/CYBLE_eventHandler.c ****                 {
1973:Generated_Source\PSoC4/CYBLE_eventHandler.c ****                     cyBle_mtuSize = CYBLE_GATT_MTU;
 1042              		.loc 1 1973 0
 1043 02c6 1E23     		movs	r3, #30
 1044 02c8 FB18     		adds	r3, r7, r3
 1045 02ca 1722     		movs	r2, #23
 1046 02cc 1A80     		strh	r2, [r3]
 1047              	.L59:
1974:Generated_Source\PSoC4/CYBLE_eventHandler.c ****                 }
1975:Generated_Source\PSoC4/CYBLE_eventHandler.c ****                 (void)CyBle_GattsExchangeMtuRsp(((CYBLE_GATT_XCHG_MTU_PARAM_T *)eventParam)->connHa
 1048              		.loc 1 1975 0
 1049 02ce 1E23     		movs	r3, #30
 1050 02d0 FB18     		adds	r3, r7, r3
 1051 02d2 1988     		ldrh	r1, [r3]
 1052 02d4 3B68     		ldr	r3, [r7]
 1053 02d6 1A88     		ldrh	r2, [r3]
 1054 02d8 0023     		movs	r3, #0
 1055 02da 1204     		lsls	r2, r2, #16
 1056 02dc 120C     		lsrs	r2, r2, #16
 1057 02de 1B0C     		lsrs	r3, r3, #16
 1058 02e0 1B04     		lsls	r3, r3, #16
 1059 02e2 1343     		orrs	r3, r2
 1060 02e4 1800     		movs	r0, r3
 1061 02e6 FFF7FEFF 		bl	CyBle_GattsExchangeMtuRsp
 1062              	.LBE9:
1976:Generated_Source\PSoC4/CYBLE_eventHandler.c ****             }
1977:Generated_Source\PSoC4/CYBLE_eventHandler.c ****             break;
 1063              		.loc 1 1977 0
 1064 02ea 10E0     		b	.L49
 1065              	.L39:
1978:Generated_Source\PSoC4/CYBLE_eventHandler.c ****     #endif /* CYBLE_GATT_ROLE_SERVER || CYBLE_GATT_ROLE_CLIENT */
1979:Generated_Source\PSoC4/CYBLE_eventHandler.c ****     
1980:Generated_Source\PSoC4/CYBLE_eventHandler.c ****     #if (CYBLE_GATT_ROLE_CLIENT)
1981:Generated_Source\PSoC4/CYBLE_eventHandler.c ****         case CYBLE_EVT_GAPC_SCAN_PROGRESS_RESULT:
1982:Generated_Source\PSoC4/CYBLE_eventHandler.c ****         #ifdef CYBLE_CPS_CLIENT
1983:Generated_Source\PSoC4/CYBLE_eventHandler.c ****             CyBle_CpscScanProcessEventHandler((CYBLE_GAPC_ADV_REPORT_T *)eventParam);
1984:Generated_Source\PSoC4/CYBLE_eventHandler.c ****         #endif /* CYBLE_CPS_CLIENT */
1985:Generated_Source\PSoC4/CYBLE_eventHandler.c ****             break;
1986:Generated_Source\PSoC4/CYBLE_eventHandler.c ****     #endif /* CYBLE_GATT_ROLE_CLIENT */
1987:Generated_Source\PSoC4/CYBLE_eventHandler.c **** 
1988:Generated_Source\PSoC4/CYBLE_eventHandler.c ****     #if(CYBLE_GATT_ROLE_SERVER)
1989:Generated_Source\PSoC4/CYBLE_eventHandler.c ****         case CYBLE_EVT_GATTS_WRITE_REQ:
1990:Generated_Source\PSoC4/CYBLE_eventHandler.c ****             CyBle_WriteReqHandler((CYBLE_GATTS_WRITE_REQ_PARAM_T *)eventParam);
 1066              		.loc 1 1990 0
 1067 02ec 3B68     		ldr	r3, [r7]
 1068 02ee 1800     		movs	r0, r3
 1069 02f0 FFF7FEFF 		bl	CyBle_WriteReqHandler
1991:Generated_Source\PSoC4/CYBLE_eventHandler.c ****             break;
 1070              		.loc 1 1991 0
 1071 02f4 0BE0     		b	.L49
 1072              	.L43:
1992:Generated_Source\PSoC4/CYBLE_eventHandler.c **** 
1993:Generated_Source\PSoC4/CYBLE_eventHandler.c ****         case CYBLE_EVT_GATTS_WRITE_CMD_REQ:
1994:Generated_Source\PSoC4/CYBLE_eventHandler.c ****         #ifdef CYBLE_AIOS_SERVER
1995:Generated_Source\PSoC4/CYBLE_eventHandler.c ****             if((cyBle_eventHandlerFlag & CYBLE_CALLBACK) != 0u)
ARM GAS  C:\Users\LIAMSA~1\AppData\Local\Temp\cc7Yswwd.s 			page 55


1996:Generated_Source\PSoC4/CYBLE_eventHandler.c ****             {
1997:Generated_Source\PSoC4/CYBLE_eventHandler.c ****                 (void)CyBle_AiossWriteEventHandler((CYBLE_GATTS_WRITE_REQ_PARAM_T *)eventParam);
1998:Generated_Source\PSoC4/CYBLE_eventHandler.c ****             }
1999:Generated_Source\PSoC4/CYBLE_eventHandler.c ****         #endif /* CYBLE_AIOS_SERVER */
2000:Generated_Source\PSoC4/CYBLE_eventHandler.c ****         #ifdef CYBLE_IAS_SERVER
2001:Generated_Source\PSoC4/CYBLE_eventHandler.c ****             if((cyBle_eventHandlerFlag & CYBLE_CALLBACK) != 0u)
2002:Generated_Source\PSoC4/CYBLE_eventHandler.c ****             {
2003:Generated_Source\PSoC4/CYBLE_eventHandler.c ****                 (void)CyBle_IassWriteCmdEventHandler((CYBLE_GATTS_WRITE_REQ_PARAM_T *)eventParam);
2004:Generated_Source\PSoC4/CYBLE_eventHandler.c ****             }
2005:Generated_Source\PSoC4/CYBLE_eventHandler.c ****         #endif /* CYBLE_IAS_SERVER */
2006:Generated_Source\PSoC4/CYBLE_eventHandler.c ****         #ifdef CYBLE_IPS_SERVER
2007:Generated_Source\PSoC4/CYBLE_eventHandler.c ****             if((cyBle_eventHandlerFlag & CYBLE_CALLBACK) != 0u)
2008:Generated_Source\PSoC4/CYBLE_eventHandler.c ****             {
2009:Generated_Source\PSoC4/CYBLE_eventHandler.c ****                 (void)CyBle_IpssWriteCmdEventHandler((CYBLE_GATTS_WRITE_REQ_PARAM_T *)eventParam);
2010:Generated_Source\PSoC4/CYBLE_eventHandler.c ****             }
2011:Generated_Source\PSoC4/CYBLE_eventHandler.c ****         #endif /* CYBLE_IPS_SERVER */
2012:Generated_Source\PSoC4/CYBLE_eventHandler.c ****         #ifdef CYBLE_HIDS_SERVER
2013:Generated_Source\PSoC4/CYBLE_eventHandler.c ****             if((cyBle_eventHandlerFlag & CYBLE_CALLBACK) != 0u)
2014:Generated_Source\PSoC4/CYBLE_eventHandler.c ****             {
2015:Generated_Source\PSoC4/CYBLE_eventHandler.c ****                 (void)CyBle_HidssWriteEventHandler((CYBLE_GATTS_WRITE_REQ_PARAM_T *)eventParam);
2016:Generated_Source\PSoC4/CYBLE_eventHandler.c ****             }
2017:Generated_Source\PSoC4/CYBLE_eventHandler.c ****         #endif /* CYBLE_HIDS_SERVER */
2018:Generated_Source\PSoC4/CYBLE_eventHandler.c ****         #ifdef CYBLE_PASS_SERVER
2019:Generated_Source\PSoC4/CYBLE_eventHandler.c ****             if((cyBle_eventHandlerFlag & CYBLE_CALLBACK) != 0u)
2020:Generated_Source\PSoC4/CYBLE_eventHandler.c ****             {
2021:Generated_Source\PSoC4/CYBLE_eventHandler.c ****                 (void)CyBle_PasssWriteCmdEventHandler((CYBLE_GATTS_WRITE_REQ_PARAM_T *)eventParam);
2022:Generated_Source\PSoC4/CYBLE_eventHandler.c ****             }
2023:Generated_Source\PSoC4/CYBLE_eventHandler.c ****         #endif /* CYBLE_PASS_SERVER */
2024:Generated_Source\PSoC4/CYBLE_eventHandler.c ****         #ifdef CYBLE_RTUS_SERVER
2025:Generated_Source\PSoC4/CYBLE_eventHandler.c ****             if((cyBle_eventHandlerFlag & CYBLE_CALLBACK) != 0u)
2026:Generated_Source\PSoC4/CYBLE_eventHandler.c ****             {
2027:Generated_Source\PSoC4/CYBLE_eventHandler.c ****                 (void)CyBle_RtussWriteCmdEventHandler((CYBLE_GATTS_WRITE_REQ_PARAM_T *)eventParam);
2028:Generated_Source\PSoC4/CYBLE_eventHandler.c ****             }
2029:Generated_Source\PSoC4/CYBLE_eventHandler.c ****         #endif /* CYBLE_RTUS_SERVER */
2030:Generated_Source\PSoC4/CYBLE_eventHandler.c ****         #ifdef CYBLE_SCPS_SERVER
2031:Generated_Source\PSoC4/CYBLE_eventHandler.c ****             if((cyBle_eventHandlerFlag & CYBLE_CALLBACK) != 0u)
2032:Generated_Source\PSoC4/CYBLE_eventHandler.c ****             {
2033:Generated_Source\PSoC4/CYBLE_eventHandler.c ****                 (void)CyBle_ScpssWriteEventHandler((CYBLE_GATTS_WRITE_REQ_PARAM_T *)eventParam);
2034:Generated_Source\PSoC4/CYBLE_eventHandler.c ****             }
2035:Generated_Source\PSoC4/CYBLE_eventHandler.c ****         #endif /* CYBLE_SCPS_SERVER */
2036:Generated_Source\PSoC4/CYBLE_eventHandler.c ****             break;
2037:Generated_Source\PSoC4/CYBLE_eventHandler.c ****         
2038:Generated_Source\PSoC4/CYBLE_eventHandler.c ****         case CYBLE_EVT_GATTS_PREP_WRITE_REQ:
2039:Generated_Source\PSoC4/CYBLE_eventHandler.c ****         #ifdef CYBLE_BMS_SERVER
2040:Generated_Source\PSoC4/CYBLE_eventHandler.c ****             CyBle_BmssPrepareWriteRequestEventHandler((CYBLE_GATTS_PREP_WRITE_REQ_PARAM_T *)eventPa
2041:Generated_Source\PSoC4/CYBLE_eventHandler.c ****         #endif /* CYBLE_BMS_SERVER */
2042:Generated_Source\PSoC4/CYBLE_eventHandler.c ****         #ifdef CYBLE_BTS_SERVER
2043:Generated_Source\PSoC4/CYBLE_eventHandler.c ****             if((cyBle_eventHandlerFlag & CYBLE_CALLBACK) != 0u)
2044:Generated_Source\PSoC4/CYBLE_eventHandler.c ****             {
2045:Generated_Source\PSoC4/CYBLE_eventHandler.c ****                 CyBle_BtssPrepareWriteRequestEventHandler((CYBLE_GATTS_PREP_WRITE_REQ_PARAM_T *)eve
2046:Generated_Source\PSoC4/CYBLE_eventHandler.c ****             }
2047:Generated_Source\PSoC4/CYBLE_eventHandler.c ****         #endif /* CYBLE_BTS_SERVER */
2048:Generated_Source\PSoC4/CYBLE_eventHandler.c ****         #ifdef CYBLE_ESS_SERVER
2049:Generated_Source\PSoC4/CYBLE_eventHandler.c ****             if((cyBle_eventHandlerFlag & CYBLE_CALLBACK) != 0u)
2050:Generated_Source\PSoC4/CYBLE_eventHandler.c ****             {
2051:Generated_Source\PSoC4/CYBLE_eventHandler.c ****                 CyBle_EsssPrepareWriteRequestEventHandler((CYBLE_GATTS_PREP_WRITE_REQ_PARAM_T *)eve
2052:Generated_Source\PSoC4/CYBLE_eventHandler.c ****             }
ARM GAS  C:\Users\LIAMSA~1\AppData\Local\Temp\cc7Yswwd.s 			page 56


2053:Generated_Source\PSoC4/CYBLE_eventHandler.c ****         #endif /* CYBLE_ESS_SERVER */
2054:Generated_Source\PSoC4/CYBLE_eventHandler.c ****         #ifdef CYBLE_HPS_SERVER
2055:Generated_Source\PSoC4/CYBLE_eventHandler.c ****             if((cyBle_eventHandlerFlag & CYBLE_CALLBACK) != 0u)
2056:Generated_Source\PSoC4/CYBLE_eventHandler.c ****             {
2057:Generated_Source\PSoC4/CYBLE_eventHandler.c ****                 CyBle_HpssPrepareWriteRequestEventHandler((CYBLE_GATTS_PREP_WRITE_REQ_PARAM_T *)eve
2058:Generated_Source\PSoC4/CYBLE_eventHandler.c ****             }
2059:Generated_Source\PSoC4/CYBLE_eventHandler.c ****         #endif /* CYBLE_HPS_SERVER */
2060:Generated_Source\PSoC4/CYBLE_eventHandler.c ****         #ifdef CYBLE_IPS_SERVER
2061:Generated_Source\PSoC4/CYBLE_eventHandler.c ****             if((cyBle_eventHandlerFlag & CYBLE_CALLBACK) != 0u)
2062:Generated_Source\PSoC4/CYBLE_eventHandler.c ****             {
2063:Generated_Source\PSoC4/CYBLE_eventHandler.c ****                 CyBle_IpssPrepareWriteRequestEventHandler((CYBLE_GATTS_PREP_WRITE_REQ_PARAM_T *)eve
2064:Generated_Source\PSoC4/CYBLE_eventHandler.c ****             }
2065:Generated_Source\PSoC4/CYBLE_eventHandler.c ****         #endif /* CYBLE_IPS_SERVER */
2066:Generated_Source\PSoC4/CYBLE_eventHandler.c ****         #ifdef CYBLE_OTS_SERVER
2067:Generated_Source\PSoC4/CYBLE_eventHandler.c ****             if((cyBle_eventHandlerFlag & CYBLE_CALLBACK) != 0u)
2068:Generated_Source\PSoC4/CYBLE_eventHandler.c ****             {
2069:Generated_Source\PSoC4/CYBLE_eventHandler.c ****                 CyBle_OtssPrepareWriteRequestEventHandler((CYBLE_GATTS_PREP_WRITE_REQ_PARAM_T *)eve
2070:Generated_Source\PSoC4/CYBLE_eventHandler.c ****             }
2071:Generated_Source\PSoC4/CYBLE_eventHandler.c ****         #endif /* CYBLE_OTS_SERVER */
2072:Generated_Source\PSoC4/CYBLE_eventHandler.c ****         #ifdef CYBLE_UDS_SERVER
2073:Generated_Source\PSoC4/CYBLE_eventHandler.c ****             if((cyBle_eventHandlerFlag & CYBLE_CALLBACK) != 0u)
2074:Generated_Source\PSoC4/CYBLE_eventHandler.c ****             {
2075:Generated_Source\PSoC4/CYBLE_eventHandler.c ****                 CyBle_UdssPrepareWriteRequestEventHandler((CYBLE_GATTS_PREP_WRITE_REQ_PARAM_T *)eve
2076:Generated_Source\PSoC4/CYBLE_eventHandler.c ****             }
2077:Generated_Source\PSoC4/CYBLE_eventHandler.c ****         #endif /* CYBLE_UDS_SERVER */
2078:Generated_Source\PSoC4/CYBLE_eventHandler.c ****             break;
2079:Generated_Source\PSoC4/CYBLE_eventHandler.c **** 
2080:Generated_Source\PSoC4/CYBLE_eventHandler.c ****         case CYBLE_EVT_GATTS_EXEC_WRITE_REQ:
2081:Generated_Source\PSoC4/CYBLE_eventHandler.c ****         #ifdef CYBLE_BMS_SERVER
2082:Generated_Source\PSoC4/CYBLE_eventHandler.c ****             CyBle_BmssExecuteWriteRequestEventHandler((CYBLE_GATTS_EXEC_WRITE_REQ_T *)eventParam);
2083:Generated_Source\PSoC4/CYBLE_eventHandler.c ****         #endif /* CYBLE_BMS_SERVER */
2084:Generated_Source\PSoC4/CYBLE_eventHandler.c ****         #ifdef CYBLE_BTS_SERVER
2085:Generated_Source\PSoC4/CYBLE_eventHandler.c ****             CyBle_BtssExecuteWriteRequestEventHandler((CYBLE_GATTS_EXEC_WRITE_REQ_T *)eventParam);
2086:Generated_Source\PSoC4/CYBLE_eventHandler.c ****         #endif /* CYBLE_BTS_SERVER */
2087:Generated_Source\PSoC4/CYBLE_eventHandler.c ****         #ifdef CYBLE_ESS_SERVER
2088:Generated_Source\PSoC4/CYBLE_eventHandler.c ****             CyBle_EsssExecuteWriteRequestEventHandler((CYBLE_GATTS_EXEC_WRITE_REQ_T *)eventParam);
2089:Generated_Source\PSoC4/CYBLE_eventHandler.c ****         #endif /* CYBLE_ESS_SERVER */
2090:Generated_Source\PSoC4/CYBLE_eventHandler.c ****         #ifdef CYBLE_HPS_SERVER
2091:Generated_Source\PSoC4/CYBLE_eventHandler.c ****             CyBle_HpssExecuteWriteRequestEventHandler((CYBLE_GATTS_EXEC_WRITE_REQ_T *)eventParam);
2092:Generated_Source\PSoC4/CYBLE_eventHandler.c ****         #endif /* CYBLE_HPS_SERVER */
2093:Generated_Source\PSoC4/CYBLE_eventHandler.c ****         #ifdef CYBLE_IPS_SERVER
2094:Generated_Source\PSoC4/CYBLE_eventHandler.c ****             CyBle_IpssExecuteWriteRequestEventHandler((CYBLE_GATTS_EXEC_WRITE_REQ_T *)eventParam);
2095:Generated_Source\PSoC4/CYBLE_eventHandler.c ****         #endif /* CYBLE_IPS_SERVER */
2096:Generated_Source\PSoC4/CYBLE_eventHandler.c ****         #ifdef CYBLE_OTS_SERVER
2097:Generated_Source\PSoC4/CYBLE_eventHandler.c ****             CyBle_OtssExecuteWriteRequestEventHandler((CYBLE_GATTS_EXEC_WRITE_REQ_T *)eventParam);
2098:Generated_Source\PSoC4/CYBLE_eventHandler.c ****         #endif /* CYBLE_OTS_SERVER */
2099:Generated_Source\PSoC4/CYBLE_eventHandler.c **** 		#ifdef CYBLE_UDS_SERVER
2100:Generated_Source\PSoC4/CYBLE_eventHandler.c ****             CyBle_UdssExecuteWriteRequestEventHandler((CYBLE_GATTS_EXEC_WRITE_REQ_T *)eventParam);
2101:Generated_Source\PSoC4/CYBLE_eventHandler.c ****         #endif /* CYBLE_UDS_SERVER */
2102:Generated_Source\PSoC4/CYBLE_eventHandler.c ****             break;
2103:Generated_Source\PSoC4/CYBLE_eventHandler.c ****         
2104:Generated_Source\PSoC4/CYBLE_eventHandler.c ****         case CYBLE_EVT_GATTS_HANDLE_VALUE_CNF:
2105:Generated_Source\PSoC4/CYBLE_eventHandler.c ****             CyBle_ValueConfirmation((CYBLE_CONN_HANDLE_T *)eventParam);
 1073              		.loc 1 2105 0
 1074 02f6 3B68     		ldr	r3, [r7]
 1075 02f8 1800     		movs	r0, r3
 1076 02fa FFF7FEFF 		bl	CyBle_ValueConfirmation
ARM GAS  C:\Users\LIAMSA~1\AppData\Local\Temp\cc7Yswwd.s 			page 57


2106:Generated_Source\PSoC4/CYBLE_eventHandler.c ****             break;
 1077              		.loc 1 2106 0
 1078 02fe 06E0     		b	.L49
 1079              	.L61:
2107:Generated_Source\PSoC4/CYBLE_eventHandler.c ****             
2108:Generated_Source\PSoC4/CYBLE_eventHandler.c ****         case CYBLE_EVT_GATTS_READ_CHAR_VAL_ACCESS_REQ:
2109:Generated_Source\PSoC4/CYBLE_eventHandler.c ****         #ifdef CYBLE_UDS_SERVER
2110:Generated_Source\PSoC4/CYBLE_eventHandler.c ****             CyBle_UdssReadRequestEventHandler((CYBLE_GATTS_CHAR_VAL_READ_REQ_T *)eventParam);
2111:Generated_Source\PSoC4/CYBLE_eventHandler.c ****         #endif /* CYBLE_UDS_SERVER */
2112:Generated_Source\PSoC4/CYBLE_eventHandler.c ****             break;
2113:Generated_Source\PSoC4/CYBLE_eventHandler.c ****             
2114:Generated_Source\PSoC4/CYBLE_eventHandler.c ****     #endif /* CYBLE_GATT_ROLE_SERVER */
2115:Generated_Source\PSoC4/CYBLE_eventHandler.c **** 
2116:Generated_Source\PSoC4/CYBLE_eventHandler.c ****     #if (CYBLE_GATT_ROLE_CLIENT)
2117:Generated_Source\PSoC4/CYBLE_eventHandler.c ****         
2118:Generated_Source\PSoC4/CYBLE_eventHandler.c ****         case CYBLE_EVT_GATTC_READ_BY_GROUP_TYPE_RSP:
2119:Generated_Source\PSoC4/CYBLE_eventHandler.c ****             CyBle_ReadByGroupEventHandler((CYBLE_GATTC_READ_BY_GRP_RSP_PARAM_T *)eventParam);
2120:Generated_Source\PSoC4/CYBLE_eventHandler.c ****             break;
2121:Generated_Source\PSoC4/CYBLE_eventHandler.c **** 
2122:Generated_Source\PSoC4/CYBLE_eventHandler.c ****         case CYBLE_EVT_GATTC_READ_BY_TYPE_RSP:
2123:Generated_Source\PSoC4/CYBLE_eventHandler.c ****             CyBle_ReadByTypeEventHandler((CYBLE_GATTC_READ_BY_TYPE_RSP_PARAM_T *)eventParam);
2124:Generated_Source\PSoC4/CYBLE_eventHandler.c ****             break;
2125:Generated_Source\PSoC4/CYBLE_eventHandler.c **** 
2126:Generated_Source\PSoC4/CYBLE_eventHandler.c ****         case CYBLE_EVT_GATTC_READ_BLOB_RSP:
2127:Generated_Source\PSoC4/CYBLE_eventHandler.c ****         #ifdef CYBLE_ESS_CLIENT
2128:Generated_Source\PSoC4/CYBLE_eventHandler.c ****             CyBle_EsscReadLongRespEventHandler((CYBLE_GATTC_READ_RSP_PARAM_T *)eventParam);
2129:Generated_Source\PSoC4/CYBLE_eventHandler.c ****         #endif /* CYBLE_ESS_CLIENT */
2130:Generated_Source\PSoC4/CYBLE_eventHandler.c ****         #ifdef CYBLE_HPS_CLIENT
2131:Generated_Source\PSoC4/CYBLE_eventHandler.c ****             CyBle_HpscReadLongRespEventHandler((CYBLE_GATTC_READ_RSP_PARAM_T *)eventParam);
2132:Generated_Source\PSoC4/CYBLE_eventHandler.c ****         #endif /* CYBLE_HPS_CLIENT */
2133:Generated_Source\PSoC4/CYBLE_eventHandler.c **** 		#ifdef CYBLE_IPS_CLIENT
2134:Generated_Source\PSoC4/CYBLE_eventHandler.c ****             CyBle_IpscReadLongRespEventHandler((CYBLE_GATTC_READ_RSP_PARAM_T *)eventParam);
2135:Generated_Source\PSoC4/CYBLE_eventHandler.c ****         #endif /* CYBLE_IPS_CLIENT */
2136:Generated_Source\PSoC4/CYBLE_eventHandler.c ****         #ifdef CYBLE_OTS_CLIENT
2137:Generated_Source\PSoC4/CYBLE_eventHandler.c ****             CyBle_OtscReadLongRespEventHandler((CYBLE_GATTC_READ_RSP_PARAM_T *)eventParam);
2138:Generated_Source\PSoC4/CYBLE_eventHandler.c ****         #endif /* CYBLE_OTS_CLIENT */
2139:Generated_Source\PSoC4/CYBLE_eventHandler.c ****         #ifdef CYBLE_UDS_CLIENT
2140:Generated_Source\PSoC4/CYBLE_eventHandler.c ****             if((cyBle_eventHandlerFlag & CYBLE_CALLBACK) != 0u)
2141:Generated_Source\PSoC4/CYBLE_eventHandler.c ****             {
2142:Generated_Source\PSoC4/CYBLE_eventHandler.c ****                 CyBle_UdscReadLongRespEventHandler((CYBLE_GATTC_READ_RSP_PARAM_T *)eventParam);
2143:Generated_Source\PSoC4/CYBLE_eventHandler.c ****             }
2144:Generated_Source\PSoC4/CYBLE_eventHandler.c ****         #endif /* CYBLE_UDS_CLIENT */
2145:Generated_Source\PSoC4/CYBLE_eventHandler.c ****             break;
2146:Generated_Source\PSoC4/CYBLE_eventHandler.c ****         
2147:Generated_Source\PSoC4/CYBLE_eventHandler.c ****         case CYBLE_EVT_GATTC_LONG_PROCEDURE_END:
2148:Generated_Source\PSoC4/CYBLE_eventHandler.c ****             CyBle_LongProcedureEndEventHandler();
2149:Generated_Source\PSoC4/CYBLE_eventHandler.c ****             break;
2150:Generated_Source\PSoC4/CYBLE_eventHandler.c ****         
2151:Generated_Source\PSoC4/CYBLE_eventHandler.c ****         case CYBLE_EVT_GATTC_FIND_INFO_RSP:
2152:Generated_Source\PSoC4/CYBLE_eventHandler.c ****             CyBle_FindInfoEventHandler((CYBLE_GATTC_FIND_INFO_RSP_PARAM_T *)eventParam);
2153:Generated_Source\PSoC4/CYBLE_eventHandler.c ****             break;
2154:Generated_Source\PSoC4/CYBLE_eventHandler.c **** 
2155:Generated_Source\PSoC4/CYBLE_eventHandler.c ****         case CYBLE_EVT_GATTC_ERROR_RSP:
2156:Generated_Source\PSoC4/CYBLE_eventHandler.c ****             CyBle_ErrorResponseEventHandler((CYBLE_GATTC_ERR_RSP_PARAM_T *)eventParam);
2157:Generated_Source\PSoC4/CYBLE_eventHandler.c ****             break;
2158:Generated_Source\PSoC4/CYBLE_eventHandler.c **** 
2159:Generated_Source\PSoC4/CYBLE_eventHandler.c ****         case CYBLE_EVT_GATTC_HANDLE_VALUE_NTF:
ARM GAS  C:\Users\LIAMSA~1\AppData\Local\Temp\cc7Yswwd.s 			page 58


2160:Generated_Source\PSoC4/CYBLE_eventHandler.c ****             CyBle_NotificationEventHandler((CYBLE_GATTC_HANDLE_VALUE_NTF_PARAM_T *)eventParam);
2161:Generated_Source\PSoC4/CYBLE_eventHandler.c ****             break;
2162:Generated_Source\PSoC4/CYBLE_eventHandler.c **** 
2163:Generated_Source\PSoC4/CYBLE_eventHandler.c ****         case CYBLE_EVT_GATTC_HANDLE_VALUE_IND:
2164:Generated_Source\PSoC4/CYBLE_eventHandler.c ****             CyBle_GattcIndicationEventHandler((CYBLE_GATTC_HANDLE_VALUE_IND_PARAM_T *)eventParam);
2165:Generated_Source\PSoC4/CYBLE_eventHandler.c ****             CyBle_IndicationEventHandler((CYBLE_GATTC_HANDLE_VALUE_IND_PARAM_T *)eventParam);
2166:Generated_Source\PSoC4/CYBLE_eventHandler.c ****         
2167:Generated_Source\PSoC4/CYBLE_eventHandler.c ****             /* Respond with a Handle Value Confirmation when request handled */
2168:Generated_Source\PSoC4/CYBLE_eventHandler.c ****             if((cyBle_eventHandlerFlag & CYBLE_CALLBACK) == 0u)
2169:Generated_Source\PSoC4/CYBLE_eventHandler.c ****             {
2170:Generated_Source\PSoC4/CYBLE_eventHandler.c ****                 (void)CyBle_GattcConfirmation(((CYBLE_GATTC_HANDLE_VALUE_IND_PARAM_T *)eventParam)-
2171:Generated_Source\PSoC4/CYBLE_eventHandler.c ****             }
2172:Generated_Source\PSoC4/CYBLE_eventHandler.c ****             break;
2173:Generated_Source\PSoC4/CYBLE_eventHandler.c ****         
2174:Generated_Source\PSoC4/CYBLE_eventHandler.c ****         case CYBLE_EVT_GATTC_READ_RSP:
2175:Generated_Source\PSoC4/CYBLE_eventHandler.c ****             CyBle_ReadResponseEventHandler((CYBLE_GATTC_READ_RSP_PARAM_T *)eventParam);
2176:Generated_Source\PSoC4/CYBLE_eventHandler.c ****             break;
2177:Generated_Source\PSoC4/CYBLE_eventHandler.c ****         
2178:Generated_Source\PSoC4/CYBLE_eventHandler.c ****         case CYBLE_EVT_GATTC_READ_MULTI_RSP:
2179:Generated_Source\PSoC4/CYBLE_eventHandler.c ****             CyBle_ReadMultipleResponseEventHandler((CYBLE_GATTC_READ_RSP_PARAM_T *)eventParam);
2180:Generated_Source\PSoC4/CYBLE_eventHandler.c ****             break;
2181:Generated_Source\PSoC4/CYBLE_eventHandler.c ****             
2182:Generated_Source\PSoC4/CYBLE_eventHandler.c ****         case CYBLE_EVT_GATTC_WRITE_RSP:
2183:Generated_Source\PSoC4/CYBLE_eventHandler.c ****             CyBle_GattcWriteResponseEventHandler((CYBLE_CONN_HANDLE_T *)eventParam);
2184:Generated_Source\PSoC4/CYBLE_eventHandler.c ****             break;
2185:Generated_Source\PSoC4/CYBLE_eventHandler.c ****             
2186:Generated_Source\PSoC4/CYBLE_eventHandler.c ****         case CYBLE_EVT_GATTC_EXEC_WRITE_RSP:
2187:Generated_Source\PSoC4/CYBLE_eventHandler.c ****         #ifdef CYBLE_BMS_CLIENT
2188:Generated_Source\PSoC4/CYBLE_eventHandler.c ****             CyBle_BmscExecuteWriteResponseEventHandler((CYBLE_GATTC_EXEC_WRITE_RSP_T *)eventParam);
2189:Generated_Source\PSoC4/CYBLE_eventHandler.c ****         #endif /* CYBLE_BMS_CLIENT */
2190:Generated_Source\PSoC4/CYBLE_eventHandler.c ****         #ifdef CYBLE_ESS_CLIENT
2191:Generated_Source\PSoC4/CYBLE_eventHandler.c ****             if((cyBle_eventHandlerFlag & CYBLE_CALLBACK) != 0u)
2192:Generated_Source\PSoC4/CYBLE_eventHandler.c ****             {
2193:Generated_Source\PSoC4/CYBLE_eventHandler.c ****                 CyBle_EsscExecuteWriteResponseEventHandler((CYBLE_GATTC_EXEC_WRITE_RSP_T *)eventPar
2194:Generated_Source\PSoC4/CYBLE_eventHandler.c ****             }
2195:Generated_Source\PSoC4/CYBLE_eventHandler.c ****         #endif /* CYBLE_ESS_CLIENT */
2196:Generated_Source\PSoC4/CYBLE_eventHandler.c ****         #ifdef CYBLE_HPS_CLIENT
2197:Generated_Source\PSoC4/CYBLE_eventHandler.c ****             if((cyBle_eventHandlerFlag & CYBLE_CALLBACK) != 0u)
2198:Generated_Source\PSoC4/CYBLE_eventHandler.c ****             {
2199:Generated_Source\PSoC4/CYBLE_eventHandler.c ****                 CyBle_HpscExecuteWriteResponseEventHandler((CYBLE_GATTC_EXEC_WRITE_RSP_T *)eventPar
2200:Generated_Source\PSoC4/CYBLE_eventHandler.c ****             }
2201:Generated_Source\PSoC4/CYBLE_eventHandler.c ****         #endif /* CYBLE_HPS_CLIENT */
2202:Generated_Source\PSoC4/CYBLE_eventHandler.c ****         #ifdef CYBLE_IPS_CLIENT
2203:Generated_Source\PSoC4/CYBLE_eventHandler.c ****             if((cyBle_eventHandlerFlag & CYBLE_CALLBACK) != 0u)
2204:Generated_Source\PSoC4/CYBLE_eventHandler.c ****             {
2205:Generated_Source\PSoC4/CYBLE_eventHandler.c ****                 CyBle_IpscExecuteWriteResponseEventHandler((CYBLE_GATTC_EXEC_WRITE_RSP_T *)eventPar
2206:Generated_Source\PSoC4/CYBLE_eventHandler.c ****             }
2207:Generated_Source\PSoC4/CYBLE_eventHandler.c ****         #endif /* CYBLE_IPS_CLIENT */
2208:Generated_Source\PSoC4/CYBLE_eventHandler.c ****         #ifdef CYBLE_OTS_CLIENT
2209:Generated_Source\PSoC4/CYBLE_eventHandler.c ****             if((cyBle_eventHandlerFlag & CYBLE_CALLBACK) != 0u)
2210:Generated_Source\PSoC4/CYBLE_eventHandler.c ****             {
2211:Generated_Source\PSoC4/CYBLE_eventHandler.c ****                 CyBle_OtscExecuteWriteResponseEventHandler((CYBLE_GATTC_EXEC_WRITE_RSP_T *)eventPar
2212:Generated_Source\PSoC4/CYBLE_eventHandler.c ****             }
2213:Generated_Source\PSoC4/CYBLE_eventHandler.c ****         #endif /* CYBLE_OTS_CLIENT */
2214:Generated_Source\PSoC4/CYBLE_eventHandler.c ****         #ifdef CYBLE_UDS_CLIENT
2215:Generated_Source\PSoC4/CYBLE_eventHandler.c ****             if((cyBle_eventHandlerFlag & CYBLE_CALLBACK) != 0u)
2216:Generated_Source\PSoC4/CYBLE_eventHandler.c ****             {
ARM GAS  C:\Users\LIAMSA~1\AppData\Local\Temp\cc7Yswwd.s 			page 59


2217:Generated_Source\PSoC4/CYBLE_eventHandler.c ****                 CyBle_UdscExecuteWriteResponseEventHandler((CYBLE_GATTC_EXEC_WRITE_RSP_T *)eventPar
2218:Generated_Source\PSoC4/CYBLE_eventHandler.c ****             }
2219:Generated_Source\PSoC4/CYBLE_eventHandler.c ****         #endif /* CYBLE_UDS_CLIENT */
2220:Generated_Source\PSoC4/CYBLE_eventHandler.c ****             break;
2221:Generated_Source\PSoC4/CYBLE_eventHandler.c ****             
2222:Generated_Source\PSoC4/CYBLE_eventHandler.c ****     #endif /* CYBLE_GATT_ROLE_CLIENT */
2223:Generated_Source\PSoC4/CYBLE_eventHandler.c **** 
2224:Generated_Source\PSoC4/CYBLE_eventHandler.c ****     #if((CYBLE_GAP_ROLE_PERIPHERAL || CYBLE_GAP_ROLE_CENTRAL) && (CYBLE_BONDING_REQUIREMENT == CYBL
2225:Generated_Source\PSoC4/CYBLE_eventHandler.c **** 
2226:Generated_Source\PSoC4/CYBLE_eventHandler.c ****         case CYBLE_EVT_PENDING_FLASH_WRITE:
2227:Generated_Source\PSoC4/CYBLE_eventHandler.c ****             cyBle_pendingFlashWrite |= CYBLE_PENDING_STACK_FLASH_WRITE_BIT;
2228:Generated_Source\PSoC4/CYBLE_eventHandler.c ****             break;
2229:Generated_Source\PSoC4/CYBLE_eventHandler.c ****         
2230:Generated_Source\PSoC4/CYBLE_eventHandler.c ****     #endif  /* (CYBLE_BONDING_REQUIREMENT == CYBLE_BONDING_YES) */
2231:Generated_Source\PSoC4/CYBLE_eventHandler.c ****     
2232:Generated_Source\PSoC4/CYBLE_eventHandler.c ****         default:
2233:Generated_Source\PSoC4/CYBLE_eventHandler.c ****             break;
 1080              		.loc 1 2233 0
 1081 0300 C046     		nop
 1082 0302 04E0     		b	.L49
 1083              	.L62:
1758:Generated_Source\PSoC4/CYBLE_eventHandler.c ****         /**********************************************************
 1084              		.loc 1 1758 0
 1085 0304 C046     		nop
 1086 0306 02E0     		b	.L49
 1087              	.L63:
1796:Generated_Source\PSoC4/CYBLE_eventHandler.c ****         
 1088              		.loc 1 1796 0
 1089 0308 C046     		nop
 1090 030a 00E0     		b	.L49
 1091              	.L64:
1887:Generated_Source\PSoC4/CYBLE_eventHandler.c ****         #endif /* CYBLE_GAP_ROLE_PERIPHERAL || CYBLE_GAP_ROLE_BROADCASTER */
 1092              		.loc 1 1887 0
 1093 030c C046     		nop
 1094              	.L49:
2234:Generated_Source\PSoC4/CYBLE_eventHandler.c ****     }
2235:Generated_Source\PSoC4/CYBLE_eventHandler.c **** 
2236:Generated_Source\PSoC4/CYBLE_eventHandler.c ****     if(0u != (cyBle_eventHandlerFlag & (CYBLE_CALLBACK | CYBLE_ENABLE_ALL_EVENTS))) 
 1095              		.loc 1 2236 0
 1096 030e 0D4B     		ldr	r3, .L66
 1097 0310 1B78     		ldrb	r3, [r3]
 1098 0312 DBB2     		uxtb	r3, r3
 1099 0314 1A00     		movs	r2, r3
 1100 0316 1123     		movs	r3, #17
 1101 0318 1340     		ands	r3, r2
 1102 031a 0ED0     		beq	.L65
2237:Generated_Source\PSoC4/CYBLE_eventHandler.c ****     {
2238:Generated_Source\PSoC4/CYBLE_eventHandler.c ****         cyBle_eventHandlerFlag &= (uint8)~CYBLE_CALLBACK;
 1103              		.loc 1 2238 0
 1104 031c 094B     		ldr	r3, .L66
 1105 031e 1B78     		ldrb	r3, [r3]
 1106 0320 DBB2     		uxtb	r3, r3
 1107 0322 0122     		movs	r2, #1
 1108 0324 9343     		bics	r3, r2
 1109 0326 DAB2     		uxtb	r2, r3
 1110 0328 064B     		ldr	r3, .L66
 1111 032a 1A70     		strb	r2, [r3]
ARM GAS  C:\Users\LIAMSA~1\AppData\Local\Temp\cc7Yswwd.s 			page 60


2239:Generated_Source\PSoC4/CYBLE_eventHandler.c ****         CyBle_ApplCallback((uint32)eventCode, eventParam);
 1112              		.loc 1 2239 0
 1113 032c 134B     		ldr	r3, .L66+56
 1114 032e 1B68     		ldr	r3, [r3]
 1115 0330 FA1D     		adds	r2, r7, #7
 1116 0332 1278     		ldrb	r2, [r2]
 1117 0334 3968     		ldr	r1, [r7]
 1118 0336 1000     		movs	r0, r2
 1119 0338 9847     		blx	r3
 1120              	.L65:
2240:Generated_Source\PSoC4/CYBLE_eventHandler.c ****     }
2241:Generated_Source\PSoC4/CYBLE_eventHandler.c **** }
 1121              		.loc 1 2241 0
 1122 033a C046     		nop
 1123 033c BD46     		mov	sp, r7
 1124 033e 08B0     		add	sp, sp, #32
 1125              		@ sp needed
 1126 0340 80BD     		pop	{r7, pc}
 1127              	.L67:
 1128 0342 C046     		.align	2
 1129              	.L66:
 1130 0344 00000000 		.word	cyBle_eventHandlerFlag
 1131 0348 0C000000 		.word	.L26
 1132 034c 00000000 		.word	cyBle_sflashDeviceAddress
 1133 0350 7CF2FF0F 		.word	268431996
 1134 0354 7DF2FF0F 		.word	268431997
 1135 0358 7BF2FF0F 		.word	268431995
 1136 035c 78F2FF0F 		.word	268431992
 1137 0360 00000000 		.word	cyBle_deviceAddress
 1138 0364 00000000 		.word	cyBle_state
 1139 0368 00000000 		.word	cyBle_busyStatus
 1140 036c 00000000 		.word	gPrepWriteReqMem.6745
 1141 0370 E00A0000 		.word	cyBle_stackMemoryRam+2784
 1142 0374 00000000 		.word	cyBle_authInfo
 1143 0378 00000000 		.word	cyBle_connHandle
 1144 037c 00000000 		.word	CyBle_ApplCallback
 1145              		.cfi_endproc
 1146              	.LFE10:
 1147              		.size	CyBle_EventHandler, .-CyBle_EventHandler
 1148              		.bss
 1149              		.align	2
 1150              	gPrepWriteReqMem.6745:
 1151 0000 00000000 		.space	8
 1151      00000000 
 1152              		.text
 1153              	.Letext0:
 1154              		.file 2 "Generated_Source\\PSoC4\\cytypes.h"
 1155              		.file 3 "Generated_Source\\PSoC4\\CYBLE_Stack.h"
 1156              		.file 4 "Generated_Source\\PSoC4\\CYBLE_StackHostMain.h"
 1157              		.file 5 "Generated_Source\\PSoC4\\CYBLE_StackGap.h"
 1158              		.file 6 "Generated_Source\\PSoC4\\CYBLE_StackGatt.h"
 1159              		.file 7 "Generated_Source\\PSoC4\\CYBLE_StackGattServer.h"
 1160              		.file 8 "Generated_Source\\PSoC4\\CYBLE.h"
 1161              		.file 9 "Generated_Source\\PSoC4\\CYBLE_eventHandler.h"
 1162              		.section	.debug_info,"",%progbits
 1163              	.Ldebug_info0:
 1164 0000 A70D0000 		.4byte	0xda7
ARM GAS  C:\Users\LIAMSA~1\AppData\Local\Temp\cc7Yswwd.s 			page 61


 1165 0004 0400     		.2byte	0x4
 1166 0006 00000000 		.4byte	.Ldebug_abbrev0
 1167 000a 04       		.byte	0x4
 1168 000b 01       		.uleb128 0x1
 1169 000c 8B0E0000 		.4byte	.LASF331
 1170 0010 0C       		.byte	0xc
 1171 0011 300C0000 		.4byte	.LASF332
 1172 0015 9F120000 		.4byte	.LASF333
 1173 0019 00000000 		.4byte	.Ldebug_ranges0+0
 1174 001d 00000000 		.4byte	0
 1175 0021 00000000 		.4byte	.Ldebug_line0
 1176 0025 02       		.uleb128 0x2
 1177 0026 01       		.byte	0x1
 1178 0027 06       		.byte	0x6
 1179 0028 AD070000 		.4byte	.LASF0
 1180 002c 02       		.uleb128 0x2
 1181 002d 01       		.byte	0x1
 1182 002e 08       		.byte	0x8
 1183 002f FF080000 		.4byte	.LASF1
 1184 0033 02       		.uleb128 0x2
 1185 0034 02       		.byte	0x2
 1186 0035 05       		.byte	0x5
 1187 0036 101E0000 		.4byte	.LASF2
 1188 003a 02       		.uleb128 0x2
 1189 003b 02       		.byte	0x2
 1190 003c 07       		.byte	0x7
 1191 003d 69220000 		.4byte	.LASF3
 1192 0041 02       		.uleb128 0x2
 1193 0042 04       		.byte	0x4
 1194 0043 05       		.byte	0x5
 1195 0044 94050000 		.4byte	.LASF4
 1196 0048 02       		.uleb128 0x2
 1197 0049 04       		.byte	0x4
 1198 004a 07       		.byte	0x7
 1199 004b 1A100000 		.4byte	.LASF5
 1200 004f 02       		.uleb128 0x2
 1201 0050 08       		.byte	0x8
 1202 0051 05       		.byte	0x5
 1203 0052 40130000 		.4byte	.LASF6
 1204 0056 02       		.uleb128 0x2
 1205 0057 08       		.byte	0x8
 1206 0058 07       		.byte	0x7
 1207 0059 7B1A0000 		.4byte	.LASF7
 1208 005d 03       		.uleb128 0x3
 1209 005e 04       		.byte	0x4
 1210 005f 05       		.byte	0x5
 1211 0060 696E7400 		.ascii	"int\000"
 1212 0064 02       		.uleb128 0x2
 1213 0065 04       		.byte	0x4
 1214 0066 07       		.byte	0x7
 1215 0067 F5150000 		.4byte	.LASF8
 1216 006b 04       		.uleb128 0x4
 1217 006c 971D0000 		.4byte	.LASF9
 1218 0070 02       		.byte	0x2
 1219 0071 FC01     		.2byte	0x1fc
 1220 0073 2C000000 		.4byte	0x2c
 1221 0077 04       		.uleb128 0x4
ARM GAS  C:\Users\LIAMSA~1\AppData\Local\Temp\cc7Yswwd.s 			page 62


 1222 0078 E1230000 		.4byte	.LASF10
 1223 007c 02       		.byte	0x2
 1224 007d FD01     		.2byte	0x1fd
 1225 007f 3A000000 		.4byte	0x3a
 1226 0083 04       		.uleb128 0x4
 1227 0084 3E010000 		.4byte	.LASF11
 1228 0088 02       		.byte	0x2
 1229 0089 FE01     		.2byte	0x1fe
 1230 008b 48000000 		.4byte	0x48
 1231 008f 02       		.uleb128 0x2
 1232 0090 04       		.byte	0x4
 1233 0091 04       		.byte	0x4
 1234 0092 3F150000 		.4byte	.LASF12
 1235 0096 02       		.uleb128 0x2
 1236 0097 08       		.byte	0x8
 1237 0098 04       		.byte	0x4
 1238 0099 FA130000 		.4byte	.LASF13
 1239 009d 02       		.uleb128 0x2
 1240 009e 01       		.byte	0x1
 1241 009f 08       		.byte	0x8
 1242 00a0 2E0A0000 		.4byte	.LASF14
 1243 00a4 05       		.uleb128 0x5
 1244 00a5 6B000000 		.4byte	0x6b
 1245 00a9 02       		.uleb128 0x2
 1246 00aa 08       		.byte	0x8
 1247 00ab 04       		.byte	0x4
 1248 00ac DF180000 		.4byte	.LASF15
 1249 00b0 02       		.uleb128 0x2
 1250 00b1 04       		.byte	0x4
 1251 00b2 07       		.byte	0x7
 1252 00b3 1B000000 		.4byte	.LASF16
 1253 00b7 06       		.uleb128 0x6
 1254 00b8 04       		.byte	0x4
 1255 00b9 07       		.uleb128 0x7
 1256 00ba 04       		.byte	0x4
 1257 00bb BF000000 		.4byte	0xbf
 1258 00bf 08       		.uleb128 0x8
 1259 00c0 CF000000 		.4byte	0xcf
 1260 00c4 09       		.uleb128 0x9
 1261 00c5 83000000 		.4byte	0x83
 1262 00c9 09       		.uleb128 0x9
 1263 00ca B7000000 		.4byte	0xb7
 1264 00ce 00       		.byte	0
 1265 00cf 0A       		.uleb128 0xa
 1266 00d0 01       		.byte	0x1
 1267 00d1 2C000000 		.4byte	0x2c
 1268 00d5 03       		.byte	0x3
 1269 00d6 3501     		.2byte	0x135
 1270 00d8 8D020000 		.4byte	0x28d
 1271 00dc 0B       		.uleb128 0xb
 1272 00dd B60A0000 		.4byte	.LASF17
 1273 00e1 00       		.byte	0
 1274 00e2 0B       		.uleb128 0xb
 1275 00e3 17060000 		.4byte	.LASF18
 1276 00e7 01       		.byte	0x1
 1277 00e8 0B       		.uleb128 0xb
 1278 00e9 B01A0000 		.4byte	.LASF19
ARM GAS  C:\Users\LIAMSA~1\AppData\Local\Temp\cc7Yswwd.s 			page 63


 1279 00ed 02       		.byte	0x2
 1280 00ee 0B       		.uleb128 0xb
 1281 00ef EE070000 		.4byte	.LASF20
 1282 00f3 03       		.byte	0x3
 1283 00f4 0B       		.uleb128 0xb
 1284 00f5 04230000 		.4byte	.LASF21
 1285 00f9 04       		.byte	0x4
 1286 00fa 0B       		.uleb128 0xb
 1287 00fb 17210000 		.4byte	.LASF22
 1288 00ff 05       		.byte	0x5
 1289 0100 0B       		.uleb128 0xb
 1290 0101 28190000 		.4byte	.LASF23
 1291 0105 06       		.byte	0x6
 1292 0106 0B       		.uleb128 0xb
 1293 0107 211F0000 		.4byte	.LASF24
 1294 010b 20       		.byte	0x20
 1295 010c 0B       		.uleb128 0xb
 1296 010d AF030000 		.4byte	.LASF25
 1297 0111 21       		.byte	0x21
 1298 0112 0B       		.uleb128 0xb
 1299 0113 3D120000 		.4byte	.LASF26
 1300 0117 22       		.byte	0x22
 1301 0118 0B       		.uleb128 0xb
 1302 0119 C5170000 		.4byte	.LASF27
 1303 011d 23       		.byte	0x23
 1304 011e 0B       		.uleb128 0xb
 1305 011f 470F0000 		.4byte	.LASF28
 1306 0123 24       		.byte	0x24
 1307 0124 0B       		.uleb128 0xb
 1308 0125 630F0000 		.4byte	.LASF29
 1309 0129 25       		.byte	0x25
 1310 012a 0B       		.uleb128 0xb
 1311 012b 6F1D0000 		.4byte	.LASF30
 1312 012f 26       		.byte	0x26
 1313 0130 0B       		.uleb128 0xb
 1314 0131 CE000000 		.4byte	.LASF31
 1315 0135 27       		.byte	0x27
 1316 0136 0B       		.uleb128 0xb
 1317 0137 9E230000 		.4byte	.LASF32
 1318 013b 28       		.byte	0x28
 1319 013c 0B       		.uleb128 0xb
 1320 013d 70190000 		.4byte	.LASF33
 1321 0141 29       		.byte	0x29
 1322 0142 0B       		.uleb128 0xb
 1323 0143 94110000 		.4byte	.LASF34
 1324 0147 2A       		.byte	0x2a
 1325 0148 0B       		.uleb128 0xb
 1326 0149 3A170000 		.4byte	.LASF35
 1327 014d 2B       		.byte	0x2b
 1328 014e 0B       		.uleb128 0xb
 1329 014f 8C210000 		.4byte	.LASF36
 1330 0153 2C       		.byte	0x2c
 1331 0154 0B       		.uleb128 0xb
 1332 0155 49000000 		.4byte	.LASF37
 1333 0159 2D       		.byte	0x2d
 1334 015a 0B       		.uleb128 0xb
 1335 015b AC1D0000 		.4byte	.LASF38
ARM GAS  C:\Users\LIAMSA~1\AppData\Local\Temp\cc7Yswwd.s 			page 64


 1336 015f 2E       		.byte	0x2e
 1337 0160 0B       		.uleb128 0xb
 1338 0161 78040000 		.4byte	.LASF39
 1339 0165 2F       		.byte	0x2f
 1340 0166 0B       		.uleb128 0xb
 1341 0167 0D0A0000 		.4byte	.LASF40
 1342 016b 30       		.byte	0x30
 1343 016c 0B       		.uleb128 0xb
 1344 016d C1140000 		.4byte	.LASF41
 1345 0171 31       		.byte	0x31
 1346 0172 0B       		.uleb128 0xb
 1347 0173 060B0000 		.4byte	.LASF42
 1348 0177 32       		.byte	0x32
 1349 0178 0B       		.uleb128 0xb
 1350 0179 47090000 		.4byte	.LASF43
 1351 017d 33       		.byte	0x33
 1352 017e 0B       		.uleb128 0xb
 1353 017f 6E090000 		.4byte	.LASF44
 1354 0183 34       		.byte	0x34
 1355 0184 0B       		.uleb128 0xb
 1356 0185 C91F0000 		.4byte	.LASF45
 1357 0189 35       		.byte	0x35
 1358 018a 0B       		.uleb128 0xb
 1359 018b 17040000 		.4byte	.LASF46
 1360 018f 36       		.byte	0x36
 1361 0190 0B       		.uleb128 0xb
 1362 0191 FC190000 		.4byte	.LASF47
 1363 0195 37       		.byte	0x37
 1364 0196 0B       		.uleb128 0xb
 1365 0197 9B1E0000 		.4byte	.LASF48
 1366 019b 40       		.byte	0x40
 1367 019c 0B       		.uleb128 0xb
 1368 019d 0E010000 		.4byte	.LASF49
 1369 01a1 41       		.byte	0x41
 1370 01a2 0B       		.uleb128 0xb
 1371 01a3 19230000 		.4byte	.LASF50
 1372 01a7 42       		.byte	0x42
 1373 01a8 0B       		.uleb128 0xb
 1374 01a9 99190000 		.4byte	.LASF51
 1375 01ad 43       		.byte	0x43
 1376 01ae 0B       		.uleb128 0xb
 1377 01af 0D090000 		.4byte	.LASF52
 1378 01b3 44       		.byte	0x44
 1379 01b4 0B       		.uleb128 0xb
 1380 01b5 6F080000 		.4byte	.LASF53
 1381 01b9 45       		.byte	0x45
 1382 01ba 0B       		.uleb128 0xb
 1383 01bb AB1C0000 		.4byte	.LASF54
 1384 01bf 46       		.byte	0x46
 1385 01c0 0B       		.uleb128 0xb
 1386 01c1 8D1C0000 		.4byte	.LASF55
 1387 01c5 47       		.byte	0x47
 1388 01c6 0B       		.uleb128 0xb
 1389 01c7 E6090000 		.4byte	.LASF56
 1390 01cb 48       		.byte	0x48
 1391 01cc 0B       		.uleb128 0xb
 1392 01cd 3A180000 		.4byte	.LASF57
ARM GAS  C:\Users\LIAMSA~1\AppData\Local\Temp\cc7Yswwd.s 			page 65


 1393 01d1 49       		.byte	0x49
 1394 01d2 0B       		.uleb128 0xb
 1395 01d3 5D0B0000 		.4byte	.LASF58
 1396 01d7 4A       		.byte	0x4a
 1397 01d8 0B       		.uleb128 0xb
 1398 01d9 630A0000 		.4byte	.LASF59
 1399 01dd 4B       		.byte	0x4b
 1400 01de 0B       		.uleb128 0xb
 1401 01df 93170000 		.4byte	.LASF60
 1402 01e3 4C       		.byte	0x4c
 1403 01e4 0B       		.uleb128 0xb
 1404 01e5 351D0000 		.4byte	.LASF61
 1405 01e9 4D       		.byte	0x4d
 1406 01ea 0B       		.uleb128 0xb
 1407 01eb 53050000 		.4byte	.LASF62
 1408 01ef 4E       		.byte	0x4e
 1409 01f0 0B       		.uleb128 0xb
 1410 01f1 02160000 		.4byte	.LASF63
 1411 01f5 4F       		.byte	0x4f
 1412 01f6 0B       		.uleb128 0xb
 1413 01f7 021F0000 		.4byte	.LASF64
 1414 01fb 50       		.byte	0x50
 1415 01fc 0B       		.uleb128 0xb
 1416 01fd A00B0000 		.4byte	.LASF65
 1417 0201 51       		.byte	0x51
 1418 0202 0B       		.uleb128 0xb
 1419 0203 8E030000 		.4byte	.LASF66
 1420 0207 52       		.byte	0x52
 1421 0208 0B       		.uleb128 0xb
 1422 0209 D5200000 		.4byte	.LASF67
 1423 020d 53       		.byte	0x53
 1424 020e 0B       		.uleb128 0xb
 1425 020f C0230000 		.4byte	.LASF68
 1426 0213 54       		.byte	0x54
 1427 0214 0B       		.uleb128 0xb
 1428 0215 3F020000 		.4byte	.LASF69
 1429 0219 55       		.byte	0x55
 1430 021a 0B       		.uleb128 0xb
 1431 021b 5C0C0000 		.4byte	.LASF70
 1432 021f 56       		.byte	0x56
 1433 0220 0B       		.uleb128 0xb
 1434 0221 6A150000 		.4byte	.LASF71
 1435 0225 57       		.byte	0x57
 1436 0226 0B       		.uleb128 0xb
 1437 0227 7B230000 		.4byte	.LASF72
 1438 022b 58       		.byte	0x58
 1439 022c 0B       		.uleb128 0xb
 1440 022d FA210000 		.4byte	.LASF73
 1441 0231 70       		.byte	0x70
 1442 0232 0B       		.uleb128 0xb
 1443 0233 2C0E0000 		.4byte	.LASF74
 1444 0237 71       		.byte	0x71
 1445 0238 0B       		.uleb128 0xb
 1446 0239 19070000 		.4byte	.LASF75
 1447 023d 72       		.byte	0x72
 1448 023e 0B       		.uleb128 0xb
 1449 023f E41E0000 		.4byte	.LASF76
ARM GAS  C:\Users\LIAMSA~1\AppData\Local\Temp\cc7Yswwd.s 			page 66


 1450 0243 73       		.byte	0x73
 1451 0244 0B       		.uleb128 0xb
 1452 0245 8D180000 		.4byte	.LASF77
 1453 0249 74       		.byte	0x74
 1454 024a 0B       		.uleb128 0xb
 1455 024b 1C120000 		.4byte	.LASF78
 1456 024f 75       		.byte	0x75
 1457 0250 0B       		.uleb128 0xb
 1458 0251 C5090000 		.4byte	.LASF79
 1459 0255 76       		.byte	0x76
 1460 0256 0B       		.uleb128 0xb
 1461 0257 231B0000 		.4byte	.LASF80
 1462 025b 77       		.byte	0x77
 1463 025c 0B       		.uleb128 0xb
 1464 025d 63020000 		.4byte	.LASF81
 1465 0261 78       		.byte	0x78
 1466 0262 0B       		.uleb128 0xb
 1467 0263 71050000 		.4byte	.LASF82
 1468 0267 79       		.byte	0x79
 1469 0268 0B       		.uleb128 0xb
 1470 0269 57230000 		.4byte	.LASF83
 1471 026d 7A       		.byte	0x7a
 1472 026e 0B       		.uleb128 0xb
 1473 026f 23140000 		.4byte	.LASF84
 1474 0273 FA       		.byte	0xfa
 1475 0274 0B       		.uleb128 0xb
 1476 0275 A3200000 		.4byte	.LASF85
 1477 0279 FB       		.byte	0xfb
 1478 027a 0B       		.uleb128 0xb
 1479 027b 790E0000 		.4byte	.LASF86
 1480 027f FC       		.byte	0xfc
 1481 0280 0B       		.uleb128 0xb
 1482 0281 C7180000 		.4byte	.LASF87
 1483 0285 FD       		.byte	0xfd
 1484 0286 0B       		.uleb128 0xb
 1485 0287 2C170000 		.4byte	.LASF88
 1486 028b FF       		.byte	0xff
 1487 028c 00       		.byte	0
 1488 028d 0A       		.uleb128 0xa
 1489 028e 02       		.byte	0x2
 1490 028f 3A000000 		.4byte	0x3a
 1491 0293 03       		.byte	0x3
 1492 0294 EA03     		.2byte	0x3ea
 1493 0296 6C030000 		.4byte	0x36c
 1494 029a 0B       		.uleb128 0xb
 1495 029b 1A080000 		.4byte	.LASF89
 1496 029f 00       		.byte	0
 1497 02a0 0B       		.uleb128 0xb
 1498 02a1 ED0C0000 		.4byte	.LASF90
 1499 02a5 01       		.byte	0x1
 1500 02a6 0B       		.uleb128 0xb
 1501 02a7 E6220000 		.4byte	.LASF91
 1502 02ab 02       		.byte	0x2
 1503 02ac 0B       		.uleb128 0xb
 1504 02ad 630D0000 		.4byte	.LASF92
 1505 02b1 03       		.byte	0x3
 1506 02b2 0B       		.uleb128 0xb
ARM GAS  C:\Users\LIAMSA~1\AppData\Local\Temp\cc7Yswwd.s 			page 67


 1507 02b3 BB0F0000 		.4byte	.LASF93
 1508 02b7 04       		.byte	0x4
 1509 02b8 0B       		.uleb128 0xb
 1510 02b9 DC130000 		.4byte	.LASF94
 1511 02bd 05       		.byte	0x5
 1512 02be 0B       		.uleb128 0xb
 1513 02bf 5D200000 		.4byte	.LASF95
 1514 02c3 06       		.byte	0x6
 1515 02c4 0B       		.uleb128 0xb
 1516 02c5 400B0000 		.4byte	.LASF96
 1517 02c9 07       		.byte	0x7
 1518 02ca 0B       		.uleb128 0xb
 1519 02cb 09150000 		.4byte	.LASF97
 1520 02cf 08       		.byte	0x8
 1521 02d0 0B       		.uleb128 0xb
 1522 02d1 811F0000 		.4byte	.LASF98
 1523 02d5 09       		.byte	0x9
 1524 02d6 0B       		.uleb128 0xb
 1525 02d7 E8230000 		.4byte	.LASF99
 1526 02db 0A       		.byte	0xa
 1527 02dc 0B       		.uleb128 0xb
 1528 02dd DA030000 		.4byte	.LASF100
 1529 02e1 0B       		.byte	0xb
 1530 02e2 0B       		.uleb128 0xb
 1531 02e3 00210000 		.4byte	.LASF101
 1532 02e7 0C       		.byte	0xc
 1533 02e8 0B       		.uleb128 0xb
 1534 02e9 B6160000 		.4byte	.LASF102
 1535 02ed 0D       		.byte	0xd
 1536 02ee 0B       		.uleb128 0xb
 1537 02ef 22110000 		.4byte	.LASF103
 1538 02f3 0E       		.byte	0xe
 1539 02f4 0B       		.uleb128 0xb
 1540 02f5 B7130000 		.4byte	.LASF104
 1541 02f9 0F       		.byte	0xf
 1542 02fa 0B       		.uleb128 0xb
 1543 02fb F5010000 		.4byte	.LASF105
 1544 02ff 10       		.byte	0x10
 1545 0300 0B       		.uleb128 0xb
 1546 0301 E5140000 		.4byte	.LASF106
 1547 0305 11       		.byte	0x11
 1548 0306 0B       		.uleb128 0xb
 1549 0307 2A060000 		.4byte	.LASF107
 1550 030b 12       		.byte	0x12
 1551 030c 0B       		.uleb128 0xb
 1552 030d 85070000 		.4byte	.LASF108
 1553 0311 13       		.byte	0x13
 1554 0312 0B       		.uleb128 0xb
 1555 0313 01140000 		.4byte	.LASF109
 1556 0317 27       		.byte	0x27
 1557 0318 0B       		.uleb128 0xb
 1558 0319 45150000 		.4byte	.LASF110
 1559 031d 28       		.byte	0x28
 1560 031e 0B       		.uleb128 0xb
 1561 031f 23020000 		.4byte	.LASF111
 1562 0323 29       		.byte	0x29
 1563 0324 0B       		.uleb128 0xb
ARM GAS  C:\Users\LIAMSA~1\AppData\Local\Temp\cc7Yswwd.s 			page 68


 1564 0325 221E0000 		.4byte	.LASF112
 1565 0329 2A       		.byte	0x2a
 1566 032a 0B       		.uleb128 0xb
 1567 032b 62100000 		.4byte	.LASF113
 1568 032f 2B       		.byte	0x2b
 1569 0330 0B       		.uleb128 0xb
 1570 0331 841B0000 		.4byte	.LASF114
 1571 0335 2C       		.byte	0x2c
 1572 0336 0B       		.uleb128 0xb
 1573 0337 F91C0000 		.4byte	.LASF115
 1574 033b 2D       		.byte	0x2d
 1575 033c 0B       		.uleb128 0xb
 1576 033d D10C0000 		.4byte	.LASF116
 1577 0341 FE       		.byte	0xfe
 1578 0342 0B       		.uleb128 0xb
 1579 0343 1C0E0000 		.4byte	.LASF117
 1580 0347 FF       		.byte	0xff
 1581 0348 0C       		.uleb128 0xc
 1582 0349 04180000 		.4byte	.LASF118
 1583 034d 0001     		.2byte	0x100
 1584 034f 0C       		.uleb128 0xc
 1585 0350 EB170000 		.4byte	.LASF119
 1586 0354 0101     		.2byte	0x101
 1587 0356 0C       		.uleb128 0xc
 1588 0357 CD060000 		.4byte	.LASF120
 1589 035b 0201     		.2byte	0x102
 1590 035d 0C       		.uleb128 0xc
 1591 035e DD1A0000 		.4byte	.LASF121
 1592 0362 0301     		.2byte	0x103
 1593 0364 0C       		.uleb128 0xc
 1594 0365 870F0000 		.4byte	.LASF122
 1595 0369 0401     		.2byte	0x104
 1596 036b 00       		.byte	0
 1597 036c 04       		.uleb128 0x4
 1598 036d C2200000 		.4byte	.LASF123
 1599 0371 03       		.byte	0x3
 1600 0372 5C04     		.2byte	0x45c
 1601 0374 8D020000 		.4byte	0x28d
 1602 0378 0A       		.uleb128 0xa
 1603 0379 01       		.byte	0x1
 1604 037a 2C000000 		.4byte	0x2c
 1605 037e 03       		.byte	0x3
 1606 037f 9504     		.2byte	0x495
 1607 0381 BC030000 		.4byte	0x3bc
 1608 0385 0B       		.uleb128 0xb
 1609 0386 B9070000 		.4byte	.LASF124
 1610 038a 01       		.byte	0x1
 1611 038b 0B       		.uleb128 0xb
 1612 038c 1E050000 		.4byte	.LASF125
 1613 0390 02       		.byte	0x2
 1614 0391 0B       		.uleb128 0xb
 1615 0392 0D190000 		.4byte	.LASF126
 1616 0396 03       		.byte	0x3
 1617 0397 0B       		.uleb128 0xb
 1618 0398 38040000 		.4byte	.LASF127
 1619 039c 04       		.byte	0x4
 1620 039d 0B       		.uleb128 0xb
ARM GAS  C:\Users\LIAMSA~1\AppData\Local\Temp\cc7Yswwd.s 			page 69


 1621 039e 330A0000 		.4byte	.LASF128
 1622 03a2 05       		.byte	0x5
 1623 03a3 0B       		.uleb128 0xb
 1624 03a4 47100000 		.4byte	.LASF129
 1625 03a8 06       		.byte	0x6
 1626 03a9 0B       		.uleb128 0xb
 1627 03aa 77200000 		.4byte	.LASF130
 1628 03ae 07       		.byte	0x7
 1629 03af 0B       		.uleb128 0xb
 1630 03b0 03100000 		.4byte	.LASF131
 1631 03b4 08       		.byte	0x8
 1632 03b5 0B       		.uleb128 0xb
 1633 03b6 6A140000 		.4byte	.LASF132
 1634 03ba 09       		.byte	0x9
 1635 03bb 00       		.byte	0
 1636 03bc 04       		.uleb128 0x4
 1637 03bd 89120000 		.4byte	.LASF133
 1638 03c1 03       		.byte	0x3
 1639 03c2 AC04     		.2byte	0x4ac
 1640 03c4 78030000 		.4byte	0x378
 1641 03c8 0A       		.uleb128 0xa
 1642 03c9 01       		.byte	0x1
 1643 03ca 2C000000 		.4byte	0x2c
 1644 03ce 03       		.byte	0x3
 1645 03cf B004     		.2byte	0x4b0
 1646 03d1 E8030000 		.4byte	0x3e8
 1647 03d5 0B       		.uleb128 0xb
 1648 03d6 8E200000 		.4byte	.LASF134
 1649 03da 00       		.byte	0
 1650 03db 0B       		.uleb128 0xb
 1651 03dc 68160000 		.4byte	.LASF135
 1652 03e0 01       		.byte	0x1
 1653 03e1 0B       		.uleb128 0xb
 1654 03e2 E5210000 		.4byte	.LASF136
 1655 03e6 02       		.byte	0x2
 1656 03e7 00       		.byte	0
 1657 03e8 04       		.uleb128 0x4
 1658 03e9 29080000 		.4byte	.LASF137
 1659 03ed 03       		.byte	0x3
 1660 03ee B704     		.2byte	0x4b7
 1661 03f0 C8030000 		.4byte	0x3c8
 1662 03f4 0D       		.uleb128 0xd
 1663 03f5 02       		.byte	0x2
 1664 03f6 03       		.byte	0x3
 1665 03f7 BA04     		.2byte	0x4ba
 1666 03f9 18040000 		.4byte	0x418
 1667 03fd 0E       		.uleb128 0xe
 1668 03fe 5A010000 		.4byte	.LASF138
 1669 0402 03       		.byte	0x3
 1670 0403 BD04     		.2byte	0x4bd
 1671 0405 BC030000 		.4byte	0x3bc
 1672 0409 00       		.byte	0
 1673 040a 0E       		.uleb128 0xe
 1674 040b 0F070000 		.4byte	.LASF139
 1675 040f 03       		.byte	0x3
 1676 0410 BF04     		.2byte	0x4bf
 1677 0412 E8030000 		.4byte	0x3e8
ARM GAS  C:\Users\LIAMSA~1\AppData\Local\Temp\cc7Yswwd.s 			page 70


 1678 0416 01       		.byte	0x1
 1679 0417 00       		.byte	0
 1680 0418 04       		.uleb128 0x4
 1681 0419 CD210000 		.4byte	.LASF140
 1682 041d 03       		.byte	0x3
 1683 041e C004     		.2byte	0x4c0
 1684 0420 F4030000 		.4byte	0x3f4
 1685 0424 0A       		.uleb128 0xa
 1686 0425 01       		.byte	0x1
 1687 0426 2C000000 		.4byte	0x2c
 1688 042a 03       		.byte	0x3
 1689 042b EA04     		.2byte	0x4ea
 1690 042d 3E040000 		.4byte	0x43e
 1691 0431 0B       		.uleb128 0xb
 1692 0432 311A0000 		.4byte	.LASF141
 1693 0436 00       		.byte	0
 1694 0437 0B       		.uleb128 0xb
 1695 0438 95100000 		.4byte	.LASF142
 1696 043c 01       		.byte	0x1
 1697 043d 00       		.byte	0
 1698 043e 04       		.uleb128 0x4
 1699 043f 20220000 		.4byte	.LASF143
 1700 0443 03       		.byte	0x3
 1701 0444 F104     		.2byte	0x4f1
 1702 0446 24040000 		.4byte	0x424
 1703 044a 0D       		.uleb128 0xd
 1704 044b 08       		.byte	0x8
 1705 044c 03       		.byte	0x3
 1706 044d F404     		.2byte	0x4f4
 1707 044f 7B040000 		.4byte	0x47b
 1708 0453 0E       		.uleb128 0xe
 1709 0454 92000000 		.4byte	.LASF144
 1710 0458 03       		.byte	0x3
 1711 0459 F704     		.2byte	0x4f7
 1712 045b 3E040000 		.4byte	0x43e
 1713 045f 00       		.byte	0
 1714 0460 0E       		.uleb128 0xe
 1715 0461 7D0F0000 		.4byte	.LASF145
 1716 0465 03       		.byte	0x3
 1717 0466 FC04     		.2byte	0x4fc
 1718 0468 6B000000 		.4byte	0x6b
 1719 046c 01       		.byte	0x1
 1720 046d 0E       		.uleb128 0xe
 1721 046e B8090000 		.4byte	.LASF146
 1722 0472 03       		.byte	0x3
 1723 0473 0405     		.2byte	0x504
 1724 0475 B7000000 		.4byte	0xb7
 1725 0479 04       		.byte	0x4
 1726 047a 00       		.byte	0
 1727 047b 04       		.uleb128 0x4
 1728 047c 6F130000 		.4byte	.LASF147
 1729 0480 03       		.byte	0x3
 1730 0481 0605     		.2byte	0x506
 1731 0483 4A040000 		.4byte	0x44a
 1732 0487 0D       		.uleb128 0xd
 1733 0488 07       		.byte	0x7
 1734 0489 03       		.byte	0x3
ARM GAS  C:\Users\LIAMSA~1\AppData\Local\Temp\cc7Yswwd.s 			page 71


 1735 048a 2A05     		.2byte	0x52a
 1736 048c AB040000 		.4byte	0x4ab
 1737 0490 0E       		.uleb128 0xe
 1738 0491 06200000 		.4byte	.LASF148
 1739 0495 03       		.byte	0x3
 1740 0496 2D05     		.2byte	0x52d
 1741 0498 AB040000 		.4byte	0x4ab
 1742 049c 00       		.byte	0
 1743 049d 0E       		.uleb128 0xe
 1744 049e BD020000 		.4byte	.LASF149
 1745 04a2 03       		.byte	0x3
 1746 04a3 2F05     		.2byte	0x52f
 1747 04a5 6B000000 		.4byte	0x6b
 1748 04a9 06       		.byte	0x6
 1749 04aa 00       		.byte	0
 1750 04ab 0F       		.uleb128 0xf
 1751 04ac 6B000000 		.4byte	0x6b
 1752 04b0 BB040000 		.4byte	0x4bb
 1753 04b4 10       		.uleb128 0x10
 1754 04b5 B0000000 		.4byte	0xb0
 1755 04b9 05       		.byte	0x5
 1756 04ba 00       		.byte	0
 1757 04bb 04       		.uleb128 0x4
 1758 04bc DB1B0000 		.4byte	.LASF150
 1759 04c0 03       		.byte	0x3
 1760 04c1 3005     		.2byte	0x530
 1761 04c3 87040000 		.4byte	0x487
 1762 04c7 07       		.uleb128 0x7
 1763 04c8 04       		.byte	0x4
 1764 04c9 6B000000 		.4byte	0x6b
 1765 04cd 11       		.uleb128 0x11
 1766 04ce 01       		.byte	0x1
 1767 04cf 2C000000 		.4byte	0x2c
 1768 04d3 04       		.byte	0x4
 1769 04d4 2F       		.byte	0x2f
 1770 04d5 F2040000 		.4byte	0x4f2
 1771 04d9 0B       		.uleb128 0xb
 1772 04da 081C0000 		.4byte	.LASF151
 1773 04de 01       		.byte	0x1
 1774 04df 0B       		.uleb128 0xb
 1775 04e0 9C1B0000 		.4byte	.LASF152
 1776 04e4 02       		.byte	0x2
 1777 04e5 0B       		.uleb128 0xb
 1778 04e6 45230000 		.4byte	.LASF153
 1779 04ea 03       		.byte	0x3
 1780 04eb 0B       		.uleb128 0xb
 1781 04ec 7C1C0000 		.4byte	.LASF154
 1782 04f0 04       		.byte	0x4
 1783 04f1 00       		.byte	0
 1784 04f2 12       		.uleb128 0x12
 1785 04f3 C2020000 		.4byte	.LASF155
 1786 04f7 04       		.byte	0x4
 1787 04f8 3C       		.byte	0x3c
 1788 04f9 CD040000 		.4byte	0x4cd
 1789 04fd 0A       		.uleb128 0xa
 1790 04fe 01       		.byte	0x1
 1791 04ff 2C000000 		.4byte	0x2c
ARM GAS  C:\Users\LIAMSA~1\AppData\Local\Temp\cc7Yswwd.s 			page 72


 1792 0503 05       		.byte	0x5
 1793 0504 0801     		.2byte	0x108
 1794 0506 29050000 		.4byte	0x529
 1795 050a 0B       		.uleb128 0xb
 1796 050b 9D050000 		.4byte	.LASF156
 1797 050f 00       		.byte	0
 1798 0510 0B       		.uleb128 0xb
 1799 0511 B3050000 		.4byte	.LASF157
 1800 0515 01       		.byte	0x1
 1801 0516 0B       		.uleb128 0xb
 1802 0517 C9050000 		.4byte	.LASF158
 1803 051b 02       		.byte	0x2
 1804 051c 0B       		.uleb128 0xb
 1805 051d DF050000 		.4byte	.LASF159
 1806 0521 03       		.byte	0x3
 1807 0522 0B       		.uleb128 0xb
 1808 0523 170C0000 		.4byte	.LASF160
 1809 0527 0F       		.byte	0xf
 1810 0528 00       		.byte	0
 1811 0529 0A       		.uleb128 0xa
 1812 052a 01       		.byte	0x1
 1813 052b 2C000000 		.4byte	0x2c
 1814 052f 05       		.byte	0x5
 1815 0530 2701     		.2byte	0x127
 1816 0532 55050000 		.4byte	0x555
 1817 0536 0B       		.uleb128 0xb
 1818 0537 FA030000 		.4byte	.LASF161
 1819 053b 00       		.byte	0
 1820 053c 0B       		.uleb128 0xb
 1821 053d 6E210000 		.4byte	.LASF162
 1822 0541 01       		.byte	0x1
 1823 0542 0B       		.uleb128 0xb
 1824 0543 980A0000 		.4byte	.LASF163
 1825 0547 02       		.byte	0x2
 1826 0548 0B       		.uleb128 0xb
 1827 0549 ED000000 		.4byte	.LASF164
 1828 054d 03       		.byte	0x3
 1829 054e 0B       		.uleb128 0xb
 1830 054f B51E0000 		.4byte	.LASF165
 1831 0553 04       		.byte	0x4
 1832 0554 00       		.byte	0
 1833 0555 0A       		.uleb128 0xa
 1834 0556 01       		.byte	0x1
 1835 0557 2C000000 		.4byte	0x2c
 1836 055b 05       		.byte	0x5
 1837 055c 3D01     		.2byte	0x13d
 1838 055e CF050000 		.4byte	0x5cf
 1839 0562 0B       		.uleb128 0xb
 1840 0563 56190000 		.4byte	.LASF166
 1841 0567 00       		.byte	0
 1842 0568 0B       		.uleb128 0xb
 1843 0569 D0040000 		.4byte	.LASF167
 1844 056d 01       		.byte	0x1
 1845 056e 0B       		.uleb128 0xb
 1846 056f D0190000 		.4byte	.LASF168
 1847 0573 02       		.byte	0x2
 1848 0574 0B       		.uleb128 0xb
ARM GAS  C:\Users\LIAMSA~1\AppData\Local\Temp\cc7Yswwd.s 			page 73


 1849 0575 D6100000 		.4byte	.LASF169
 1850 0579 03       		.byte	0x3
 1851 057a 0B       		.uleb128 0xb
 1852 057b A0060000 		.4byte	.LASF170
 1853 057f 04       		.byte	0x4
 1854 0580 0B       		.uleb128 0xb
 1855 0581 511C0000 		.4byte	.LASF171
 1856 0585 05       		.byte	0x5
 1857 0586 0B       		.uleb128 0xb
 1858 0587 0A130000 		.4byte	.LASF172
 1859 058b 06       		.byte	0x6
 1860 058c 0B       		.uleb128 0xb
 1861 058d AB100000 		.4byte	.LASF173
 1862 0591 07       		.byte	0x7
 1863 0592 0B       		.uleb128 0xb
 1864 0593 39030000 		.4byte	.LASF174
 1865 0597 08       		.byte	0x8
 1866 0598 0B       		.uleb128 0xb
 1867 0599 F5110000 		.4byte	.LASF175
 1868 059d 09       		.byte	0x9
 1869 059e 0B       		.uleb128 0xb
 1870 059f 90090000 		.4byte	.LASF176
 1871 05a3 0A       		.byte	0xa
 1872 05a4 0B       		.uleb128 0xb
 1873 05a5 61120000 		.4byte	.LASF177
 1874 05a9 0B       		.byte	0xb
 1875 05aa 0B       		.uleb128 0xb
 1876 05ab 3F210000 		.4byte	.LASF178
 1877 05af 0C       		.byte	0xc
 1878 05b0 0B       		.uleb128 0xb
 1879 05b1 330D0000 		.4byte	.LASF179
 1880 05b5 0D       		.byte	0xd
 1881 05b6 0B       		.uleb128 0xb
 1882 05b7 96080000 		.4byte	.LASF180
 1883 05bb 0E       		.byte	0xe
 1884 05bc 0B       		.uleb128 0xb
 1885 05bd 9A000000 		.4byte	.LASF181
 1886 05c1 0F       		.byte	0xf
 1887 05c2 0B       		.uleb128 0xb
 1888 05c3 0D030000 		.4byte	.LASF182
 1889 05c7 15       		.byte	0x15
 1890 05c8 0B       		.uleb128 0xb
 1891 05c9 520E0000 		.4byte	.LASF183
 1892 05cd 18       		.byte	0x18
 1893 05ce 00       		.byte	0
 1894 05cf 04       		.uleb128 0x4
 1895 05d0 74170000 		.4byte	.LASF184
 1896 05d4 05       		.byte	0x5
 1897 05d5 7D01     		.2byte	0x17d
 1898 05d7 55050000 		.4byte	0x555
 1899 05db 0D       		.uleb128 0xd
 1900 05dc 05       		.byte	0x5
 1901 05dd 05       		.byte	0x5
 1902 05de C601     		.2byte	0x1c6
 1903 05e0 26060000 		.4byte	0x626
 1904 05e4 0E       		.uleb128 0xe
 1905 05e5 86130000 		.4byte	.LASF185
ARM GAS  C:\Users\LIAMSA~1\AppData\Local\Temp\cc7Yswwd.s 			page 74


 1906 05e9 05       		.byte	0x5
 1907 05ea D001     		.2byte	0x1d0
 1908 05ec 6B000000 		.4byte	0x6b
 1909 05f0 00       		.byte	0
 1910 05f1 0E       		.uleb128 0xe
 1911 05f2 CF150000 		.4byte	.LASF186
 1912 05f6 05       		.byte	0x5
 1913 05f7 D601     		.2byte	0x1d6
 1914 05f9 6B000000 		.4byte	0x6b
 1915 05fd 01       		.byte	0x1
 1916 05fe 0E       		.uleb128 0xe
 1917 05ff 24000000 		.4byte	.LASF187
 1918 0603 05       		.byte	0x5
 1919 0604 DD01     		.2byte	0x1dd
 1920 0606 6B000000 		.4byte	0x6b
 1921 060a 02       		.byte	0x2
 1922 060b 0E       		.uleb128 0xe
 1923 060c 1A1E0000 		.4byte	.LASF188
 1924 0610 05       		.byte	0x5
 1925 0611 E101     		.2byte	0x1e1
 1926 0613 CF050000 		.4byte	0x5cf
 1927 0617 03       		.byte	0x3
 1928 0618 0E       		.uleb128 0xe
 1929 0619 231D0000 		.4byte	.LASF189
 1930 061d 05       		.byte	0x5
 1931 061e EB01     		.2byte	0x1eb
 1932 0620 6B000000 		.4byte	0x6b
 1933 0624 04       		.byte	0x4
 1934 0625 00       		.byte	0
 1935 0626 04       		.uleb128 0x4
 1936 0627 820A0000 		.4byte	.LASF190
 1937 062b 05       		.byte	0x5
 1938 062c ED01     		.2byte	0x1ed
 1939 062e DB050000 		.4byte	0x5db
 1940 0632 0D       		.uleb128 0xd
 1941 0633 08       		.byte	0x8
 1942 0634 05       		.byte	0x5
 1943 0635 7203     		.2byte	0x372
 1944 0637 70060000 		.4byte	0x670
 1945 063b 0E       		.uleb128 0xe
 1946 063c 40100000 		.4byte	.LASF191
 1947 0640 05       		.byte	0x5
 1948 0641 7803     		.2byte	0x378
 1949 0643 6B000000 		.4byte	0x6b
 1950 0647 00       		.byte	0
 1951 0648 0E       		.uleb128 0xe
 1952 0649 60220000 		.4byte	.LASF192
 1953 064d 05       		.byte	0x5
 1954 064e 7E03     		.2byte	0x37e
 1955 0650 77000000 		.4byte	0x77
 1956 0654 02       		.byte	0x2
 1957 0655 0E       		.uleb128 0xe
 1958 0656 33210000 		.4byte	.LASF193
 1959 065a 05       		.byte	0x5
 1960 065b 8303     		.2byte	0x383
 1961 065d 77000000 		.4byte	0x77
 1962 0661 04       		.byte	0x4
ARM GAS  C:\Users\LIAMSA~1\AppData\Local\Temp\cc7Yswwd.s 			page 75


 1963 0662 0E       		.uleb128 0xe
 1964 0663 37230000 		.4byte	.LASF194
 1965 0667 05       		.byte	0x5
 1966 0668 8903     		.2byte	0x389
 1967 066a 77000000 		.4byte	0x77
 1968 066e 06       		.byte	0x6
 1969 066f 00       		.byte	0
 1970 0670 04       		.uleb128 0x4
 1971 0671 4E1A0000 		.4byte	.LASF195
 1972 0675 05       		.byte	0x5
 1973 0676 8B03     		.2byte	0x38b
 1974 0678 32060000 		.4byte	0x632
 1975 067c 11       		.uleb128 0x11
 1976 067d 01       		.byte	0x1
 1977 067e 2C000000 		.4byte	0x2c
 1978 0682 06       		.byte	0x6
 1979 0683 49       		.byte	0x49
 1980 0684 37070000 		.4byte	0x737
 1981 0688 0B       		.uleb128 0xb
 1982 0689 BC0C0000 		.4byte	.LASF196
 1983 068d 01       		.byte	0x1
 1984 068e 0B       		.uleb128 0xb
 1985 068f 270B0000 		.4byte	.LASF197
 1986 0693 02       		.byte	0x2
 1987 0694 0B       		.uleb128 0xb
 1988 0695 3A050000 		.4byte	.LASF198
 1989 0699 03       		.byte	0x3
 1990 069a 0B       		.uleb128 0xb
 1991 069b D5070000 		.4byte	.LASF199
 1992 069f 04       		.byte	0x4
 1993 06a0 0B       		.uleb128 0xb
 1994 06a1 B7190000 		.4byte	.LASF200
 1995 06a5 05       		.byte	0x5
 1996 06a6 0B       		.uleb128 0xb
 1997 06a7 EB180000 		.4byte	.LASF201
 1998 06ab 06       		.byte	0x6
 1999 06ac 0B       		.uleb128 0xb
 2000 06ad F5050000 		.4byte	.LASF202
 2001 06b1 07       		.byte	0x7
 2002 06b2 0B       		.uleb128 0xb
 2003 06b3 71180000 		.4byte	.LASF203
 2004 06b7 08       		.byte	0x8
 2005 06b8 0B       		.uleb128 0xb
 2006 06b9 61030000 		.4byte	.LASF204
 2007 06bd 09       		.byte	0x9
 2008 06be 0B       		.uleb128 0xb
 2009 06bf 2C100000 		.4byte	.LASF205
 2010 06c3 0A       		.byte	0xa
 2011 06c4 0B       		.uleb128 0xb
 2012 06c5 3F200000 		.4byte	.LASF206
 2013 06c9 0B       		.byte	0xb
 2014 06ca 0B       		.uleb128 0xb
 2015 06cb EF1B0000 		.4byte	.LASF207
 2016 06cf 0C       		.byte	0xc
 2017 06d0 0B       		.uleb128 0xb
 2018 06d1 47070000 		.4byte	.LASF208
 2019 06d5 0D       		.byte	0xd
ARM GAS  C:\Users\LIAMSA~1\AppData\Local\Temp\cc7Yswwd.s 			page 76


 2020 06d6 0B       		.uleb128 0xb
 2021 06d7 1D180000 		.4byte	.LASF209
 2022 06db 0E       		.byte	0xe
 2023 06dc 0B       		.uleb128 0xb
 2024 06dd A0020000 		.4byte	.LASF210
 2025 06e1 0F       		.byte	0xf
 2026 06e2 0B       		.uleb128 0xb
 2027 06e3 C3220000 		.4byte	.LASF211
 2028 06e7 10       		.byte	0x10
 2029 06e8 0B       		.uleb128 0xb
 2030 06e9 9E0F0000 		.4byte	.LASF212
 2031 06ed 11       		.byte	0x11
 2032 06ee 0B       		.uleb128 0xb
 2033 06ef FB1D0000 		.4byte	.LASF213
 2034 06f3 12       		.byte	0x12
 2035 06f4 0B       		.uleb128 0xb
 2036 06f5 4E0A0000 		.4byte	.LASF214
 2037 06f9 13       		.byte	0x13
 2038 06fa 0B       		.uleb128 0xb
 2039 06fb 29010000 		.4byte	.LASF215
 2040 06ff 52       		.byte	0x52
 2041 0700 0B       		.uleb128 0xb
 2042 0701 B2010000 		.4byte	.LASF216
 2043 0705 16       		.byte	0x16
 2044 0706 0B       		.uleb128 0xb
 2045 0707 DB160000 		.4byte	.LASF217
 2046 070b 17       		.byte	0x17
 2047 070c 0B       		.uleb128 0xb
 2048 070d B0210000 		.4byte	.LASF218
 2049 0711 18       		.byte	0x18
 2050 0712 0B       		.uleb128 0xb
 2051 0713 FF0D0000 		.4byte	.LASF219
 2052 0717 19       		.byte	0x19
 2053 0718 0B       		.uleb128 0xb
 2054 0719 06110000 		.4byte	.LASF220
 2055 071d 1B       		.byte	0x1b
 2056 071e 0B       		.uleb128 0xb
 2057 071f 2B090000 		.4byte	.LASF221
 2058 0723 1D       		.byte	0x1d
 2059 0724 0B       		.uleb128 0xb
 2060 0725 2D000000 		.4byte	.LASF222
 2061 0729 1E       		.byte	0x1e
 2062 072a 0B       		.uleb128 0xb
 2063 072b B80D0000 		.4byte	.LASF223
 2064 072f D2       		.byte	0xd2
 2065 0730 0B       		.uleb128 0xb
 2066 0731 C21A0000 		.4byte	.LASF224
 2067 0735 FF       		.byte	0xff
 2068 0736 00       		.byte	0
 2069 0737 11       		.uleb128 0x11
 2070 0738 01       		.byte	0x1
 2071 0739 2C000000 		.4byte	0x2c
 2072 073d 06       		.byte	0x6
 2073 073e A5       		.byte	0xa5
 2074 073f 2E080000 		.4byte	0x82e
 2075 0743 0B       		.uleb128 0xb
 2076 0744 421B0000 		.4byte	.LASF225
ARM GAS  C:\Users\LIAMSA~1\AppData\Local\Temp\cc7Yswwd.s 			page 77


 2077 0748 00       		.byte	0
 2078 0749 0B       		.uleb128 0xb
 2079 074a 921A0000 		.4byte	.LASF226
 2080 074e 01       		.byte	0x1
 2081 074f 0B       		.uleb128 0xb
 2082 0750 6B010000 		.4byte	.LASF227
 2083 0754 02       		.byte	0x2
 2084 0755 0B       		.uleb128 0xb
 2085 0756 3D220000 		.4byte	.LASF228
 2086 075a 03       		.byte	0x3
 2087 075b 0B       		.uleb128 0xb
 2088 075c 85060000 		.4byte	.LASF229
 2089 0760 04       		.byte	0x4
 2090 0761 0B       		.uleb128 0xb
 2091 0762 21160000 		.4byte	.LASF230
 2092 0766 05       		.byte	0x5
 2093 0767 0B       		.uleb128 0xb
 2094 0768 761E0000 		.4byte	.LASF231
 2095 076c 06       		.byte	0x6
 2096 076d 0B       		.uleb128 0xb
 2097 076e 53180000 		.4byte	.LASF232
 2098 0772 07       		.byte	0x7
 2099 0773 0B       		.uleb128 0xb
 2100 0774 9A150000 		.4byte	.LASF233
 2101 0778 08       		.byte	0x8
 2102 0779 0B       		.uleb128 0xb
 2103 077a 8F130000 		.4byte	.LASF234
 2104 077e 09       		.byte	0x9
 2105 077f 0B       		.uleb128 0xb
 2106 0780 09170000 		.4byte	.LASF235
 2107 0784 0A       		.byte	0xa
 2108 0785 0B       		.uleb128 0xb
 2109 0786 F50B0000 		.4byte	.LASF236
 2110 078a 0B       		.byte	0xb
 2111 078b 0B       		.uleb128 0xb
 2112 078c 41140000 		.4byte	.LASF237
 2113 0790 0C       		.byte	0xc
 2114 0791 0B       		.uleb128 0xb
 2115 0792 60070000 		.4byte	.LASF238
 2116 0796 0D       		.byte	0xd
 2117 0797 0B       		.uleb128 0xb
 2118 0798 E80A0000 		.4byte	.LASF239
 2119 079c 0E       		.byte	0xe
 2120 079d 0B       		.uleb128 0xb
 2121 079e 7C220000 		.4byte	.LASF240
 2122 07a2 0F       		.byte	0xf
 2123 07a3 0B       		.uleb128 0xb
 2124 07a4 CF010000 		.4byte	.LASF241
 2125 07a8 10       		.byte	0x10
 2126 07a9 0B       		.uleb128 0xb
 2127 07aa 8D010000 		.4byte	.LASF242
 2128 07ae 11       		.byte	0x11
 2129 07af 0B       		.uleb128 0xb
 2130 07b0 D9020000 		.4byte	.LASF243
 2131 07b4 80       		.byte	0x80
 2132 07b5 0B       		.uleb128 0xb
 2133 07b6 BF0B0000 		.4byte	.LASF244
ARM GAS  C:\Users\LIAMSA~1\AppData\Local\Temp\cc7Yswwd.s 			page 78


 2134 07ba 80       		.byte	0x80
 2135 07bb 0B       		.uleb128 0xb
 2136 07bc 190F0000 		.4byte	.LASF245
 2137 07c0 80       		.byte	0x80
 2138 07c1 0B       		.uleb128 0xb
 2139 07c2 3F1E0000 		.4byte	.LASF246
 2140 07c6 80       		.byte	0x80
 2141 07c7 0B       		.uleb128 0xb
 2142 07c8 AE1B0000 		.4byte	.LASF247
 2143 07cc 80       		.byte	0x80
 2144 07cd 0B       		.uleb128 0xb
 2145 07ce 7E160000 		.4byte	.LASF248
 2146 07d2 80       		.byte	0x80
 2147 07d3 0B       		.uleb128 0xb
 2148 07d4 DE0F0000 		.4byte	.LASF249
 2149 07d8 80       		.byte	0x80
 2150 07d9 0B       		.uleb128 0xb
 2151 07da CD0A0000 		.4byte	.LASF250
 2152 07de 80       		.byte	0x80
 2153 07df 0B       		.uleb128 0xb
 2154 07e0 D40D0000 		.4byte	.LASF251
 2155 07e4 81       		.byte	0x81
 2156 07e5 0B       		.uleb128 0xb
 2157 07e6 CC1C0000 		.4byte	.LASF252
 2158 07ea 81       		.byte	0x81
 2159 07eb 0B       		.uleb128 0xb
 2160 07ec 00000000 		.4byte	.LASF253
 2161 07f0 81       		.byte	0x81
 2162 07f1 0B       		.uleb128 0xb
 2163 07f2 61060000 		.4byte	.LASF254
 2164 07f6 81       		.byte	0x81
 2165 07f7 0B       		.uleb128 0xb
 2166 07f8 AA040000 		.4byte	.LASF255
 2167 07fc 82       		.byte	0x82
 2168 07fd 0B       		.uleb128 0xb
 2169 07fe 0D200000 		.4byte	.LASF256
 2170 0802 A0       		.byte	0xa0
 2171 0803 0B       		.uleb128 0xb
 2172 0804 4B110000 		.4byte	.LASF257
 2173 0808 A0       		.byte	0xa0
 2174 0809 0B       		.uleb128 0xb
 2175 080a FA040000 		.4byte	.LASF258
 2176 080e A1       		.byte	0xa1
 2177 080f 0B       		.uleb128 0xb
 2178 0810 5B1F0000 		.4byte	.LASF259
 2179 0814 A2       		.byte	0xa2
 2180 0815 0B       		.uleb128 0xb
 2181 0816 7E0C0000 		.4byte	.LASF260
 2182 081a A3       		.byte	0xa3
 2183 081b 0B       		.uleb128 0xb
 2184 081c 45080000 		.4byte	.LASF261
 2185 0820 FD       		.byte	0xfd
 2186 0821 0B       		.uleb128 0xb
 2187 0822 94140000 		.4byte	.LASF262
 2188 0826 FE       		.byte	0xfe
 2189 0827 0B       		.uleb128 0xb
 2190 0828 AB180000 		.4byte	.LASF263
ARM GAS  C:\Users\LIAMSA~1\AppData\Local\Temp\cc7Yswwd.s 			page 79


 2191 082c FF       		.byte	0xff
 2192 082d 00       		.byte	0
 2193 082e 04       		.uleb128 0x4
 2194 082f 451F0000 		.4byte	.LASF264
 2195 0833 06       		.byte	0x6
 2196 0834 5F01     		.2byte	0x15f
 2197 0836 37070000 		.4byte	0x737
 2198 083a 04       		.uleb128 0x4
 2199 083b F71A0000 		.4byte	.LASF265
 2200 083f 06       		.byte	0x6
 2201 0840 8901     		.2byte	0x189
 2202 0842 77000000 		.4byte	0x77
 2203 0846 0D       		.uleb128 0xd
 2204 0847 02       		.byte	0x2
 2205 0848 06       		.byte	0x6
 2206 0849 9301     		.2byte	0x193
 2207 084b 6A080000 		.4byte	0x86a
 2208 084f 0E       		.uleb128 0xe
 2209 0850 A1040000 		.4byte	.LASF266
 2210 0854 06       		.byte	0x6
 2211 0855 9A01     		.2byte	0x19a
 2212 0857 6B000000 		.4byte	0x6b
 2213 085b 00       		.byte	0
 2214 085c 0E       		.uleb128 0xe
 2215 085d E0220000 		.4byte	.LASF267
 2216 0861 06       		.byte	0x6
 2217 0862 A001     		.2byte	0x1a0
 2218 0864 6B000000 		.4byte	0x6b
 2219 0868 01       		.byte	0x1
 2220 0869 00       		.byte	0
 2221 086a 04       		.uleb128 0x4
 2222 086b C6030000 		.4byte	.LASF268
 2223 086f 06       		.byte	0x6
 2224 0870 A201     		.2byte	0x1a2
 2225 0872 46080000 		.4byte	0x846
 2226 0876 0D       		.uleb128 0xd
 2227 0877 08       		.byte	0x8
 2228 0878 06       		.byte	0x6
 2229 0879 BE01     		.2byte	0x1be
 2230 087b A7080000 		.4byte	0x8a7
 2231 087f 13       		.uleb128 0x13
 2232 0880 76616C00 		.ascii	"val\000"
 2233 0884 06       		.byte	0x6
 2234 0885 C101     		.2byte	0x1c1
 2235 0887 C7040000 		.4byte	0x4c7
 2236 088b 00       		.byte	0
 2237 088c 13       		.uleb128 0x13
 2238 088d 6C656E00 		.ascii	"len\000"
 2239 0891 06       		.byte	0x6
 2240 0892 C401     		.2byte	0x1c4
 2241 0894 77000000 		.4byte	0x77
 2242 0898 04       		.byte	0x4
 2243 0899 0E       		.uleb128 0xe
 2244 089a B9220000 		.4byte	.LASF269
 2245 089e 06       		.byte	0x6
 2246 089f CB01     		.2byte	0x1cb
 2247 08a1 77000000 		.4byte	0x77
ARM GAS  C:\Users\LIAMSA~1\AppData\Local\Temp\cc7Yswwd.s 			page 80


 2248 08a5 06       		.byte	0x6
 2249 08a6 00       		.byte	0
 2250 08a7 04       		.uleb128 0x4
 2251 08a8 86020000 		.4byte	.LASF270
 2252 08ac 06       		.byte	0x6
 2253 08ad CD01     		.2byte	0x1cd
 2254 08af 76080000 		.4byte	0x876
 2255 08b3 0D       		.uleb128 0xd
 2256 08b4 0C       		.byte	0xc
 2257 08b5 06       		.byte	0x6
 2258 08b6 D001     		.2byte	0x1d0
 2259 08b8 D7080000 		.4byte	0x8d7
 2260 08bc 0E       		.uleb128 0xe
 2261 08bd 561B0000 		.4byte	.LASF271
 2262 08c1 06       		.byte	0x6
 2263 08c2 D301     		.2byte	0x1d3
 2264 08c4 A7080000 		.4byte	0x8a7
 2265 08c8 00       		.byte	0
 2266 08c9 0E       		.uleb128 0xe
 2267 08ca C4150000 		.4byte	.LASF272
 2268 08ce 06       		.byte	0x6
 2269 08cf D601     		.2byte	0x1d6
 2270 08d1 3A080000 		.4byte	0x83a
 2271 08d5 08       		.byte	0x8
 2272 08d6 00       		.byte	0
 2273 08d7 04       		.uleb128 0x4
 2274 08d8 F0060000 		.4byte	.LASF273
 2275 08dc 06       		.byte	0x6
 2276 08dd D801     		.2byte	0x1d8
 2277 08df B3080000 		.4byte	0x8b3
 2278 08e3 0D       		.uleb128 0xd
 2279 08e4 04       		.byte	0x4
 2280 08e5 06       		.byte	0x6
 2281 08e6 E601     		.2byte	0x1e6
 2282 08e8 07090000 		.4byte	0x907
 2283 08ec 0E       		.uleb128 0xe
 2284 08ed 2C1C0000 		.4byte	.LASF274
 2285 08f1 06       		.byte	0x6
 2286 08f2 E901     		.2byte	0x1e9
 2287 08f4 6A080000 		.4byte	0x86a
 2288 08f8 00       		.byte	0
 2289 08f9 13       		.uleb128 0x13
 2290 08fa 6D747500 		.ascii	"mtu\000"
 2291 08fe 06       		.byte	0x6
 2292 08ff EC01     		.2byte	0x1ec
 2293 0901 77000000 		.4byte	0x77
 2294 0905 02       		.byte	0x2
 2295 0906 00       		.byte	0
 2296 0907 04       		.uleb128 0x4
 2297 0908 4C160000 		.4byte	.LASF275
 2298 090c 06       		.byte	0x6
 2299 090d EE01     		.2byte	0x1ee
 2300 090f E3080000 		.4byte	0x8e3
 2301 0913 0D       		.uleb128 0xd
 2302 0914 08       		.byte	0x8
 2303 0915 06       		.byte	0x6
 2304 0916 FC01     		.2byte	0x1fc
ARM GAS  C:\Users\LIAMSA~1\AppData\Local\Temp\cc7Yswwd.s 			page 81


 2305 0918 44090000 		.4byte	0x944
 2306 091c 0E       		.uleb128 0xe
 2307 091d 8D190000 		.4byte	.LASF276
 2308 0921 06       		.byte	0x6
 2309 0922 0102     		.2byte	0x201
 2310 0924 C7040000 		.4byte	0x4c7
 2311 0928 00       		.byte	0
 2312 0929 0E       		.uleb128 0xe
 2313 092a 5C1B0000 		.4byte	.LASF277
 2314 092e 06       		.byte	0x6
 2315 092f 0602     		.2byte	0x206
 2316 0931 77000000 		.4byte	0x77
 2317 0935 04       		.byte	0x4
 2318 0936 0E       		.uleb128 0xe
 2319 0937 880D0000 		.4byte	.LASF278
 2320 093b 06       		.byte	0x6
 2321 093c 0D02     		.2byte	0x20d
 2322 093e 77000000 		.4byte	0x77
 2323 0942 06       		.byte	0x6
 2324 0943 00       		.byte	0
 2325 0944 04       		.uleb128 0x4
 2326 0945 6F110000 		.4byte	.LASF279
 2327 0949 06       		.byte	0x6
 2328 094a 0F02     		.2byte	0x20f
 2329 094c 13090000 		.4byte	0x913
 2330 0950 14       		.uleb128 0x14
 2331 0951 04       		.byte	0x4
 2332 0952 07       		.byte	0x7
 2333 0953 3A       		.byte	0x3a
 2334 0954 7D090000 		.4byte	0x97d
 2335 0958 15       		.uleb128 0x15
 2336 0959 C4150000 		.4byte	.LASF272
 2337 095d 07       		.byte	0x7
 2338 095e 3D       		.byte	0x3d
 2339 095f 3A080000 		.4byte	0x83a
 2340 0963 00       		.byte	0
 2341 0964 15       		.uleb128 0x15
 2342 0965 93150000 		.4byte	.LASF280
 2343 0969 07       		.byte	0x7
 2344 096a 43       		.byte	0x43
 2345 096b 6B000000 		.4byte	0x6b
 2346 096f 02       		.byte	0x2
 2347 0970 15       		.uleb128 0x15
 2348 0971 86090000 		.4byte	.LASF281
 2349 0975 07       		.byte	0x7
 2350 0976 46       		.byte	0x46
 2351 0977 2E080000 		.4byte	0x82e
 2352 097b 03       		.byte	0x3
 2353 097c 00       		.byte	0
 2354 097d 12       		.uleb128 0x12
 2355 097e E7080000 		.4byte	.LASF282
 2356 0982 07       		.byte	0x7
 2357 0983 48       		.byte	0x48
 2358 0984 50090000 		.4byte	0x950
 2359 0988 14       		.uleb128 0x14
 2360 0989 10       		.byte	0x10
 2361 098a 07       		.byte	0x7
ARM GAS  C:\Users\LIAMSA~1\AppData\Local\Temp\cc7Yswwd.s 			page 82


 2362 098b 8A       		.byte	0x8a
 2363 098c A9090000 		.4byte	0x9a9
 2364 0990 15       		.uleb128 0x15
 2365 0991 2C1C0000 		.4byte	.LASF274
 2366 0995 07       		.byte	0x7
 2367 0996 8D       		.byte	0x8d
 2368 0997 6A080000 		.4byte	0x86a
 2369 099b 00       		.byte	0
 2370 099c 15       		.uleb128 0x15
 2371 099d 1E1C0000 		.4byte	.LASF283
 2372 09a1 07       		.byte	0x7
 2373 09a2 90       		.byte	0x90
 2374 09a3 D7080000 		.4byte	0x8d7
 2375 09a7 04       		.byte	0x4
 2376 09a8 00       		.byte	0
 2377 09a9 12       		.uleb128 0x12
 2378 09aa D7150000 		.4byte	.LASF284
 2379 09ae 07       		.byte	0x7
 2380 09af 92       		.byte	0x92
 2381 09b0 88090000 		.4byte	0x988
 2382 09b4 04       		.uleb128 0x4
 2383 09b5 7D030000 		.4byte	.LASF285
 2384 09b9 08       		.byte	0x8
 2385 09ba 0302     		.2byte	0x203
 2386 09bc B9000000 		.4byte	0xb9
 2387 09c0 0A       		.uleb128 0xa
 2388 09c1 01       		.byte	0x1
 2389 09c2 2C000000 		.4byte	0x2c
 2390 09c6 09       		.byte	0x9
 2391 09c7 A808     		.2byte	0x8a8
 2392 09c9 EC090000 		.4byte	0x9ec
 2393 09cd 0B       		.uleb128 0xb
 2394 09ce D3080000 		.4byte	.LASF286
 2395 09d2 00       		.byte	0
 2396 09d3 0B       		.uleb128 0xb
 2397 09d4 CE110000 		.4byte	.LASF287
 2398 09d8 01       		.byte	0x1
 2399 09d9 0B       		.uleb128 0xb
 2400 09da A3220000 		.4byte	.LASF288
 2401 09de 02       		.byte	0x2
 2402 09df 0B       		.uleb128 0xb
 2403 09e0 60040000 		.4byte	.LASF289
 2404 09e4 03       		.byte	0x3
 2405 09e5 0B       		.uleb128 0xb
 2406 09e6 4F1D0000 		.4byte	.LASF290
 2407 09ea 04       		.byte	0x4
 2408 09eb 00       		.byte	0
 2409 09ec 04       		.uleb128 0x4
 2410 09ed D61E0000 		.4byte	.LASF291
 2411 09f1 09       		.byte	0x9
 2412 09f2 B608     		.2byte	0x8b6
 2413 09f4 C0090000 		.4byte	0x9c0
 2414 09f8 0D       		.uleb128 0xd
 2415 09f9 0C       		.byte	0xc
 2416 09fa 09       		.byte	0x9
 2417 09fb 060A     		.2byte	0xa06
 2418 09fd 500A0000 		.4byte	0xa50
ARM GAS  C:\Users\LIAMSA~1\AppData\Local\Temp\cc7Yswwd.s 			page 83


 2419 0a01 0E       		.uleb128 0xe
 2420 0a02 45010000 		.4byte	.LASF292
 2421 0a06 09       		.byte	0x9
 2422 0a07 090A     		.2byte	0xa09
 2423 0a09 3A080000 		.4byte	0x83a
 2424 0a0d 00       		.byte	0
 2425 0a0e 0E       		.uleb128 0xe
 2426 0a0f 7F140000 		.4byte	.LASF293
 2427 0a13 09       		.byte	0x9
 2428 0a14 0B0A     		.2byte	0xa0b
 2429 0a16 3A080000 		.4byte	0x83a
 2430 0a1a 02       		.byte	0x2
 2431 0a1b 0E       		.uleb128 0xe
 2432 0a1c 41190000 		.4byte	.LASF294
 2433 0a20 09       		.byte	0x9
 2434 0a21 0D0A     		.2byte	0xa0d
 2435 0a23 3A080000 		.4byte	0x83a
 2436 0a27 04       		.byte	0x4
 2437 0a28 0E       		.uleb128 0xe
 2438 0a29 AD170000 		.4byte	.LASF295
 2439 0a2d 09       		.byte	0x9
 2440 0a2e 100A     		.2byte	0xa10
 2441 0a30 3A080000 		.4byte	0x83a
 2442 0a34 06       		.byte	0x6
 2443 0a35 0E       		.uleb128 0xe
 2444 0a36 E61F0000 		.4byte	.LASF296
 2445 0a3a 09       		.byte	0x9
 2446 0a3b 120A     		.2byte	0xa12
 2447 0a3d 3A080000 		.4byte	0x83a
 2448 0a41 08       		.byte	0x8
 2449 0a42 0E       		.uleb128 0xe
 2450 0a43 35070000 		.4byte	.LASF297
 2451 0a47 09       		.byte	0x9
 2452 0a48 140A     		.2byte	0xa14
 2453 0a4a 3A080000 		.4byte	0x83a
 2454 0a4e 0A       		.byte	0xa
 2455 0a4f 00       		.byte	0
 2456 0a50 04       		.uleb128 0x4
 2457 0a51 CE1B0000 		.4byte	.LASF298
 2458 0a55 09       		.byte	0x9
 2459 0a56 150A     		.2byte	0xa15
 2460 0a58 F8090000 		.4byte	0x9f8
 2461 0a5c 16       		.uleb128 0x16
 2462 0a5d 7C000000 		.4byte	.LASF301
 2463 0a61 01       		.byte	0x1
 2464 0a62 FC       		.byte	0xfc
 2465 0a63 00000000 		.4byte	.LFB2
 2466 0a67 C4000000 		.4byte	.LFE2-.LFB2
 2467 0a6b 01       		.uleb128 0x1
 2468 0a6c 9C       		.byte	0x9c
 2469 0a6d A70A0000 		.4byte	0xaa7
 2470 0a71 17       		.uleb128 0x17
 2471 0a72 C3000000 		.4byte	.LASF303
 2472 0a76 01       		.byte	0x1
 2473 0a77 FC       		.byte	0xfc
 2474 0a78 A70A0000 		.4byte	0xaa7
 2475 0a7c 02       		.uleb128 0x2
ARM GAS  C:\Users\LIAMSA~1\AppData\Local\Temp\cc7Yswwd.s 			page 84


 2476 0a7d 91       		.byte	0x91
 2477 0a7e 64       		.sleb128 -28
 2478 0a7f 18       		.uleb128 0x18
 2479 0a80 35220000 		.4byte	.LASF299
 2480 0a84 01       		.byte	0x1
 2481 0a85 FE       		.byte	0xfe
 2482 0a86 2E080000 		.4byte	0x82e
 2483 0a8a 02       		.uleb128 0x2
 2484 0a8b 91       		.byte	0x91
 2485 0a8c 6F       		.sleb128 -17
 2486 0a8d 19       		.uleb128 0x19
 2487 0a8e 80000000 		.4byte	.LBB2
 2488 0a92 2C000000 		.4byte	.LBE2-.LBB2
 2489 0a96 1A       		.uleb128 0x1a
 2490 0a97 AC160000 		.4byte	.LASF300
 2491 0a9b 01       		.byte	0x1
 2492 0a9c BE01     		.2byte	0x1be
 2493 0a9e 7D090000 		.4byte	0x97d
 2494 0aa2 02       		.uleb128 0x2
 2495 0aa3 91       		.byte	0x91
 2496 0aa4 68       		.sleb128 -24
 2497 0aa5 00       		.byte	0
 2498 0aa6 00       		.byte	0
 2499 0aa7 07       		.uleb128 0x7
 2500 0aa8 04       		.byte	0x4
 2501 0aa9 A9090000 		.4byte	0x9a9
 2502 0aad 1B       		.uleb128 0x1b
 2503 0aae 27150000 		.4byte	.LASF302
 2504 0ab2 01       		.byte	0x1
 2505 0ab3 DB01     		.2byte	0x1db
 2506 0ab5 00000000 		.4byte	.LFB3
 2507 0ab9 10000000 		.4byte	.LFE3-.LFB3
 2508 0abd 01       		.uleb128 0x1
 2509 0abe 9C       		.byte	0x9c
 2510 0abf D30A0000 		.4byte	0xad3
 2511 0ac3 1C       		.uleb128 0x1c
 2512 0ac4 C3000000 		.4byte	.LASF303
 2513 0ac8 01       		.byte	0x1
 2514 0ac9 DB01     		.2byte	0x1db
 2515 0acb D30A0000 		.4byte	0xad3
 2516 0acf 02       		.uleb128 0x2
 2517 0ad0 91       		.byte	0x91
 2518 0ad1 74       		.sleb128 -12
 2519 0ad2 00       		.byte	0
 2520 0ad3 07       		.uleb128 0x7
 2521 0ad4 04       		.byte	0x4
 2522 0ad5 D90A0000 		.4byte	0xad9
 2523 0ad9 1D       		.uleb128 0x1d
 2524 0ada 6A080000 		.4byte	0x86a
 2525 0ade 1E       		.uleb128 0x1e
 2526 0adf 4E130000 		.4byte	.LASF305
 2527 0ae3 01       		.byte	0x1
 2528 0ae4 6E05     		.2byte	0x56e
 2529 0ae6 00000000 		.4byte	.LFB4
 2530 0aea 1C000000 		.4byte	.LFE4-.LFB4
 2531 0aee 01       		.uleb128 0x1
 2532 0aef 9C       		.byte	0x9c
ARM GAS  C:\Users\LIAMSA~1\AppData\Local\Temp\cc7Yswwd.s 			page 85


 2533 0af0 1B       		.uleb128 0x1b
 2534 0af1 371C0000 		.4byte	.LASF304
 2535 0af5 01       		.byte	0x1
 2536 0af6 A605     		.2byte	0x5a6
 2537 0af8 00000000 		.4byte	.LFB5
 2538 0afc 10000000 		.4byte	.LFE5-.LFB5
 2539 0b00 01       		.uleb128 0x1
 2540 0b01 9C       		.byte	0x9c
 2541 0b02 160B0000 		.4byte	0xb16
 2542 0b06 1C       		.uleb128 0x1c
 2543 0b07 C3000000 		.4byte	.LASF303
 2544 0b0b 01       		.byte	0x1
 2545 0b0c A605     		.2byte	0x5a6
 2546 0b0e 160B0000 		.4byte	0xb16
 2547 0b12 02       		.uleb128 0x2
 2548 0b13 91       		.byte	0x91
 2549 0b14 74       		.sleb128 -12
 2550 0b15 00       		.byte	0
 2551 0b16 07       		.uleb128 0x7
 2552 0b17 04       		.byte	0x4
 2553 0b18 1C0B0000 		.4byte	0xb1c
 2554 0b1c 1D       		.uleb128 0x1d
 2555 0b1d F2040000 		.4byte	0x4f2
 2556 0b21 1F       		.uleb128 0x1f
 2557 0b22 EE120000 		.4byte	.LASF306
 2558 0b26 01       		.byte	0x1
 2559 0b27 DE05     		.2byte	0x5de
 2560 0b29 00000000 		.4byte	.LFB6
 2561 0b2d 0E000000 		.4byte	.LFE6-.LFB6
 2562 0b31 01       		.uleb128 0x1
 2563 0b32 9C       		.byte	0x9c
 2564 0b33 20       		.uleb128 0x20
 2565 0b34 59170000 		.4byte	.LASF334
 2566 0b38 01       		.byte	0x1
 2567 0b39 0A06     		.2byte	0x60a
 2568 0b3b 6B000000 		.4byte	0x6b
 2569 0b3f 00000000 		.4byte	.LFB7
 2570 0b43 60000000 		.4byte	.LFE7-.LFB7
 2571 0b47 01       		.uleb128 0x1
 2572 0b48 9C       		.byte	0x9c
 2573 0b49 790B0000 		.4byte	0xb79
 2574 0b4d 1C       		.uleb128 0x1c
 2575 0b4e 7B0B0000 		.4byte	.LASF307
 2576 0b52 01       		.byte	0x1
 2577 0b53 0A06     		.2byte	0x60a
 2578 0b55 790B0000 		.4byte	0xb79
 2579 0b59 02       		.uleb128 0x2
 2580 0b5a 91       		.byte	0x91
 2581 0b5b 6C       		.sleb128 -20
 2582 0b5c 21       		.uleb128 0x21
 2583 0b5d 6900     		.ascii	"i\000"
 2584 0b5f 01       		.byte	0x1
 2585 0b60 0C06     		.2byte	0x60c
 2586 0b62 6B000000 		.4byte	0x6b
 2587 0b66 02       		.uleb128 0x2
 2588 0b67 91       		.byte	0x91
 2589 0b68 77       		.sleb128 -9
ARM GAS  C:\Users\LIAMSA~1\AppData\Local\Temp\cc7Yswwd.s 			page 86


 2590 0b69 1A       		.uleb128 0x1a
 2591 0b6a 53040000 		.4byte	.LASF308
 2592 0b6e 01       		.byte	0x1
 2593 0b6f 0D06     		.2byte	0x60d
 2594 0b71 6B000000 		.4byte	0x6b
 2595 0b75 02       		.uleb128 0x2
 2596 0b76 91       		.byte	0x91
 2597 0b77 76       		.sleb128 -10
 2598 0b78 00       		.byte	0
 2599 0b79 07       		.uleb128 0x7
 2600 0b7a 04       		.byte	0x4
 2601 0b7b 7F0B0000 		.4byte	0xb7f
 2602 0b7f 1D       		.uleb128 0x1d
 2603 0b80 BB040000 		.4byte	0x4bb
 2604 0b84 1B       		.uleb128 0x1b
 2605 0b85 D01D0000 		.4byte	.LASF309
 2606 0b89 01       		.byte	0x1
 2607 0b8a 2E06     		.2byte	0x62e
 2608 0b8c 00000000 		.4byte	.LFB8
 2609 0b90 14000000 		.4byte	.LFE8-.LFB8
 2610 0b94 01       		.uleb128 0x1
 2611 0b95 9C       		.byte	0x9c
 2612 0b96 AA0B0000 		.4byte	0xbaa
 2613 0b9a 1C       		.uleb128 0x1c
 2614 0b9b 36200000 		.4byte	.LASF310
 2615 0b9f 01       		.byte	0x1
 2616 0ba0 2E06     		.2byte	0x62e
 2617 0ba2 77000000 		.4byte	0x77
 2618 0ba6 02       		.uleb128 0x2
 2619 0ba7 91       		.byte	0x91
 2620 0ba8 76       		.sleb128 -10
 2621 0ba9 00       		.byte	0
 2622 0baa 1B       		.uleb128 0x1b
 2623 0bab 0B0D0000 		.4byte	.LASF311
 2624 0baf 01       		.byte	0x1
 2625 0bb0 4806     		.2byte	0x648
 2626 0bb2 00000000 		.4byte	.LFB9
 2627 0bb6 10000000 		.4byte	.LFE9-.LFB9
 2628 0bba 01       		.uleb128 0x1
 2629 0bbb 9C       		.byte	0x9c
 2630 0bbc D00B0000 		.4byte	0xbd0
 2631 0bc0 1C       		.uleb128 0x1c
 2632 0bc1 C3000000 		.4byte	.LASF303
 2633 0bc5 01       		.byte	0x1
 2634 0bc6 4806     		.2byte	0x648
 2635 0bc8 D00B0000 		.4byte	0xbd0
 2636 0bcc 02       		.uleb128 0x2
 2637 0bcd 91       		.byte	0x91
 2638 0bce 74       		.sleb128 -12
 2639 0bcf 00       		.byte	0
 2640 0bd0 07       		.uleb128 0x7
 2641 0bd1 04       		.byte	0x4
 2642 0bd2 D60B0000 		.4byte	0xbd6
 2643 0bd6 1D       		.uleb128 0x1d
 2644 0bd7 70060000 		.4byte	0x670
 2645 0bdb 22       		.uleb128 0x22
 2646 0bdc 07080000 		.4byte	.LASF335
ARM GAS  C:\Users\LIAMSA~1\AppData\Local\Temp\cc7Yswwd.s 			page 87


 2647 0be0 01       		.byte	0x1
 2648 0be1 6206     		.2byte	0x662
 2649 0be3 00000000 		.4byte	.LFB10
 2650 0be7 80030000 		.4byte	.LFE10-.LFB10
 2651 0beb 01       		.uleb128 0x1
 2652 0bec 9C       		.byte	0x9c
 2653 0bed D60C0000 		.4byte	0xcd6
 2654 0bf1 1C       		.uleb128 0x1c
 2655 0bf2 F6200000 		.4byte	.LASF312
 2656 0bf6 01       		.byte	0x1
 2657 0bf7 6206     		.2byte	0x662
 2658 0bf9 6B000000 		.4byte	0x6b
 2659 0bfd 02       		.uleb128 0x2
 2660 0bfe 91       		.byte	0x91
 2661 0bff 5F       		.sleb128 -33
 2662 0c00 1C       		.uleb128 0x1c
 2663 0c01 C3000000 		.4byte	.LASF303
 2664 0c05 01       		.byte	0x1
 2665 0c06 6206     		.2byte	0x662
 2666 0c08 B7000000 		.4byte	0xb7
 2667 0c0c 02       		.uleb128 0x2
 2668 0c0d 91       		.byte	0x91
 2669 0c0e 58       		.sleb128 -40
 2670 0c0f 23       		.uleb128 0x23
 2671 0c10 32000000 		.4byte	.LBB3
 2672 0c14 3E000000 		.4byte	.LBE3-.LBB3
 2673 0c18 2C0C0000 		.4byte	0xc2c
 2674 0c1c 1A       		.uleb128 0x1a
 2675 0c1d 131B0000 		.4byte	.LASF313
 2676 0c21 01       		.byte	0x1
 2677 0c22 6F06     		.2byte	0x66f
 2678 0c24 18040000 		.4byte	0x418
 2679 0c28 02       		.uleb128 0x2
 2680 0c29 91       		.byte	0x91
 2681 0c2a 68       		.sleb128 -24
 2682 0c2b 00       		.byte	0
 2683 0c2c 23       		.uleb128 0x23
 2684 0c2d A2000000 		.4byte	.LBB4
 2685 0c31 52000000 		.4byte	.LBE4-.LBB4
 2686 0c35 490C0000 		.4byte	0xc49
 2687 0c39 1A       		.uleb128 0x1a
 2688 0c3a 53200000 		.4byte	.LASF314
 2689 0c3e 01       		.byte	0x1
 2690 0c3f 9806     		.2byte	0x698
 2691 0c41 83000000 		.4byte	0x83
 2692 0c45 02       		.uleb128 0x2
 2693 0c46 91       		.byte	0x91
 2694 0c47 70       		.sleb128 -16
 2695 0c48 00       		.byte	0
 2696 0c49 23       		.uleb128 0x23
 2697 0c4a 16010000 		.4byte	.LBB5
 2698 0c4e 1A000000 		.4byte	.LBE5-.LBB5
 2699 0c52 660C0000 		.4byte	0xc66
 2700 0c56 1A       		.uleb128 0x1a
 2701 0c57 681D0000 		.4byte	.LASF315
 2702 0c5b 01       		.byte	0x1
 2703 0c5c B006     		.2byte	0x6b0
ARM GAS  C:\Users\LIAMSA~1\AppData\Local\Temp\cc7Yswwd.s 			page 88


 2704 0c5e D60C0000 		.4byte	0xcd6
 2705 0c62 02       		.uleb128 0x2
 2706 0c63 91       		.byte	0x91
 2707 0c64 64       		.sleb128 -28
 2708 0c65 00       		.byte	0
 2709 0c66 23       		.uleb128 0x23
 2710 0c67 4C010000 		.4byte	.LBB6
 2711 0c6b 3E000000 		.4byte	.LBE6-.LBB6
 2712 0c6f 9F0C0000 		.4byte	0xc9f
 2713 0c73 1A       		.uleb128 0x1a
 2714 0c74 99020000 		.4byte	.LASF316
 2715 0c78 01       		.byte	0x1
 2716 0c79 C806     		.2byte	0x6c8
 2717 0c7b E60C0000 		.4byte	0xce6
 2718 0c7f 02       		.uleb128 0x2
 2719 0c80 91       		.byte	0x91
 2720 0c81 6C       		.sleb128 -20
 2721 0c82 19       		.uleb128 0x19
 2722 0c83 62010000 		.4byte	.LBB7
 2723 0c87 18000000 		.4byte	.LBE7-.LBB7
 2724 0c8b 1A       		.uleb128 0x1a
 2725 0c8c F8160000 		.4byte	.LASF317
 2726 0c90 01       		.byte	0x1
 2727 0c91 CF06     		.2byte	0x6cf
 2728 0c93 44090000 		.4byte	0x944
 2729 0c97 05       		.uleb128 0x5
 2730 0c98 03       		.byte	0x3
 2731 0c99 00000000 		.4byte	gPrepWriteReqMem.6745
 2732 0c9d 00       		.byte	0
 2733 0c9e 00       		.byte	0
 2734 0c9f 23       		.uleb128 0x23
 2735 0ca0 AA010000 		.4byte	.LBB8
 2736 0ca4 40000000 		.4byte	.LBE8-.LBB8
 2737 0ca8 BC0C0000 		.4byte	0xcbc
 2738 0cac 1A       		.uleb128 0x1a
 2739 0cad 72000000 		.4byte	.LASF318
 2740 0cb1 01       		.byte	0x1
 2741 0cb2 F106     		.2byte	0x6f1
 2742 0cb4 6C030000 		.4byte	0x36c
 2743 0cb8 02       		.uleb128 0x2
 2744 0cb9 91       		.byte	0x91
 2745 0cba 62       		.sleb128 -30
 2746 0cbb 00       		.byte	0
 2747 0cbc 19       		.uleb128 0x19
 2748 0cbd B2020000 		.4byte	.LBB9
 2749 0cc1 38000000 		.4byte	.LBE9-.LBB9
 2750 0cc5 1A       		.uleb128 0x1a
 2751 0cc6 E7110000 		.4byte	.LASF319
 2752 0cca 01       		.byte	0x1
 2753 0ccb AE07     		.2byte	0x7ae
 2754 0ccd 77000000 		.4byte	0x77
 2755 0cd1 02       		.uleb128 0x2
 2756 0cd2 91       		.byte	0x91
 2757 0cd3 76       		.sleb128 -10
 2758 0cd4 00       		.byte	0
 2759 0cd5 00       		.byte	0
 2760 0cd6 0F       		.uleb128 0xf
ARM GAS  C:\Users\LIAMSA~1\AppData\Local\Temp\cc7Yswwd.s 			page 89


 2761 0cd7 6B000000 		.4byte	0x6b
 2762 0cdb E60C0000 		.4byte	0xce6
 2763 0cdf 10       		.uleb128 0x10
 2764 0ce0 B0000000 		.4byte	0xb0
 2765 0ce4 01       		.byte	0x1
 2766 0ce5 00       		.byte	0
 2767 0ce6 07       		.uleb128 0x7
 2768 0ce7 04       		.byte	0x4
 2769 0ce8 7B040000 		.4byte	0x47b
 2770 0cec 24       		.uleb128 0x24
 2771 0ced 711B0000 		.4byte	.LASF320
 2772 0cf1 08       		.byte	0x8
 2773 0cf2 9C02     		.2byte	0x29c
 2774 0cf4 B4090000 		.4byte	0x9b4
 2775 0cf8 0F       		.uleb128 0xf
 2776 0cf9 6B000000 		.4byte	0x6b
 2777 0cfd 090D0000 		.4byte	0xd09
 2778 0d01 25       		.uleb128 0x25
 2779 0d02 B0000000 		.4byte	0xb0
 2780 0d06 DF0A     		.2byte	0xadf
 2781 0d08 00       		.byte	0
 2782 0d09 24       		.uleb128 0x24
 2783 0d0a 961F0000 		.4byte	.LASF321
 2784 0d0e 08       		.byte	0x8
 2785 0d0f A102     		.2byte	0x2a1
 2786 0d11 F80C0000 		.4byte	0xcf8
 2787 0d15 26       		.uleb128 0x26
 2788 0d16 890B0000 		.4byte	.LASF322
 2789 0d1a 01       		.byte	0x1
 2790 0d1b 3D       		.byte	0x3d
 2791 0d1c A4000000 		.4byte	0xa4
 2792 0d20 05       		.uleb128 0x5
 2793 0d21 03       		.byte	0x3
 2794 0d22 00000000 		.4byte	cyBle_eventHandlerFlag
 2795 0d26 24       		.uleb128 0x24
 2796 0d27 4D060000 		.4byte	.LASF323
 2797 0d2b 08       		.byte	0x8
 2798 0d2c A402     		.2byte	0x2a4
 2799 0d2e BB040000 		.4byte	0x4bb
 2800 0d32 24       		.uleb128 0x24
 2801 0d33 9E0D0000 		.4byte	.LASF324
 2802 0d37 08       		.byte	0x8
 2803 0d38 A502     		.2byte	0x2a5
 2804 0d3a 3E0D0000 		.4byte	0xd3e
 2805 0d3e 07       		.uleb128 0x7
 2806 0d3f 04       		.byte	0x4
 2807 0d40 BB040000 		.4byte	0x4bb
 2808 0d44 26       		.uleb128 0x26
 2809 0d45 9D1D0000 		.4byte	.LASF325
 2810 0d49 01       		.byte	0x1
 2811 0d4a E4       		.byte	0xe4
 2812 0d4b 26060000 		.4byte	0x626
 2813 0d4f 05       		.uleb128 0x5
 2814 0d50 03       		.byte	0x3
 2815 0d51 00000000 		.4byte	cyBle_authInfo
 2816 0d55 24       		.uleb128 0x24
 2817 0d56 ED1C0000 		.4byte	.LASF326
ARM GAS  C:\Users\LIAMSA~1\AppData\Local\Temp\cc7Yswwd.s 			page 90


 2818 0d5a 09       		.byte	0x9
 2819 0d5b 160B     		.2byte	0xb16
 2820 0d5d EC090000 		.4byte	0x9ec
 2821 0d61 26       		.uleb128 0x26
 2822 0d62 AB0C0000 		.4byte	.LASF327
 2823 0d66 01       		.byte	0x1
 2824 0d67 3B       		.byte	0x3b
 2825 0d68 6A080000 		.4byte	0x86a
 2826 0d6c 05       		.uleb128 0x5
 2827 0d6d 03       		.byte	0x3
 2828 0d6e 00000000 		.4byte	cyBle_connHandle
 2829 0d72 26       		.uleb128 0x26
 2830 0d73 BD110000 		.4byte	.LASF328
 2831 0d77 01       		.byte	0x1
 2832 0d78 3E       		.byte	0x3e
 2833 0d79 A4000000 		.4byte	0xa4
 2834 0d7d 05       		.uleb128 0x5
 2835 0d7e 03       		.byte	0x3
 2836 0d7f 00000000 		.4byte	cyBle_busyStatus
 2837 0d83 26       		.uleb128 0x26
 2838 0d84 A00C0000 		.4byte	.LASF329
 2839 0d88 01       		.byte	0x1
 2840 0d89 40       		.byte	0x40
 2841 0d8a 940D0000 		.4byte	0xd94
 2842 0d8e 05       		.uleb128 0x5
 2843 0d8f 03       		.byte	0x3
 2844 0d90 00000000 		.4byte	cyBle_gaps
 2845 0d94 1D       		.uleb128 0x1d
 2846 0d95 500A0000 		.4byte	0xa50
 2847 0d99 26       		.uleb128 0x26
 2848 0d9a AB1F0000 		.4byte	.LASF330
 2849 0d9e 01       		.byte	0x1
 2850 0d9f 4C       		.byte	0x4c
 2851 0da0 6B000000 		.4byte	0x6b
 2852 0da4 05       		.uleb128 0x5
 2853 0da5 03       		.byte	0x3
 2854 0da6 00000000 		.4byte	cyBle_advertisingIntervalType
 2855 0daa 00       		.byte	0
 2856              		.section	.debug_abbrev,"",%progbits
 2857              	.Ldebug_abbrev0:
 2858 0000 01       		.uleb128 0x1
 2859 0001 11       		.uleb128 0x11
 2860 0002 01       		.byte	0x1
 2861 0003 25       		.uleb128 0x25
 2862 0004 0E       		.uleb128 0xe
 2863 0005 13       		.uleb128 0x13
 2864 0006 0B       		.uleb128 0xb
 2865 0007 03       		.uleb128 0x3
 2866 0008 0E       		.uleb128 0xe
 2867 0009 1B       		.uleb128 0x1b
 2868 000a 0E       		.uleb128 0xe
 2869 000b 55       		.uleb128 0x55
 2870 000c 17       		.uleb128 0x17
 2871 000d 11       		.uleb128 0x11
 2872 000e 01       		.uleb128 0x1
 2873 000f 10       		.uleb128 0x10
 2874 0010 17       		.uleb128 0x17
ARM GAS  C:\Users\LIAMSA~1\AppData\Local\Temp\cc7Yswwd.s 			page 91


 2875 0011 00       		.byte	0
 2876 0012 00       		.byte	0
 2877 0013 02       		.uleb128 0x2
 2878 0014 24       		.uleb128 0x24
 2879 0015 00       		.byte	0
 2880 0016 0B       		.uleb128 0xb
 2881 0017 0B       		.uleb128 0xb
 2882 0018 3E       		.uleb128 0x3e
 2883 0019 0B       		.uleb128 0xb
 2884 001a 03       		.uleb128 0x3
 2885 001b 0E       		.uleb128 0xe
 2886 001c 00       		.byte	0
 2887 001d 00       		.byte	0
 2888 001e 03       		.uleb128 0x3
 2889 001f 24       		.uleb128 0x24
 2890 0020 00       		.byte	0
 2891 0021 0B       		.uleb128 0xb
 2892 0022 0B       		.uleb128 0xb
 2893 0023 3E       		.uleb128 0x3e
 2894 0024 0B       		.uleb128 0xb
 2895 0025 03       		.uleb128 0x3
 2896 0026 08       		.uleb128 0x8
 2897 0027 00       		.byte	0
 2898 0028 00       		.byte	0
 2899 0029 04       		.uleb128 0x4
 2900 002a 16       		.uleb128 0x16
 2901 002b 00       		.byte	0
 2902 002c 03       		.uleb128 0x3
 2903 002d 0E       		.uleb128 0xe
 2904 002e 3A       		.uleb128 0x3a
 2905 002f 0B       		.uleb128 0xb
 2906 0030 3B       		.uleb128 0x3b
 2907 0031 05       		.uleb128 0x5
 2908 0032 49       		.uleb128 0x49
 2909 0033 13       		.uleb128 0x13
 2910 0034 00       		.byte	0
 2911 0035 00       		.byte	0
 2912 0036 05       		.uleb128 0x5
 2913 0037 35       		.uleb128 0x35
 2914 0038 00       		.byte	0
 2915 0039 49       		.uleb128 0x49
 2916 003a 13       		.uleb128 0x13
 2917 003b 00       		.byte	0
 2918 003c 00       		.byte	0
 2919 003d 06       		.uleb128 0x6
 2920 003e 0F       		.uleb128 0xf
 2921 003f 00       		.byte	0
 2922 0040 0B       		.uleb128 0xb
 2923 0041 0B       		.uleb128 0xb
 2924 0042 00       		.byte	0
 2925 0043 00       		.byte	0
 2926 0044 07       		.uleb128 0x7
 2927 0045 0F       		.uleb128 0xf
 2928 0046 00       		.byte	0
 2929 0047 0B       		.uleb128 0xb
 2930 0048 0B       		.uleb128 0xb
 2931 0049 49       		.uleb128 0x49
ARM GAS  C:\Users\LIAMSA~1\AppData\Local\Temp\cc7Yswwd.s 			page 92


 2932 004a 13       		.uleb128 0x13
 2933 004b 00       		.byte	0
 2934 004c 00       		.byte	0
 2935 004d 08       		.uleb128 0x8
 2936 004e 15       		.uleb128 0x15
 2937 004f 01       		.byte	0x1
 2938 0050 27       		.uleb128 0x27
 2939 0051 19       		.uleb128 0x19
 2940 0052 01       		.uleb128 0x1
 2941 0053 13       		.uleb128 0x13
 2942 0054 00       		.byte	0
 2943 0055 00       		.byte	0
 2944 0056 09       		.uleb128 0x9
 2945 0057 05       		.uleb128 0x5
 2946 0058 00       		.byte	0
 2947 0059 49       		.uleb128 0x49
 2948 005a 13       		.uleb128 0x13
 2949 005b 00       		.byte	0
 2950 005c 00       		.byte	0
 2951 005d 0A       		.uleb128 0xa
 2952 005e 04       		.uleb128 0x4
 2953 005f 01       		.byte	0x1
 2954 0060 0B       		.uleb128 0xb
 2955 0061 0B       		.uleb128 0xb
 2956 0062 49       		.uleb128 0x49
 2957 0063 13       		.uleb128 0x13
 2958 0064 3A       		.uleb128 0x3a
 2959 0065 0B       		.uleb128 0xb
 2960 0066 3B       		.uleb128 0x3b
 2961 0067 05       		.uleb128 0x5
 2962 0068 01       		.uleb128 0x1
 2963 0069 13       		.uleb128 0x13
 2964 006a 00       		.byte	0
 2965 006b 00       		.byte	0
 2966 006c 0B       		.uleb128 0xb
 2967 006d 28       		.uleb128 0x28
 2968 006e 00       		.byte	0
 2969 006f 03       		.uleb128 0x3
 2970 0070 0E       		.uleb128 0xe
 2971 0071 1C       		.uleb128 0x1c
 2972 0072 0B       		.uleb128 0xb
 2973 0073 00       		.byte	0
 2974 0074 00       		.byte	0
 2975 0075 0C       		.uleb128 0xc
 2976 0076 28       		.uleb128 0x28
 2977 0077 00       		.byte	0
 2978 0078 03       		.uleb128 0x3
 2979 0079 0E       		.uleb128 0xe
 2980 007a 1C       		.uleb128 0x1c
 2981 007b 05       		.uleb128 0x5
 2982 007c 00       		.byte	0
 2983 007d 00       		.byte	0
 2984 007e 0D       		.uleb128 0xd
 2985 007f 13       		.uleb128 0x13
 2986 0080 01       		.byte	0x1
 2987 0081 0B       		.uleb128 0xb
 2988 0082 0B       		.uleb128 0xb
ARM GAS  C:\Users\LIAMSA~1\AppData\Local\Temp\cc7Yswwd.s 			page 93


 2989 0083 3A       		.uleb128 0x3a
 2990 0084 0B       		.uleb128 0xb
 2991 0085 3B       		.uleb128 0x3b
 2992 0086 05       		.uleb128 0x5
 2993 0087 01       		.uleb128 0x1
 2994 0088 13       		.uleb128 0x13
 2995 0089 00       		.byte	0
 2996 008a 00       		.byte	0
 2997 008b 0E       		.uleb128 0xe
 2998 008c 0D       		.uleb128 0xd
 2999 008d 00       		.byte	0
 3000 008e 03       		.uleb128 0x3
 3001 008f 0E       		.uleb128 0xe
 3002 0090 3A       		.uleb128 0x3a
 3003 0091 0B       		.uleb128 0xb
 3004 0092 3B       		.uleb128 0x3b
 3005 0093 05       		.uleb128 0x5
 3006 0094 49       		.uleb128 0x49
 3007 0095 13       		.uleb128 0x13
 3008 0096 38       		.uleb128 0x38
 3009 0097 0B       		.uleb128 0xb
 3010 0098 00       		.byte	0
 3011 0099 00       		.byte	0
 3012 009a 0F       		.uleb128 0xf
 3013 009b 01       		.uleb128 0x1
 3014 009c 01       		.byte	0x1
 3015 009d 49       		.uleb128 0x49
 3016 009e 13       		.uleb128 0x13
 3017 009f 01       		.uleb128 0x1
 3018 00a0 13       		.uleb128 0x13
 3019 00a1 00       		.byte	0
 3020 00a2 00       		.byte	0
 3021 00a3 10       		.uleb128 0x10
 3022 00a4 21       		.uleb128 0x21
 3023 00a5 00       		.byte	0
 3024 00a6 49       		.uleb128 0x49
 3025 00a7 13       		.uleb128 0x13
 3026 00a8 2F       		.uleb128 0x2f
 3027 00a9 0B       		.uleb128 0xb
 3028 00aa 00       		.byte	0
 3029 00ab 00       		.byte	0
 3030 00ac 11       		.uleb128 0x11
 3031 00ad 04       		.uleb128 0x4
 3032 00ae 01       		.byte	0x1
 3033 00af 0B       		.uleb128 0xb
 3034 00b0 0B       		.uleb128 0xb
 3035 00b1 49       		.uleb128 0x49
 3036 00b2 13       		.uleb128 0x13
 3037 00b3 3A       		.uleb128 0x3a
 3038 00b4 0B       		.uleb128 0xb
 3039 00b5 3B       		.uleb128 0x3b
 3040 00b6 0B       		.uleb128 0xb
 3041 00b7 01       		.uleb128 0x1
 3042 00b8 13       		.uleb128 0x13
 3043 00b9 00       		.byte	0
 3044 00ba 00       		.byte	0
 3045 00bb 12       		.uleb128 0x12
ARM GAS  C:\Users\LIAMSA~1\AppData\Local\Temp\cc7Yswwd.s 			page 94


 3046 00bc 16       		.uleb128 0x16
 3047 00bd 00       		.byte	0
 3048 00be 03       		.uleb128 0x3
 3049 00bf 0E       		.uleb128 0xe
 3050 00c0 3A       		.uleb128 0x3a
 3051 00c1 0B       		.uleb128 0xb
 3052 00c2 3B       		.uleb128 0x3b
 3053 00c3 0B       		.uleb128 0xb
 3054 00c4 49       		.uleb128 0x49
 3055 00c5 13       		.uleb128 0x13
 3056 00c6 00       		.byte	0
 3057 00c7 00       		.byte	0
 3058 00c8 13       		.uleb128 0x13
 3059 00c9 0D       		.uleb128 0xd
 3060 00ca 00       		.byte	0
 3061 00cb 03       		.uleb128 0x3
 3062 00cc 08       		.uleb128 0x8
 3063 00cd 3A       		.uleb128 0x3a
 3064 00ce 0B       		.uleb128 0xb
 3065 00cf 3B       		.uleb128 0x3b
 3066 00d0 05       		.uleb128 0x5
 3067 00d1 49       		.uleb128 0x49
 3068 00d2 13       		.uleb128 0x13
 3069 00d3 38       		.uleb128 0x38
 3070 00d4 0B       		.uleb128 0xb
 3071 00d5 00       		.byte	0
 3072 00d6 00       		.byte	0
 3073 00d7 14       		.uleb128 0x14
 3074 00d8 13       		.uleb128 0x13
 3075 00d9 01       		.byte	0x1
 3076 00da 0B       		.uleb128 0xb
 3077 00db 0B       		.uleb128 0xb
 3078 00dc 3A       		.uleb128 0x3a
 3079 00dd 0B       		.uleb128 0xb
 3080 00de 3B       		.uleb128 0x3b
 3081 00df 0B       		.uleb128 0xb
 3082 00e0 01       		.uleb128 0x1
 3083 00e1 13       		.uleb128 0x13
 3084 00e2 00       		.byte	0
 3085 00e3 00       		.byte	0
 3086 00e4 15       		.uleb128 0x15
 3087 00e5 0D       		.uleb128 0xd
 3088 00e6 00       		.byte	0
 3089 00e7 03       		.uleb128 0x3
 3090 00e8 0E       		.uleb128 0xe
 3091 00e9 3A       		.uleb128 0x3a
 3092 00ea 0B       		.uleb128 0xb
 3093 00eb 3B       		.uleb128 0x3b
 3094 00ec 0B       		.uleb128 0xb
 3095 00ed 49       		.uleb128 0x49
 3096 00ee 13       		.uleb128 0x13
 3097 00ef 38       		.uleb128 0x38
 3098 00f0 0B       		.uleb128 0xb
 3099 00f1 00       		.byte	0
 3100 00f2 00       		.byte	0
 3101 00f3 16       		.uleb128 0x16
 3102 00f4 2E       		.uleb128 0x2e
ARM GAS  C:\Users\LIAMSA~1\AppData\Local\Temp\cc7Yswwd.s 			page 95


 3103 00f5 01       		.byte	0x1
 3104 00f6 03       		.uleb128 0x3
 3105 00f7 0E       		.uleb128 0xe
 3106 00f8 3A       		.uleb128 0x3a
 3107 00f9 0B       		.uleb128 0xb
 3108 00fa 3B       		.uleb128 0x3b
 3109 00fb 0B       		.uleb128 0xb
 3110 00fc 27       		.uleb128 0x27
 3111 00fd 19       		.uleb128 0x19
 3112 00fe 11       		.uleb128 0x11
 3113 00ff 01       		.uleb128 0x1
 3114 0100 12       		.uleb128 0x12
 3115 0101 06       		.uleb128 0x6
 3116 0102 40       		.uleb128 0x40
 3117 0103 18       		.uleb128 0x18
 3118 0104 9642     		.uleb128 0x2116
 3119 0106 19       		.uleb128 0x19
 3120 0107 01       		.uleb128 0x1
 3121 0108 13       		.uleb128 0x13
 3122 0109 00       		.byte	0
 3123 010a 00       		.byte	0
 3124 010b 17       		.uleb128 0x17
 3125 010c 05       		.uleb128 0x5
 3126 010d 00       		.byte	0
 3127 010e 03       		.uleb128 0x3
 3128 010f 0E       		.uleb128 0xe
 3129 0110 3A       		.uleb128 0x3a
 3130 0111 0B       		.uleb128 0xb
 3131 0112 3B       		.uleb128 0x3b
 3132 0113 0B       		.uleb128 0xb
 3133 0114 49       		.uleb128 0x49
 3134 0115 13       		.uleb128 0x13
 3135 0116 02       		.uleb128 0x2
 3136 0117 18       		.uleb128 0x18
 3137 0118 00       		.byte	0
 3138 0119 00       		.byte	0
 3139 011a 18       		.uleb128 0x18
 3140 011b 34       		.uleb128 0x34
 3141 011c 00       		.byte	0
 3142 011d 03       		.uleb128 0x3
 3143 011e 0E       		.uleb128 0xe
 3144 011f 3A       		.uleb128 0x3a
 3145 0120 0B       		.uleb128 0xb
 3146 0121 3B       		.uleb128 0x3b
 3147 0122 0B       		.uleb128 0xb
 3148 0123 49       		.uleb128 0x49
 3149 0124 13       		.uleb128 0x13
 3150 0125 02       		.uleb128 0x2
 3151 0126 18       		.uleb128 0x18
 3152 0127 00       		.byte	0
 3153 0128 00       		.byte	0
 3154 0129 19       		.uleb128 0x19
 3155 012a 0B       		.uleb128 0xb
 3156 012b 01       		.byte	0x1
 3157 012c 11       		.uleb128 0x11
 3158 012d 01       		.uleb128 0x1
 3159 012e 12       		.uleb128 0x12
ARM GAS  C:\Users\LIAMSA~1\AppData\Local\Temp\cc7Yswwd.s 			page 96


 3160 012f 06       		.uleb128 0x6
 3161 0130 00       		.byte	0
 3162 0131 00       		.byte	0
 3163 0132 1A       		.uleb128 0x1a
 3164 0133 34       		.uleb128 0x34
 3165 0134 00       		.byte	0
 3166 0135 03       		.uleb128 0x3
 3167 0136 0E       		.uleb128 0xe
 3168 0137 3A       		.uleb128 0x3a
 3169 0138 0B       		.uleb128 0xb
 3170 0139 3B       		.uleb128 0x3b
 3171 013a 05       		.uleb128 0x5
 3172 013b 49       		.uleb128 0x49
 3173 013c 13       		.uleb128 0x13
 3174 013d 02       		.uleb128 0x2
 3175 013e 18       		.uleb128 0x18
 3176 013f 00       		.byte	0
 3177 0140 00       		.byte	0
 3178 0141 1B       		.uleb128 0x1b
 3179 0142 2E       		.uleb128 0x2e
 3180 0143 01       		.byte	0x1
 3181 0144 03       		.uleb128 0x3
 3182 0145 0E       		.uleb128 0xe
 3183 0146 3A       		.uleb128 0x3a
 3184 0147 0B       		.uleb128 0xb
 3185 0148 3B       		.uleb128 0x3b
 3186 0149 05       		.uleb128 0x5
 3187 014a 27       		.uleb128 0x27
 3188 014b 19       		.uleb128 0x19
 3189 014c 11       		.uleb128 0x11
 3190 014d 01       		.uleb128 0x1
 3191 014e 12       		.uleb128 0x12
 3192 014f 06       		.uleb128 0x6
 3193 0150 40       		.uleb128 0x40
 3194 0151 18       		.uleb128 0x18
 3195 0152 9742     		.uleb128 0x2117
 3196 0154 19       		.uleb128 0x19
 3197 0155 01       		.uleb128 0x1
 3198 0156 13       		.uleb128 0x13
 3199 0157 00       		.byte	0
 3200 0158 00       		.byte	0
 3201 0159 1C       		.uleb128 0x1c
 3202 015a 05       		.uleb128 0x5
 3203 015b 00       		.byte	0
 3204 015c 03       		.uleb128 0x3
 3205 015d 0E       		.uleb128 0xe
 3206 015e 3A       		.uleb128 0x3a
 3207 015f 0B       		.uleb128 0xb
 3208 0160 3B       		.uleb128 0x3b
 3209 0161 05       		.uleb128 0x5
 3210 0162 49       		.uleb128 0x49
 3211 0163 13       		.uleb128 0x13
 3212 0164 02       		.uleb128 0x2
 3213 0165 18       		.uleb128 0x18
 3214 0166 00       		.byte	0
 3215 0167 00       		.byte	0
 3216 0168 1D       		.uleb128 0x1d
ARM GAS  C:\Users\LIAMSA~1\AppData\Local\Temp\cc7Yswwd.s 			page 97


 3217 0169 26       		.uleb128 0x26
 3218 016a 00       		.byte	0
 3219 016b 49       		.uleb128 0x49
 3220 016c 13       		.uleb128 0x13
 3221 016d 00       		.byte	0
 3222 016e 00       		.byte	0
 3223 016f 1E       		.uleb128 0x1e
 3224 0170 2E       		.uleb128 0x2e
 3225 0171 00       		.byte	0
 3226 0172 03       		.uleb128 0x3
 3227 0173 0E       		.uleb128 0xe
 3228 0174 3A       		.uleb128 0x3a
 3229 0175 0B       		.uleb128 0xb
 3230 0176 3B       		.uleb128 0x3b
 3231 0177 05       		.uleb128 0x5
 3232 0178 27       		.uleb128 0x27
 3233 0179 19       		.uleb128 0x19
 3234 017a 11       		.uleb128 0x11
 3235 017b 01       		.uleb128 0x1
 3236 017c 12       		.uleb128 0x12
 3237 017d 06       		.uleb128 0x6
 3238 017e 40       		.uleb128 0x40
 3239 017f 18       		.uleb128 0x18
 3240 0180 9742     		.uleb128 0x2117
 3241 0182 19       		.uleb128 0x19
 3242 0183 00       		.byte	0
 3243 0184 00       		.byte	0
 3244 0185 1F       		.uleb128 0x1f
 3245 0186 2E       		.uleb128 0x2e
 3246 0187 00       		.byte	0
 3247 0188 03       		.uleb128 0x3
 3248 0189 0E       		.uleb128 0xe
 3249 018a 3A       		.uleb128 0x3a
 3250 018b 0B       		.uleb128 0xb
 3251 018c 3B       		.uleb128 0x3b
 3252 018d 05       		.uleb128 0x5
 3253 018e 27       		.uleb128 0x27
 3254 018f 19       		.uleb128 0x19
 3255 0190 11       		.uleb128 0x11
 3256 0191 01       		.uleb128 0x1
 3257 0192 12       		.uleb128 0x12
 3258 0193 06       		.uleb128 0x6
 3259 0194 40       		.uleb128 0x40
 3260 0195 18       		.uleb128 0x18
 3261 0196 9642     		.uleb128 0x2116
 3262 0198 19       		.uleb128 0x19
 3263 0199 00       		.byte	0
 3264 019a 00       		.byte	0
 3265 019b 20       		.uleb128 0x20
 3266 019c 2E       		.uleb128 0x2e
 3267 019d 01       		.byte	0x1
 3268 019e 3F       		.uleb128 0x3f
 3269 019f 19       		.uleb128 0x19
 3270 01a0 03       		.uleb128 0x3
 3271 01a1 0E       		.uleb128 0xe
 3272 01a2 3A       		.uleb128 0x3a
 3273 01a3 0B       		.uleb128 0xb
ARM GAS  C:\Users\LIAMSA~1\AppData\Local\Temp\cc7Yswwd.s 			page 98


 3274 01a4 3B       		.uleb128 0x3b
 3275 01a5 05       		.uleb128 0x5
 3276 01a6 27       		.uleb128 0x27
 3277 01a7 19       		.uleb128 0x19
 3278 01a8 49       		.uleb128 0x49
 3279 01a9 13       		.uleb128 0x13
 3280 01aa 11       		.uleb128 0x11
 3281 01ab 01       		.uleb128 0x1
 3282 01ac 12       		.uleb128 0x12
 3283 01ad 06       		.uleb128 0x6
 3284 01ae 40       		.uleb128 0x40
 3285 01af 18       		.uleb128 0x18
 3286 01b0 9742     		.uleb128 0x2117
 3287 01b2 19       		.uleb128 0x19
 3288 01b3 01       		.uleb128 0x1
 3289 01b4 13       		.uleb128 0x13
 3290 01b5 00       		.byte	0
 3291 01b6 00       		.byte	0
 3292 01b7 21       		.uleb128 0x21
 3293 01b8 34       		.uleb128 0x34
 3294 01b9 00       		.byte	0
 3295 01ba 03       		.uleb128 0x3
 3296 01bb 08       		.uleb128 0x8
 3297 01bc 3A       		.uleb128 0x3a
 3298 01bd 0B       		.uleb128 0xb
 3299 01be 3B       		.uleb128 0x3b
 3300 01bf 05       		.uleb128 0x5
 3301 01c0 49       		.uleb128 0x49
 3302 01c1 13       		.uleb128 0x13
 3303 01c2 02       		.uleb128 0x2
 3304 01c3 18       		.uleb128 0x18
 3305 01c4 00       		.byte	0
 3306 01c5 00       		.byte	0
 3307 01c6 22       		.uleb128 0x22
 3308 01c7 2E       		.uleb128 0x2e
 3309 01c8 01       		.byte	0x1
 3310 01c9 3F       		.uleb128 0x3f
 3311 01ca 19       		.uleb128 0x19
 3312 01cb 03       		.uleb128 0x3
 3313 01cc 0E       		.uleb128 0xe
 3314 01cd 3A       		.uleb128 0x3a
 3315 01ce 0B       		.uleb128 0xb
 3316 01cf 3B       		.uleb128 0x3b
 3317 01d0 05       		.uleb128 0x5
 3318 01d1 27       		.uleb128 0x27
 3319 01d2 19       		.uleb128 0x19
 3320 01d3 11       		.uleb128 0x11
 3321 01d4 01       		.uleb128 0x1
 3322 01d5 12       		.uleb128 0x12
 3323 01d6 06       		.uleb128 0x6
 3324 01d7 40       		.uleb128 0x40
 3325 01d8 18       		.uleb128 0x18
 3326 01d9 9642     		.uleb128 0x2116
 3327 01db 19       		.uleb128 0x19
 3328 01dc 01       		.uleb128 0x1
 3329 01dd 13       		.uleb128 0x13
 3330 01de 00       		.byte	0
ARM GAS  C:\Users\LIAMSA~1\AppData\Local\Temp\cc7Yswwd.s 			page 99


 3331 01df 00       		.byte	0
 3332 01e0 23       		.uleb128 0x23
 3333 01e1 0B       		.uleb128 0xb
 3334 01e2 01       		.byte	0x1
 3335 01e3 11       		.uleb128 0x11
 3336 01e4 01       		.uleb128 0x1
 3337 01e5 12       		.uleb128 0x12
 3338 01e6 06       		.uleb128 0x6
 3339 01e7 01       		.uleb128 0x1
 3340 01e8 13       		.uleb128 0x13
 3341 01e9 00       		.byte	0
 3342 01ea 00       		.byte	0
 3343 01eb 24       		.uleb128 0x24
 3344 01ec 34       		.uleb128 0x34
 3345 01ed 00       		.byte	0
 3346 01ee 03       		.uleb128 0x3
 3347 01ef 0E       		.uleb128 0xe
 3348 01f0 3A       		.uleb128 0x3a
 3349 01f1 0B       		.uleb128 0xb
 3350 01f2 3B       		.uleb128 0x3b
 3351 01f3 05       		.uleb128 0x5
 3352 01f4 49       		.uleb128 0x49
 3353 01f5 13       		.uleb128 0x13
 3354 01f6 3F       		.uleb128 0x3f
 3355 01f7 19       		.uleb128 0x19
 3356 01f8 3C       		.uleb128 0x3c
 3357 01f9 19       		.uleb128 0x19
 3358 01fa 00       		.byte	0
 3359 01fb 00       		.byte	0
 3360 01fc 25       		.uleb128 0x25
 3361 01fd 21       		.uleb128 0x21
 3362 01fe 00       		.byte	0
 3363 01ff 49       		.uleb128 0x49
 3364 0200 13       		.uleb128 0x13
 3365 0201 2F       		.uleb128 0x2f
 3366 0202 05       		.uleb128 0x5
 3367 0203 00       		.byte	0
 3368 0204 00       		.byte	0
 3369 0205 26       		.uleb128 0x26
 3370 0206 34       		.uleb128 0x34
 3371 0207 00       		.byte	0
 3372 0208 03       		.uleb128 0x3
 3373 0209 0E       		.uleb128 0xe
 3374 020a 3A       		.uleb128 0x3a
 3375 020b 0B       		.uleb128 0xb
 3376 020c 3B       		.uleb128 0x3b
 3377 020d 0B       		.uleb128 0xb
 3378 020e 49       		.uleb128 0x49
 3379 020f 13       		.uleb128 0x13
 3380 0210 3F       		.uleb128 0x3f
 3381 0211 19       		.uleb128 0x19
 3382 0212 02       		.uleb128 0x2
 3383 0213 18       		.uleb128 0x18
 3384 0214 00       		.byte	0
 3385 0215 00       		.byte	0
 3386 0216 00       		.byte	0
 3387              		.section	.debug_aranges,"",%progbits
ARM GAS  C:\Users\LIAMSA~1\AppData\Local\Temp\cc7Yswwd.s 			page 100


 3388 0000 5C000000 		.4byte	0x5c
 3389 0004 0200     		.2byte	0x2
 3390 0006 00000000 		.4byte	.Ldebug_info0
 3391 000a 04       		.byte	0x4
 3392 000b 00       		.byte	0
 3393 000c 0000     		.2byte	0
 3394 000e 0000     		.2byte	0
 3395 0010 00000000 		.4byte	.LFB2
 3396 0014 C4000000 		.4byte	.LFE2-.LFB2
 3397 0018 00000000 		.4byte	.LFB3
 3398 001c 10000000 		.4byte	.LFE3-.LFB3
 3399 0020 00000000 		.4byte	.LFB4
 3400 0024 1C000000 		.4byte	.LFE4-.LFB4
 3401 0028 00000000 		.4byte	.LFB5
 3402 002c 10000000 		.4byte	.LFE5-.LFB5
 3403 0030 00000000 		.4byte	.LFB6
 3404 0034 0E000000 		.4byte	.LFE6-.LFB6
 3405 0038 00000000 		.4byte	.LFB7
 3406 003c 60000000 		.4byte	.LFE7-.LFB7
 3407 0040 00000000 		.4byte	.LFB8
 3408 0044 14000000 		.4byte	.LFE8-.LFB8
 3409 0048 00000000 		.4byte	.LFB9
 3410 004c 10000000 		.4byte	.LFE9-.LFB9
 3411 0050 00000000 		.4byte	.LFB10
 3412 0054 80030000 		.4byte	.LFE10-.LFB10
 3413 0058 00000000 		.4byte	0
 3414 005c 00000000 		.4byte	0
 3415              		.section	.debug_ranges,"",%progbits
 3416              	.Ldebug_ranges0:
 3417 0000 00000000 		.4byte	.LFB2
 3418 0004 C4000000 		.4byte	.LFE2
 3419 0008 00000000 		.4byte	.LFB3
 3420 000c 10000000 		.4byte	.LFE3
 3421 0010 00000000 		.4byte	.LFB4
 3422 0014 1C000000 		.4byte	.LFE4
 3423 0018 00000000 		.4byte	.LFB5
 3424 001c 10000000 		.4byte	.LFE5
 3425 0020 00000000 		.4byte	.LFB6
 3426 0024 0E000000 		.4byte	.LFE6
 3427 0028 00000000 		.4byte	.LFB7
 3428 002c 60000000 		.4byte	.LFE7
 3429 0030 00000000 		.4byte	.LFB8
 3430 0034 14000000 		.4byte	.LFE8
 3431 0038 00000000 		.4byte	.LFB9
 3432 003c 10000000 		.4byte	.LFE9
 3433 0040 00000000 		.4byte	.LFB10
 3434 0044 80030000 		.4byte	.LFE10
 3435 0048 00000000 		.4byte	0
 3436 004c 00000000 		.4byte	0
 3437              		.section	.debug_line,"",%progbits
 3438              	.Ldebug_line0:
 3439 0000 5C020000 		.section	.debug_str,"MS",%progbits,1
 3439      0200E000 
 3439      00000201 
 3439      FB0E0D00 
 3439      01010101 
 3440              	.LASF253:
ARM GAS  C:\Users\LIAMSA~1\AppData\Local\Temp\cc7Yswwd.s 			page 101


 3441 0000 4359424C 		.ascii	"CYBLE_GATT_ERR_INVALID_CRC\000"
 3441      455F4741 
 3441      54545F45 
 3441      52525F49 
 3441      4E56414C 
 3442              	.LASF16:
 3443 001b 73697A65 		.ascii	"sizetype\000"
 3443      74797065 
 3443      00
 3444              	.LASF187:
 3445 0024 656B6579 		.ascii	"ekeySize\000"
 3445      53697A65 
 3445      00
 3446              	.LASF222:
 3447 002d 4359424C 		.ascii	"CYBLE_GATT_HANDLE_VALUE_CNF\000"
 3447      455F4741 
 3447      54545F48 
 3447      414E444C 
 3447      455F5641 
 3448              	.LASF37:
 3449 0049 4359424C 		.ascii	"CYBLE_EVT_GAP_NUMERIC_COMPARISON_REQUEST\000"
 3449      455F4556 
 3449      545F4741 
 3449      505F4E55 
 3449      4D455249 
 3450              	.LASF318:
 3451 0072 61706952 		.ascii	"apiResult\000"
 3451      6573756C 
 3451      7400
 3452              	.LASF301:
 3453 007c 4379426C 		.ascii	"CyBle_WriteReqHandler\000"
 3453      655F5772 
 3453      69746552 
 3453      65714861 
 3453      6E646C65 
 3454              	.LASF144:
 3455 0092 72657175 		.ascii	"request\000"
 3455      65737400 
 3456              	.LASF181:
 3457 009a 4359424C 		.ascii	"CYBLE_GAP_AUTH_ERROR_CODE_SPEC_MAX_VALUE\000"
 3457      455F4741 
 3457      505F4155 
 3457      54485F45 
 3457      52524F52 
 3458              	.LASF303:
 3459 00c3 6576656E 		.ascii	"eventParam\000"
 3459      74506172 
 3459      616D00
 3460              	.LASF31:
 3461 00ce 4359424C 		.ascii	"CYBLE_EVT_GAP_DEVICE_CONNECTED\000"
 3461      455F4556 
 3461      545F4741 
 3461      505F4445 
 3461      56494345 
 3462              	.LASF164:
 3463 00ed 4359424C 		.ascii	"CYBLE_GAP_IOCAP_NOINPUT_NOOUTPUT\000"
 3463      455F4741 
ARM GAS  C:\Users\LIAMSA~1\AppData\Local\Temp\cc7Yswwd.s 			page 102


 3463      505F494F 
 3463      4341505F 
 3463      4E4F494E 
 3464              	.LASF49:
 3465 010e 4359424C 		.ascii	"CYBLE_EVT_GATT_CONNECT_IND\000"
 3465      455F4556 
 3465      545F4741 
 3465      54545F43 
 3465      4F4E4E45 
 3466              	.LASF215:
 3467 0129 4359424C 		.ascii	"CYBLE_GATT_WRITE_CMD\000"
 3467      455F4741 
 3467      54545F57 
 3467      52495445 
 3467      5F434D44 
 3468              	.LASF11:
 3469 013e 75696E74 		.ascii	"uint32\000"
 3469      333200
 3470              	.LASF292:
 3471 0145 67617053 		.ascii	"gapServiceCharHandle\000"
 3471      65727669 
 3471      63654368 
 3471      61724861 
 3471      6E646C65 
 3472              	.LASF138:
 3473 015a 626C6550 		.ascii	"blePwrLevelInDbm\000"
 3473      77724C65 
 3473      76656C49 
 3473      6E44626D 
 3473      00
 3474              	.LASF227:
 3475 016b 4359424C 		.ascii	"CYBLE_GATT_ERR_READ_NOT_PERMITTED\000"
 3475      455F4741 
 3475      54545F45 
 3475      52525F52 
 3475      4541445F 
 3476              	.LASF242:
 3477 018d 4359424C 		.ascii	"CYBLE_GATT_ERR_INSUFFICIENT_RESOURCE\000"
 3477      455F4741 
 3477      54545F45 
 3477      52525F49 
 3477      4E535546 
 3478              	.LASF216:
 3479 01b2 4359424C 		.ascii	"CYBLE_GATT_PREPARE_WRITE_REQ\000"
 3479      455F4741 
 3479      54545F50 
 3479      52455041 
 3479      52455F57 
 3480              	.LASF241:
 3481 01cf 4359424C 		.ascii	"CYBLE_GATT_ERR_UNSUPPORTED_GROUP_TYPE\000"
 3481      455F4741 
 3481      54545F45 
 3481      52525F55 
 3481      4E535550 
 3482              	.LASF105:
 3483 01f5 4359424C 		.ascii	"CYBLE_ERROR_L2CAP_CONNECTION_ENTITY_NOT_FOUND\000"
 3483      455F4552 
ARM GAS  C:\Users\LIAMSA~1\AppData\Local\Temp\cc7Yswwd.s 			page 103


 3483      524F525F 
 3483      4C324341 
 3483      505F434F 
 3484              	.LASF111:
 3485 0223 4359424C 		.ascii	"CYBLE_ERROR_MIC_AUTH_FAILED\000"
 3485      455F4552 
 3485      524F525F 
 3485      4D49435F 
 3485      41555448 
 3486              	.LASF69:
 3487 023f 4359424C 		.ascii	"CYBLE_EVT_GATTS_DATA_SIGNED_CMD_REQ\000"
 3487      455F4556 
 3487      545F4741 
 3487      5454535F 
 3487      44415441 
 3488              	.LASF81:
 3489 0263 4359424C 		.ascii	"CYBLE_EVT_L2CAP_CBFC_RX_CREDIT_IND\000"
 3489      455F4556 
 3489      545F4C32 
 3489      4341505F 
 3489      43424643 
 3490              	.LASF270:
 3491 0286 4359424C 		.ascii	"CYBLE_GATT_VALUE_T\000"
 3491      455F4741 
 3491      54545F56 
 3491      414C5545 
 3491      5F5400
 3492              	.LASF316:
 3493 0299 6D656D52 		.ascii	"memReq\000"
 3493      657100
 3494              	.LASF210:
 3495 02a0 4359424C 		.ascii	"CYBLE_GATT_READ_MULTIPLE_RSP\000"
 3495      455F4741 
 3495      54545F52 
 3495      4541445F 
 3495      4D554C54 
 3496              	.LASF149:
 3497 02bd 74797065 		.ascii	"type\000"
 3497      00
 3498              	.LASF155:
 3499 02c2 4359424C 		.ascii	"CYBLE_TO_REASON_CODE_T\000"
 3499      455F544F 
 3499      5F524541 
 3499      534F4E5F 
 3499      434F4445 
 3500              	.LASF243:
 3501 02d9 4359424C 		.ascii	"CYBLE_GATT_ERR_TRIGGER_CODITION_VALUE_NOT_SUPPORTED"
 3501      455F4741 
 3501      54545F45 
 3501      52525F54 
 3501      52494747 
 3502 030c 00       		.ascii	"\000"
 3503              	.LASF182:
 3504 030d 4359424C 		.ascii	"CYBLE_GAP_AUTH_ERROR_AUTHENTICATION_TIMEOUT\000"
 3504      455F4741 
 3504      505F4155 
 3504      54485F45 
ARM GAS  C:\Users\LIAMSA~1\AppData\Local\Temp\cc7Yswwd.s 			page 104


 3504      52524F52 
 3505              	.LASF174:
 3506 0339 4359424C 		.ascii	"CYBLE_GAP_AUTH_ERROR_UNSPECIFIED_REASON\000"
 3506      455F4741 
 3506      505F4155 
 3506      54485F45 
 3506      52524F52 
 3507              	.LASF204:
 3508 0361 4359424C 		.ascii	"CYBLE_GATT_READ_BY_TYPE_RSP\000"
 3508      455F4741 
 3508      54545F52 
 3508      4541445F 
 3508      42595F54 
 3509              	.LASF285:
 3510 037d 4359424C 		.ascii	"CYBLE_CALLBACK_T\000"
 3510      455F4341 
 3510      4C4C4241 
 3510      434B5F54 
 3510      00
 3511              	.LASF66:
 3512 038e 4359424C 		.ascii	"CYBLE_EVT_GATTC_HANDLE_VALUE_NTF\000"
 3512      455F4556 
 3512      545F4741 
 3512      5454435F 
 3512      48414E44 
 3513              	.LASF25:
 3514 03af 4359424C 		.ascii	"CYBLE_EVT_GAP_AUTH_REQ\000"
 3514      455F4556 
 3514      545F4741 
 3514      505F4155 
 3514      54485F52 
 3515              	.LASF268:
 3516 03c6 4359424C 		.ascii	"CYBLE_CONN_HANDLE_T\000"
 3516      455F434F 
 3516      4E4E5F48 
 3516      414E444C 
 3516      455F5400 
 3517              	.LASF100:
 3518 03da 4359424C 		.ascii	"CYBLE_ERROR_BT_ON_NOT_COMPLETED\000"
 3518      455F4552 
 3518      524F525F 
 3518      42545F4F 
 3518      4E5F4E4F 
 3519              	.LASF161:
 3520 03fa 4359424C 		.ascii	"CYBLE_GAP_IOCAP_DISPLAY_ONLY\000"
 3520      455F4741 
 3520      505F494F 
 3520      4341505F 
 3520      44495350 
 3521              	.LASF46:
 3522 0417 4359424C 		.ascii	"CYBLE_EVT_GAP_AUTH_REQ_REPLY_ERR\000"
 3522      455F4556 
 3522      545F4741 
 3522      505F4155 
 3522      54485F52 
 3523              	.LASF127:
 3524 0438 4359424C 		.ascii	"CYBLE_LL_PWR_LVL_NEG_3_DBM\000"
ARM GAS  C:\Users\LIAMSA~1\AppData\Local\Temp\cc7Yswwd.s 			page 105


 3524      455F4C4C 
 3524      5F505752 
 3524      5F4C564C 
 3524      5F4E4547 
 3525              	.LASF308:
 3526 0453 61646472 		.ascii	"addressValid\000"
 3526      65737356 
 3526      616C6964 
 3526      00
 3527              	.LASF289:
 3528 0460 4359424C 		.ascii	"CYBLE_STATE_ADVERTISING\000"
 3528      455F5354 
 3528      4154455F 
 3528      41445645 
 3528      52544953 
 3529              	.LASF39:
 3530 0478 4359424C 		.ascii	"CYBLE_EVT_GAP_OOB_GENERATED_NOTIFICATION\000"
 3530      455F4556 
 3530      545F4741 
 3530      505F4F4F 
 3530      425F4745 
 3531              	.LASF266:
 3532 04a1 62644861 		.ascii	"bdHandle\000"
 3532      6E646C65 
 3532      00
 3533              	.LASF255:
 3534 04aa 4359424C 		.ascii	"CYBLE_GATTS_ERR_NETWORK_NOT_AVAILABLE\000"
 3534      455F4741 
 3534      5454535F 
 3534      4552525F 
 3534      4E455457 
 3535              	.LASF167:
 3536 04d0 4359424C 		.ascii	"CYBLE_GAP_AUTH_ERROR_PASSKEY_ENTRY_FAILED\000"
 3536      455F4741 
 3536      505F4155 
 3536      54485F45 
 3536      52524F52 
 3537              	.LASF258:
 3538 04fa 4359424C 		.ascii	"CYBLE_GATT_ERR_ANCS_INVALID_COMMAND\000"
 3538      455F4741 
 3538      54545F45 
 3538      52525F41 
 3538      4E43535F 
 3539              	.LASF125:
 3540 051e 4359424C 		.ascii	"CYBLE_LL_PWR_LVL_NEG_12_DBM\000"
 3540      455F4C4C 
 3540      5F505752 
 3540      5F4C564C 
 3540      5F4E4547 
 3541              	.LASF198:
 3542 053a 4359424C 		.ascii	"CYBLE_GATT_XCHNG_MTU_RSP\000"
 3542      455F4741 
 3542      54545F58 
 3542      43484E47 
 3542      5F4D5455 
 3543              	.LASF62:
 3544 0553 4359424C 		.ascii	"CYBLE_EVT_GATTS_WRITE_CMD_REQ\000"
ARM GAS  C:\Users\LIAMSA~1\AppData\Local\Temp\cc7Yswwd.s 			page 106


 3544      455F4556 
 3544      545F4741 
 3544      5454535F 
 3544      57524954 
 3545              	.LASF82:
 3546 0571 4359424C 		.ascii	"CYBLE_EVT_L2CAP_CBFC_TX_CREDIT_IND\000"
 3546      455F4556 
 3546      545F4C32 
 3546      4341505F 
 3546      43424643 
 3547              	.LASF4:
 3548 0594 6C6F6E67 		.ascii	"long int\000"
 3548      20696E74 
 3548      00
 3549              	.LASF156:
 3550 059d 4359424C 		.ascii	"CYBLE_GAP_SEC_LEVEL_1\000"
 3550      455F4741 
 3550      505F5345 
 3550      435F4C45 
 3550      56454C5F 
 3551              	.LASF157:
 3552 05b3 4359424C 		.ascii	"CYBLE_GAP_SEC_LEVEL_2\000"
 3552      455F4741 
 3552      505F5345 
 3552      435F4C45 
 3552      56454C5F 
 3553              	.LASF158:
 3554 05c9 4359424C 		.ascii	"CYBLE_GAP_SEC_LEVEL_3\000"
 3554      455F4741 
 3554      505F5345 
 3554      435F4C45 
 3554      56454C5F 
 3555              	.LASF159:
 3556 05df 4359424C 		.ascii	"CYBLE_GAP_SEC_LEVEL_4\000"
 3556      455F4741 
 3556      505F5345 
 3556      435F4C45 
 3556      56454C5F 
 3557              	.LASF202:
 3558 05f5 4359424C 		.ascii	"CYBLE_GATT_FIND_BY_TYPE_VALUE_RSP\000"
 3558      455F4741 
 3558      54545F46 
 3558      494E445F 
 3558      42595F54 
 3559              	.LASF18:
 3560 0617 4359424C 		.ascii	"CYBLE_EVT_STACK_ON\000"
 3560      455F4556 
 3560      545F5354 
 3560      41434B5F 
 3560      4F4E00
 3561              	.LASF107:
 3562 062a 4359424C 		.ascii	"CYBLE_ERROR_L2CAP_PSM_NOT_IN_RANGE\000"
 3562      455F4552 
 3562      524F525F 
 3562      4C324341 
 3562      505F5053 
 3563              	.LASF323:
ARM GAS  C:\Users\LIAMSA~1\AppData\Local\Temp\cc7Yswwd.s 			page 107


 3564 064d 6379426C 		.ascii	"cyBle_deviceAddress\000"
 3564      655F6465 
 3564      76696365 
 3564      41646472 
 3564      65737300 
 3565              	.LASF254:
 3566 0661 4359424C 		.ascii	"CYBLE_GATTS_ERR_HPS_INVALID_REQUEST\000"
 3566      455F4741 
 3566      5454535F 
 3566      4552525F 
 3566      4850535F 
 3567              	.LASF229:
 3568 0685 4359424C 		.ascii	"CYBLE_GATT_ERR_INVALID_PDU\000"
 3568      455F4741 
 3568      54545F45 
 3568      52525F49 
 3568      4E56414C 
 3569              	.LASF170:
 3570 06a0 4359424C 		.ascii	"CYBLE_GAP_AUTH_ERROR_CONFIRM_VALUE_NOT_MATCH\000"
 3570      455F4741 
 3570      505F4155 
 3570      54485F45 
 3570      52524F52 
 3571              	.LASF120:
 3572 06cd 4359424C 		.ascii	"CYBLE_ERROR_CHAR_IS_NOT_DISCOVERED\000"
 3572      455F4552 
 3572      524F525F 
 3572      43484152 
 3572      5F49535F 
 3573              	.LASF273:
 3574 06f0 4359424C 		.ascii	"CYBLE_GATT_HANDLE_VALUE_PAIR_T\000"
 3574      455F4741 
 3574      54545F48 
 3574      414E444C 
 3574      455F5641 
 3575              	.LASF139:
 3576 070f 626C6553 		.ascii	"bleSsChId\000"
 3576      73436849 
 3576      6400
 3577              	.LASF75:
 3578 0719 4359424C 		.ascii	"CYBLE_EVT_L2CAP_COMMAND_REJ\000"
 3578      455F4556 
 3578      545F4C32 
 3578      4341505F 
 3578      434F4D4D 
 3579              	.LASF297:
 3580 0735 7270614F 		.ascii	"rpaOnlyCharHandle\000"
 3580      6E6C7943 
 3580      68617248 
 3580      616E646C 
 3580      6500
 3581              	.LASF208:
 3582 0747 4359424C 		.ascii	"CYBLE_GATT_READ_BLOB_RSP\000"
 3582      455F4741 
 3582      54545F52 
 3582      4541445F 
 3582      424C4F42 
ARM GAS  C:\Users\LIAMSA~1\AppData\Local\Temp\cc7Yswwd.s 			page 108


 3583              	.LASF238:
 3584 0760 4359424C 		.ascii	"CYBLE_GATT_ERR_INVALID_ATTRIBUTE_LEN\000"
 3584      455F4741 
 3584      54545F45 
 3584      52525F49 
 3584      4E56414C 
 3585              	.LASF108:
 3586 0785 4359424C 		.ascii	"CYBLE_ERROR_GATT_DB_INVALID_ATTR_HANDLE\000"
 3586      455F4552 
 3586      524F525F 
 3586      47415454 
 3586      5F44425F 
 3587              	.LASF0:
 3588 07ad 7369676E 		.ascii	"signed char\000"
 3588      65642063 
 3588      68617200 
 3589              	.LASF124:
 3590 07b9 4359424C 		.ascii	"CYBLE_LL_PWR_LVL_NEG_18_DBM\000"
 3590      455F4C4C 
 3590      5F505752 
 3590      5F4C564C 
 3590      5F4E4547 
 3591              	.LASF199:
 3592 07d5 4359424C 		.ascii	"CYBLE_GATT_FIND_INFO_REQ\000"
 3592      455F4741 
 3592      54545F46 
 3592      494E445F 
 3592      494E464F 
 3593              	.LASF20:
 3594 07ee 4359424C 		.ascii	"CYBLE_EVT_HARDWARE_ERROR\000"
 3594      455F4556 
 3594      545F4841 
 3594      52445741 
 3594      52455F45 
 3595              	.LASF335:
 3596 0807 4379426C 		.ascii	"CyBle_EventHandler\000"
 3596      655F4576 
 3596      656E7448 
 3596      616E646C 
 3596      657200
 3597              	.LASF89:
 3598 081a 4359424C 		.ascii	"CYBLE_ERROR_OK\000"
 3598      455F4552 
 3598      524F525F 
 3598      4F4B00
 3599              	.LASF137:
 3600 0829 4359424C 		.ascii	"CYBLE_BLESS_PHY_CH_GRP_ID_T\000"
 3600      455F424C 
 3600      4553535F 
 3600      5048595F 
 3600      43485F47 
 3601              	.LASF261:
 3602 0845 4359424C 		.ascii	"CYBLE_GATT_ERR_CCCD_IMPROPERLY_CONFIGURED\000"
 3602      455F4741 
 3602      54545F45 
 3602      52525F43 
 3602      4343445F 
ARM GAS  C:\Users\LIAMSA~1\AppData\Local\Temp\cc7Yswwd.s 			page 109


 3603              	.LASF53:
 3604 086f 4359424C 		.ascii	"CYBLE_EVT_GATTC_READ_BY_GROUP_TYPE_RSP\000"
 3604      455F4556 
 3604      545F4741 
 3604      5454435F 
 3604      52454144 
 3605              	.LASF180:
 3606 0896 4359424C 		.ascii	"CYBLE_GAP_AUTH_ERROR_CROSS_TRANSPORT_KEY_GEN_DER_NO"
 3606      455F4741 
 3606      505F4155 
 3606      54485F45 
 3606      52524F52 
 3607 08c9 545F414C 		.ascii	"T_ALLOWED\000"
 3607      4C4F5745 
 3607      4400
 3608              	.LASF286:
 3609 08d3 4359424C 		.ascii	"CYBLE_STATE_STOPPED\000"
 3609      455F5354 
 3609      4154455F 
 3609      53544F50 
 3609      50454400 
 3610              	.LASF282:
 3611 08e7 4359424C 		.ascii	"CYBLE_GATTS_ERR_PARAM_T\000"
 3611      455F4741 
 3611      5454535F 
 3611      4552525F 
 3611      50415241 
 3612              	.LASF1:
 3613 08ff 756E7369 		.ascii	"unsigned char\000"
 3613      676E6564 
 3613      20636861 
 3613      7200
 3614              	.LASF52:
 3615 090d 4359424C 		.ascii	"CYBLE_EVT_GATTC_XCHNG_MTU_RSP\000"
 3615      455F4556 
 3615      545F4741 
 3615      5454435F 
 3615      5843484E 
 3616              	.LASF221:
 3617 092b 4359424C 		.ascii	"CYBLE_GATT_HANDLE_VALUE_IND\000"
 3617      455F4741 
 3617      54545F48 
 3617      414E444C 
 3617      455F5641 
 3618              	.LASF43:
 3619 0947 4359424C 		.ascii	"CYBLE_EVT_GAP_SMP_NEGOTIATED_AUTH_INFO\000"
 3619      455F4556 
 3619      545F4741 
 3619      505F534D 
 3619      505F4E45 
 3620              	.LASF44:
 3621 096e 4359424C 		.ascii	"CYBLE_EVT_GAP_CONN_ESTB\000"
 3621      455F4556 
 3621      545F4741 
 3621      505F434F 
 3621      4E4E5F45 
 3622              	.LASF281:
ARM GAS  C:\Users\LIAMSA~1\AppData\Local\Temp\cc7Yswwd.s 			page 110


 3623 0986 6572726F 		.ascii	"errorCode\000"
 3623      72436F64 
 3623      6500
 3624              	.LASF176:
 3625 0990 4359424C 		.ascii	"CYBLE_GAP_AUTH_ERROR_INVALID_PARAMETERS\000"
 3625      455F4741 
 3625      505F4155 
 3625      54485F45 
 3625      52524F52 
 3626              	.LASF146:
 3627 09b8 636F6E66 		.ascii	"configMemory\000"
 3627      69674D65 
 3627      6D6F7279 
 3627      00
 3628              	.LASF79:
 3629 09c5 4359424C 		.ascii	"CYBLE_EVT_L2CAP_CBFC_DISCONN_CNF\000"
 3629      455F4556 
 3629      545F4C32 
 3629      4341505F 
 3629      43424643 
 3630              	.LASF56:
 3631 09e6 4359424C 		.ascii	"CYBLE_EVT_GATTC_FIND_BY_TYPE_VALUE_RSP\000"
 3631      455F4556 
 3631      545F4741 
 3631      5454435F 
 3631      46494E44 
 3632              	.LASF40:
 3633 0a0d 4359424C 		.ascii	"CYBLE_EVT_GAP_DATA_LENGTH_CHANGE\000"
 3633      455F4556 
 3633      545F4741 
 3633      505F4441 
 3633      54415F4C 
 3634              	.LASF14:
 3635 0a2e 63686172 		.ascii	"char\000"
 3635      00
 3636              	.LASF128:
 3637 0a33 4359424C 		.ascii	"CYBLE_LL_PWR_LVL_NEG_2_DBM\000"
 3637      455F4C4C 
 3637      5F505752 
 3637      5F4C564C 
 3637      5F4E4547 
 3638              	.LASF214:
 3639 0a4e 4359424C 		.ascii	"CYBLE_GATT_WRITE_RSP\000"
 3639      455F4741 
 3639      54545F57 
 3639      52495445 
 3639      5F525350 
 3640              	.LASF59:
 3641 0a63 4359424C 		.ascii	"CYBLE_EVT_GATTC_READ_MULTI_RSP\000"
 3641      455F4556 
 3641      545F4741 
 3641      5454435F 
 3641      52454144 
 3642              	.LASF190:
 3643 0a82 4359424C 		.ascii	"CYBLE_GAP_AUTH_INFO_T\000"
 3643      455F4741 
 3643      505F4155 
ARM GAS  C:\Users\LIAMSA~1\AppData\Local\Temp\cc7Yswwd.s 			page 111


 3643      54485F49 
 3643      4E464F5F 
 3644              	.LASF163:
 3645 0a98 4359424C 		.ascii	"CYBLE_GAP_IOCAP_KEYBOARD_ONLY\000"
 3645      455F4741 
 3645      505F494F 
 3645      4341505F 
 3645      4B455942 
 3646              	.LASF17:
 3647 0ab6 4359424C 		.ascii	"CYBLE_EVT_HOST_INVALID\000"
 3647      455F4556 
 3647      545F484F 
 3647      53545F49 
 3647      4E56414C 
 3648              	.LASF250:
 3649 0acd 4359424C 		.ascii	"CYBLE_GATT_ERR_MISSING_CRC\000"
 3649      455F4741 
 3649      54545F45 
 3649      52525F4D 
 3649      49535349 
 3650              	.LASF239:
 3651 0ae8 4359424C 		.ascii	"CYBLE_GATT_ERR_UNLIKELY_ERROR\000"
 3651      455F4741 
 3651      54545F45 
 3651      52525F55 
 3651      4E4C494B 
 3652              	.LASF42:
 3653 0b06 4359424C 		.ascii	"CYBLE_EVT_GAPC_DIRECT_ADV_REPORT\000"
 3653      455F4556 
 3653      545F4741 
 3653      50435F44 
 3653      49524543 
 3654              	.LASF197:
 3655 0b27 4359424C 		.ascii	"CYBLE_GATT_XCNHG_MTU_REQ\000"
 3655      455F4741 
 3655      54545F58 
 3655      434E4847 
 3655      5F4D5455 
 3656              	.LASF96:
 3657 0b40 4359424C 		.ascii	"CYBLE_ERROR_NO_DEVICE_ENTITY\000"
 3657      455F4552 
 3657      524F525F 
 3657      4E4F5F44 
 3657      45564943 
 3658              	.LASF58:
 3659 0b5d 4359424C 		.ascii	"CYBLE_EVT_GATTC_READ_BLOB_RSP\000"
 3659      455F4556 
 3659      545F4741 
 3659      5454435F 
 3659      52454144 
 3660              	.LASF307:
 3661 0b7b 64657669 		.ascii	"deviceAddress\000"
 3661      63654164 
 3661      64726573 
 3661      7300
 3662              	.LASF322:
 3663 0b89 6379426C 		.ascii	"cyBle_eventHandlerFlag\000"
ARM GAS  C:\Users\LIAMSA~1\AppData\Local\Temp\cc7Yswwd.s 			page 112


 3663      655F6576 
 3663      656E7448 
 3663      616E646C 
 3663      6572466C 
 3664              	.LASF65:
 3665 0ba0 4359424C 		.ascii	"CYBLE_EVT_GATTC_EXEC_WRITE_RSP\000"
 3665      455F4556 
 3665      545F4741 
 3665      5454435F 
 3665      45584543 
 3666              	.LASF244:
 3667 0bbf 4359424C 		.ascii	"CYBLE_GATT_ERR_HEART_RATE_CONTROL_POINT_NOT_SUPPORT"
 3667      455F4741 
 3667      54545F45 
 3667      52525F48 
 3667      45415254 
 3668 0bf2 454400   		.ascii	"ED\000"
 3669              	.LASF236:
 3670 0bf5 4359424C 		.ascii	"CYBLE_GATT_ERR_ATTRIBUTE_NOT_LONG\000"
 3670      455F4741 
 3670      54545F45 
 3670      52525F41 
 3670      54545249 
 3671              	.LASF160:
 3672 0c17 4359424C 		.ascii	"CYBLE_GAP_SEC_LEVEL_MASK\000"
 3672      455F4741 
 3672      505F5345 
 3672      435F4C45 
 3672      56454C5F 
 3673              	.LASF332:
 3674 0c30 47656E65 		.ascii	"Generated_Source\\PSoC4\\CYBLE_eventHandler.c\000"
 3674      72617465 
 3674      645F536F 
 3674      75726365 
 3674      5C50536F 
 3675              	.LASF70:
 3676 0c5c 4359424C 		.ascii	"CYBLE_EVT_GATTC_STOP_CMD_COMPLETE\000"
 3676      455F4556 
 3676      545F4741 
 3676      5454435F 
 3676      53544F50 
 3677              	.LASF260:
 3678 0c7e 4359424C 		.ascii	"CYBLE_GATT_ERR_ANCS_ACTION_FAILED\000"
 3678      455F4741 
 3678      54545F45 
 3678      52525F41 
 3678      4E43535F 
 3679              	.LASF329:
 3680 0ca0 6379426C 		.ascii	"cyBle_gaps\000"
 3680      655F6761 
 3680      707300
 3681              	.LASF327:
 3682 0cab 6379426C 		.ascii	"cyBle_connHandle\000"
 3682      655F636F 
 3682      6E6E4861 
 3682      6E646C65 
 3682      00
ARM GAS  C:\Users\LIAMSA~1\AppData\Local\Temp\cc7Yswwd.s 			page 113


 3683              	.LASF196:
 3684 0cbc 4359424C 		.ascii	"CYBLE_GATT_ERROR_RSP\000"
 3684      455F4741 
 3684      54545F45 
 3684      52524F52 
 3684      5F525350 
 3685              	.LASF116:
 3686 0cd1 4359424C 		.ascii	"CYBLE_ERROR_CONTROLLER_BUSY\000"
 3686      455F4552 
 3686      524F525F 
 3686      434F4E54 
 3686      524F4C4C 
 3687              	.LASF90:
 3688 0ced 4359424C 		.ascii	"CYBLE_ERROR_INVALID_PARAMETER\000"
 3688      455F4552 
 3688      524F525F 
 3688      494E5641 
 3688      4C49445F 
 3689              	.LASF311:
 3690 0d0b 4379426C 		.ascii	"CyBle_GapConnUpdateCompleteEventHandler\000"
 3690      655F4761 
 3690      70436F6E 
 3690      6E557064 
 3690      61746543 
 3691              	.LASF179:
 3692 0d33 4359424C 		.ascii	"CYBLE_GAP_AUTH_ERROR_BR_EDR_PAIRING_IN_PROGRESS\000"
 3692      455F4741 
 3692      505F4155 
 3692      54485F45 
 3692      52524F52 
 3693              	.LASF92:
 3694 0d63 4359424C 		.ascii	"CYBLE_ERROR_MEMORY_ALLOCATION_FAILED\000"
 3694      455F4552 
 3694      524F525F 
 3694      4D454D4F 
 3694      52595F41 
 3695              	.LASF278:
 3696 0d88 70726570 		.ascii	"prepareWriteQueueSize\000"
 3696      61726557 
 3696      72697465 
 3696      51756575 
 3696      6553697A 
 3697              	.LASF324:
 3698 0d9e 6379426C 		.ascii	"cyBle_sflashDeviceAddress\000"
 3698      655F7366 
 3698      6C617368 
 3698      44657669 
 3698      63654164 
 3699              	.LASF223:
 3700 0db8 4359424C 		.ascii	"CYBLE_GATT_SIGNED_WRITE_CMD\000"
 3700      455F4741 
 3700      54545F53 
 3700      49474E45 
 3700      445F5752 
 3701              	.LASF251:
 3702 0dd4 4359424C 		.ascii	"CYBLE_GATTS_ERR_CCCD_IMPROPERLY_CONFIGURED\000"
 3702      455F4741 
ARM GAS  C:\Users\LIAMSA~1\AppData\Local\Temp\cc7Yswwd.s 			page 114


 3702      5454535F 
 3702      4552525F 
 3702      43434344 
 3703              	.LASF219:
 3704 0dff 4359424C 		.ascii	"CYBLE_GATT_EXECUTE_WRITE_RSP\000"
 3704      455F4741 
 3704      54545F45 
 3704      58454355 
 3704      54455F57 
 3705              	.LASF117:
 3706 0e1c 4359424C 		.ascii	"CYBLE_ERROR_MAX\000"
 3706      455F4552 
 3706      524F525F 
 3706      4D415800 
 3707              	.LASF74:
 3708 0e2c 4359424C 		.ascii	"CYBLE_EVT_L2CAP_CONN_PARAM_UPDATE_RSP\000"
 3708      455F4556 
 3708      545F4C32 
 3708      4341505F 
 3708      434F4E4E 
 3709              	.LASF183:
 3710 0e52 4359424C 		.ascii	"CYBLE_GAP_AUTH_ERROR_LINK_DISCONNECTED\000"
 3710      455F4741 
 3710      505F4155 
 3710      54485F45 
 3710      52524F52 
 3711              	.LASF86:
 3712 0e79 4359424C 		.ascii	"CYBLE_EVT_HCI_PKT\000"
 3712      455F4556 
 3712      545F4843 
 3712      495F504B 
 3712      5400
 3713              	.LASF331:
 3714 0e8b 474E5520 		.ascii	"GNU C11 5.4.1 20160609 (release) [ARM/embedded-5-br"
 3714      43313120 
 3714      352E342E 
 3714      31203230 
 3714      31363036 
 3715 0ebe 616E6368 		.ascii	"anch revision 237715] -mcpu=cortex-m0 -mthumb -g -O"
 3715      20726576 
 3715      6973696F 
 3715      6E203233 
 3715      37373135 
 3716 0ef1 30202D66 		.ascii	"0 -ffunction-sections -ffat-lto-objects\000"
 3716      66756E63 
 3716      74696F6E 
 3716      2D736563 
 3716      74696F6E 
 3717              	.LASF245:
 3718 0f19 4359424C 		.ascii	"CYBLE_GATT_ERR_USER_DATA_ACCESS_NOT_PERMITTED\000"
 3718      455F4741 
 3718      54545F45 
 3718      52525F55 
 3718      5345525F 
 3719              	.LASF28:
 3720 0f47 4359424C 		.ascii	"CYBLE_EVT_GAP_AUTH_COMPLETE\000"
 3720      455F4556 
ARM GAS  C:\Users\LIAMSA~1\AppData\Local\Temp\cc7Yswwd.s 			page 115


 3720      545F4741 
 3720      505F4155 
 3720      54485F43 
 3721              	.LASF29:
 3722 0f63 4359424C 		.ascii	"CYBLE_EVT_GAP_AUTH_FAILED\000"
 3722      455F4556 
 3722      545F4741 
 3722      505F4155 
 3722      54485F46 
 3723              	.LASF145:
 3724 0f7d 616C6C6F 		.ascii	"allocFree\000"
 3724      63467265 
 3724      6500
 3725              	.LASF122:
 3726 0f87 4359424C 		.ascii	"CYBLE_ERROR_STACK_BUSY\000"
 3726      455F4552 
 3726      524F525F 
 3726      53544143 
 3726      4B5F4255 
 3727              	.LASF212:
 3728 0f9e 4359424C 		.ascii	"CYBLE_GATT_READ_BY_GROUP_RSP\000"
 3728      455F4741 
 3728      54545F52 
 3728      4541445F 
 3728      42595F47 
 3729              	.LASF93:
 3730 0fbb 4359424C 		.ascii	"CYBLE_ERROR_INSUFFICIENT_RESOURCES\000"
 3730      455F4552 
 3730      524F525F 
 3730      494E5355 
 3730      46464943 
 3731              	.LASF249:
 3732 0fde 4359424C 		.ascii	"CYBLE_GATT_ERR_OP_CODE_NOT_SUPPORTED\000"
 3732      455F4741 
 3732      54545F45 
 3732      52525F4F 
 3732      505F434F 
 3733              	.LASF131:
 3734 1003 4359424C 		.ascii	"CYBLE_LL_PWR_LVL_3_DBM\000"
 3734      455F4C4C 
 3734      5F505752 
 3734      5F4C564C 
 3734      5F335F44 
 3735              	.LASF5:
 3736 101a 6C6F6E67 		.ascii	"long unsigned int\000"
 3736      20756E73 
 3736      69676E65 
 3736      6420696E 
 3736      7400
 3737              	.LASF205:
 3738 102c 4359424C 		.ascii	"CYBLE_GATT_READ_REQ\000"
 3738      455F4741 
 3738      54545F52 
 3738      4541445F 
 3738      52455100 
 3739              	.LASF191:
 3740 1040 73746174 		.ascii	"status\000"
ARM GAS  C:\Users\LIAMSA~1\AppData\Local\Temp\cc7Yswwd.s 			page 116


 3740      757300
 3741              	.LASF129:
 3742 1047 4359424C 		.ascii	"CYBLE_LL_PWR_LVL_NEG_1_DBM\000"
 3742      455F4C4C 
 3742      5F505752 
 3742      5F4C564C 
 3742      5F4E4547 
 3743              	.LASF113:
 3744 1062 4359424C 		.ascii	"CYBLE_ERROR_UNSUPPORTED_FEATURE_OR_PARAMETER_VALUE\000"
 3744      455F4552 
 3744      524F525F 
 3744      554E5355 
 3744      50504F52 
 3745              	.LASF142:
 3746 1095 4359424C 		.ascii	"CYBLE_INVALID_REQUEST\000"
 3746      455F494E 
 3746      56414C49 
 3746      445F5245 
 3746      51554553 
 3747              	.LASF173:
 3748 10ab 4359424C 		.ascii	"CYBLE_GAP_AUTH_ERROR_COMMAND_NOT_SUPPORTED\000"
 3748      455F4741 
 3748      505F4155 
 3748      54485F45 
 3748      52524F52 
 3749              	.LASF169:
 3750 10d6 4359424C 		.ascii	"CYBLE_GAP_AUTH_ERROR_AUTHENTICATION_REQ_NOT_MET\000"
 3750      455F4741 
 3750      505F4155 
 3750      54485F45 
 3750      52524F52 
 3751              	.LASF220:
 3752 1106 4359424C 		.ascii	"CYBLE_GATT_HANDLE_VALUE_NTF\000"
 3752      455F4741 
 3752      54545F48 
 3752      414E444C 
 3752      455F5641 
 3753              	.LASF103:
 3754 1122 4359424C 		.ascii	"CYBLE_ERROR_L2CAP_PSM_ALREADY_REGISTERED\000"
 3754      455F4552 
 3754      524F525F 
 3754      4C324341 
 3754      505F5053 
 3755              	.LASF257:
 3756 114b 4359424C 		.ascii	"CYBLE_GATT_ERR_ANCS_UNKNOWN_COMMAND\000"
 3756      455F4741 
 3756      54545F45 
 3756      52525F41 
 3756      4E43535F 
 3757              	.LASF279:
 3758 116f 4359424C 		.ascii	"CYBLE_PREPARE_WRITE_REQUEST_MEMORY_T\000"
 3758      455F5052 
 3758      45504152 
 3758      455F5752 
 3758      4954455F 
 3759              	.LASF34:
 3760 1194 4359424C 		.ascii	"CYBLE_EVT_GAP_CONNECTION_UPDATE_COMPLETE\000"
ARM GAS  C:\Users\LIAMSA~1\AppData\Local\Temp\cc7Yswwd.s 			page 117


 3760      455F4556 
 3760      545F4741 
 3760      505F434F 
 3760      4E4E4543 
 3761              	.LASF328:
 3762 11bd 6379426C 		.ascii	"cyBle_busyStatus\000"
 3762      655F6275 
 3762      73795374 
 3762      61747573 
 3762      00
 3763              	.LASF287:
 3764 11ce 4359424C 		.ascii	"CYBLE_STATE_INITIALIZING\000"
 3764      455F5354 
 3764      4154455F 
 3764      494E4954 
 3764      49414C49 
 3765              	.LASF319:
 3766 11e7 6379426C 		.ascii	"cyBle_mtuSize\000"
 3766      655F6D74 
 3766      7553697A 
 3766      6500
 3767              	.LASF175:
 3768 11f5 4359424C 		.ascii	"CYBLE_GAP_AUTH_ERROR_REPEATED_ATTEMPTS\000"
 3768      455F4741 
 3768      505F4155 
 3768      54485F45 
 3768      52524F52 
 3769              	.LASF78:
 3770 121c 4359424C 		.ascii	"CYBLE_EVT_L2CAP_CBFC_DISCONN_IND\000"
 3770      455F4556 
 3770      545F4C32 
 3770      4341505F 
 3770      43424643 
 3771              	.LASF26:
 3772 123d 4359424C 		.ascii	"CYBLE_EVT_GAP_PASSKEY_ENTRY_REQUEST\000"
 3772      455F4556 
 3772      545F4741 
 3772      505F5041 
 3772      53534B45 
 3773              	.LASF177:
 3774 1261 4359424C 		.ascii	"CYBLE_GAP_AUTH_ERROR_DHKEY_CHECK_FAILED\000"
 3774      455F4741 
 3774      505F4155 
 3774      54485F45 
 3774      52524F52 
 3775              	.LASF133:
 3776 1289 4359424C 		.ascii	"CYBLE_BLESS_PWR_LVL_T\000"
 3776      455F424C 
 3776      4553535F 
 3776      5057525F 
 3776      4C564C5F 
 3777              	.LASF333:
 3778 129f 433A5C55 		.ascii	"C:\\Users\\Liam Sawyer\\Downloads\\BLE_Proximity\\B"
 3778      73657273 
 3778      5C4C6961 
 3778      6D205361 
 3778      77796572 
ARM GAS  C:\Users\LIAMSA~1\AppData\Local\Temp\cc7Yswwd.s 			page 118


 3779 12cd 4C455F50 		.ascii	"LE_Proximity\\BLE_Proximity.cydsn\000"
 3779      726F7869 
 3779      6D697479 
 3779      5C424C45 
 3779      5F50726F 
 3780              	.LASF306:
 3781 12ee 4379426C 		.ascii	"CyBle_GattConnectReqHandler\000"
 3781      655F4761 
 3781      7474436F 
 3781      6E6E6563 
 3781      74526571 
 3782              	.LASF172:
 3783 130a 4359424C 		.ascii	"CYBLE_GAP_AUTH_ERROR_INSUFFICIENT_ENCRYPTION_KEY_SI"
 3783      455F4741 
 3783      505F4155 
 3783      54485F45 
 3783      52524F52 
 3784 133d 5A4500   		.ascii	"ZE\000"
 3785              	.LASF6:
 3786 1340 6C6F6E67 		.ascii	"long long int\000"
 3786      206C6F6E 
 3786      6720696E 
 3786      7400
 3787              	.LASF305:
 3788 134e 4379426C 		.ascii	"CyBle_GattDisconnectEventHandler\000"
 3788      655F4761 
 3788      74744469 
 3788      73636F6E 
 3788      6E656374 
 3789              	.LASF147:
 3790 136f 4359424C 		.ascii	"CYBLE_MEMORY_REQUEST_T\000"
 3790      455F4D45 
 3790      4D4F5259 
 3790      5F524551 
 3790      55455354 
 3791              	.LASF185:
 3792 1386 73656375 		.ascii	"security\000"
 3792      72697479 
 3792      00
 3793              	.LASF234:
 3794 138f 4359424C 		.ascii	"CYBLE_GATT_ERR_PREPARE_WRITE_QUEUE_FULL\000"
 3794      455F4741 
 3794      54545F45 
 3794      52525F50 
 3794      52455041 
 3795              	.LASF104:
 3796 13b7 4359424C 		.ascii	"CYBLE_ERROR_L2CAP_PSM_NOT_REGISTERED\000"
 3796      455F4552 
 3796      524F525F 
 3796      4C324341 
 3796      505F5053 
 3797              	.LASF94:
 3798 13dc 4359424C 		.ascii	"CYBLE_ERROR_OOB_NOT_AVAILABLE\000"
 3798      455F4552 
 3798      524F525F 
 3798      4F4F425F 
 3798      4E4F545F 
ARM GAS  C:\Users\LIAMSA~1\AppData\Local\Temp\cc7Yswwd.s 			page 119


 3799              	.LASF13:
 3800 13fa 646F7562 		.ascii	"double\000"
 3800      6C6500
 3801              	.LASF109:
 3802 1401 4359424C 		.ascii	"CYBLE_ERROR_DEVICE_ALREADY_EXISTS\000"
 3802      455F4552 
 3802      524F525F 
 3802      44455649 
 3802      43455F41 
 3803              	.LASF84:
 3804 1423 4359424C 		.ascii	"CYBLE_EVT_PENDING_FLASH_WRITE\000"
 3804      455F4556 
 3804      545F5045 
 3804      4E44494E 
 3804      475F464C 
 3805              	.LASF237:
 3806 1441 4359424C 		.ascii	"CYBLE_GATT_ERR_INSUFFICIENT_ENC_KEY_SIZE\000"
 3806      455F4741 
 3806      54545F45 
 3806      52525F49 
 3806      4E535546 
 3807              	.LASF132:
 3808 146a 4359424C 		.ascii	"CYBLE_LL_PWR_LVL_MAX\000"
 3808      455F4C4C 
 3808      5F505752 
 3808      5F4C564C 
 3808      5F4D4158 
 3809              	.LASF293:
 3810 147f 64657669 		.ascii	"deviceNameCharHandle\000"
 3810      63654E61 
 3810      6D654368 
 3810      61724861 
 3810      6E646C65 
 3811              	.LASF262:
 3812 1494 4359424C 		.ascii	"CYBLE_GATT_ERR_PROCEDURE_ALREADY_IN_PROGRESS\000"
 3812      455F4741 
 3812      54545F45 
 3812      52525F50 
 3812      524F4345 
 3813              	.LASF41:
 3814 14c1 4359424C 		.ascii	"CYBLE_EVT_GAP_ENHANCE_CONN_COMPLETE\000"
 3814      455F4556 
 3814      545F4741 
 3814      505F454E 
 3814      48414E43 
 3815              	.LASF106:
 3816 14e5 4359424C 		.ascii	"CYBLE_ERROR_L2CAP_CHANNEL_NOT_FOUND\000"
 3816      455F4552 
 3816      524F525F 
 3816      4C324341 
 3816      505F4348 
 3817              	.LASF97:
 3818 1509 4359424C 		.ascii	"CYBLE_ERROR_REPEATED_ATTEMPTS\000"
 3818      455F4552 
 3818      524F525F 
 3818      52455045 
 3818      41544544 
ARM GAS  C:\Users\LIAMSA~1\AppData\Local\Temp\cc7Yswwd.s 			page 120


 3819              	.LASF302:
 3820 1527 4379426C 		.ascii	"CyBle_ValueConfirmation\000"
 3820      655F5661 
 3820      6C756543 
 3820      6F6E6669 
 3820      726D6174 
 3821              	.LASF12:
 3822 153f 666C6F61 		.ascii	"float\000"
 3822      7400
 3823              	.LASF110:
 3824 1545 4359424C 		.ascii	"CYBLE_ERROR_FLASH_WRITE_NOT_PERMITED\000"
 3824      455F4552 
 3824      524F525F 
 3824      464C4153 
 3824      485F5752 
 3825              	.LASF71:
 3826 156a 4359424C 		.ascii	"CYBLE_EVT_GATTS_READ_CHAR_VAL_ACCESS_REQ\000"
 3826      455F4556 
 3826      545F4741 
 3826      5454535F 
 3826      52454144 
 3827              	.LASF280:
 3828 1593 6F70636F 		.ascii	"opcode\000"
 3828      646500
 3829              	.LASF233:
 3830 159a 4359424C 		.ascii	"CYBLE_GATT_ERR_INSUFFICIENT_AUTHORIZATION\000"
 3830      455F4741 
 3830      54545F45 
 3830      52525F49 
 3830      4E535546 
 3831              	.LASF272:
 3832 15c4 61747472 		.ascii	"attrHandle\000"
 3832      48616E64 
 3832      6C6500
 3833              	.LASF186:
 3834 15cf 626F6E64 		.ascii	"bonding\000"
 3834      696E6700 
 3835              	.LASF284:
 3836 15d7 4359424C 		.ascii	"CYBLE_GATTS_WRITE_REQ_PARAM_T\000"
 3836      455F4741 
 3836      5454535F 
 3836      57524954 
 3836      455F5245 
 3837              	.LASF8:
 3838 15f5 756E7369 		.ascii	"unsigned int\000"
 3838      676E6564 
 3838      20696E74 
 3838      00
 3839              	.LASF63:
 3840 1602 4359424C 		.ascii	"CYBLE_EVT_GATTS_PREP_WRITE_REQ\000"
 3840      455F4556 
 3840      545F4741 
 3840      5454535F 
 3840      50524550 
 3841              	.LASF230:
 3842 1621 4359424C 		.ascii	"CYBLE_GATT_ERR_INSUFFICIENT_AUTHENTICATION\000"
 3842      455F4741 
ARM GAS  C:\Users\LIAMSA~1\AppData\Local\Temp\cc7Yswwd.s 			page 121


 3842      54545F45 
 3842      52525F49 
 3842      4E535546 
 3843              	.LASF275:
 3844 164c 4359424C 		.ascii	"CYBLE_GATT_XCHG_MTU_PARAM_T\000"
 3844      455F4741 
 3844      54545F58 
 3844      4348475F 
 3844      4D54555F 
 3845              	.LASF135:
 3846 1668 4359424C 		.ascii	"CYBLE_LL_CONN_CH_TYPE\000"
 3846      455F4C4C 
 3846      5F434F4E 
 3846      4E5F4348 
 3846      5F545950 
 3847              	.LASF248:
 3848 167e 4359424C 		.ascii	"CYBLE_GATTS_ERR_PROCEDURE_ALREADY_IN_PROGRESS\000"
 3848      455F4741 
 3848      5454535F 
 3848      4552525F 
 3848      50524F43 
 3849              	.LASF300:
 3850 16ac 6572725F 		.ascii	"err_param\000"
 3850      70617261 
 3850      6D00
 3851              	.LASF102:
 3852 16b6 4359424C 		.ascii	"CYBLE_ERROR_L2CAP_PSM_WRONG_ENCODING\000"
 3852      455F4552 
 3852      524F525F 
 3852      4C324341 
 3852      505F5053 
 3853              	.LASF217:
 3854 16db 4359424C 		.ascii	"CYBLE_GATT_PREPARE_WRITE_RSP\000"
 3854      455F4741 
 3854      54545F50 
 3854      52455041 
 3854      52455F57 
 3855              	.LASF317:
 3856 16f8 67507265 		.ascii	"gPrepWriteReqMem\000"
 3856      70577269 
 3856      74655265 
 3856      714D656D 
 3856      00
 3857              	.LASF235:
 3858 1709 4359424C 		.ascii	"CYBLE_GATT_ERR_ATTRIBUTE_NOT_FOUND\000"
 3858      455F4741 
 3858      54545F45 
 3858      52525F41 
 3858      54545249 
 3859              	.LASF88:
 3860 172c 4359424C 		.ascii	"CYBLE_EVT_MAX\000"
 3860      455F4556 
 3860      545F4D41 
 3860      5800
 3861              	.LASF35:
 3862 173a 4359424C 		.ascii	"CYBLE_EVT_GAPC_SCAN_START_STOP\000"
 3862      455F4556 
ARM GAS  C:\Users\LIAMSA~1\AppData\Local\Temp\cc7Yswwd.s 			page 122


 3862      545F4741 
 3862      50435F53 
 3862      43414E5F 
 3863              	.LASF334:
 3864 1759 4379426C 		.ascii	"CyBle_IsDeviceAddressValid\000"
 3864      655F4973 
 3864      44657669 
 3864      63654164 
 3864      64726573 
 3865              	.LASF184:
 3866 1774 4359424C 		.ascii	"CYBLE_GAP_AUTH_FAILED_REASON_T\000"
 3866      455F4741 
 3866      505F4155 
 3866      54485F46 
 3866      41494C45 
 3867              	.LASF60:
 3868 1793 4359424C 		.ascii	"CYBLE_EVT_GATTS_WRITE_REQ\000"
 3868      455F4556 
 3868      545F4741 
 3868      5454535F 
 3868      57524954 
 3869              	.LASF295:
 3870 17ad 70726566 		.ascii	"prefConnParamCharHandle\000"
 3870      436F6E6E 
 3870      50617261 
 3870      6D436861 
 3870      7248616E 
 3871              	.LASF27:
 3872 17c5 4359424C 		.ascii	"CYBLE_EVT_GAP_PASSKEY_DISPLAY_REQUEST\000"
 3872      455F4556 
 3872      545F4741 
 3872      505F5041 
 3872      53534B45 
 3873              	.LASF119:
 3874 17eb 4359424C 		.ascii	"CYBLE_ERROR_IND_DISABLED\000"
 3874      455F4552 
 3874      524F525F 
 3874      494E445F 
 3874      44495341 
 3875              	.LASF118:
 3876 1804 4359424C 		.ascii	"CYBLE_ERROR_NTF_DISABLED\000"
 3876      455F4552 
 3876      524F525F 
 3876      4E54465F 
 3876      44495341 
 3877              	.LASF209:
 3878 181d 4359424C 		.ascii	"CYBLE_GATT_READ_MULTIPLE_REQ\000"
 3878      455F4741 
 3878      54545F52 
 3878      4541445F 
 3878      4D554C54 
 3879              	.LASF57:
 3880 183a 4359424C 		.ascii	"CYBLE_EVT_GATTC_READ_RSP\000"
 3880      455F4556 
 3880      545F4741 
 3880      5454435F 
 3880      52454144 
ARM GAS  C:\Users\LIAMSA~1\AppData\Local\Temp\cc7Yswwd.s 			page 123


 3881              	.LASF232:
 3882 1853 4359424C 		.ascii	"CYBLE_GATT_ERR_INVALID_OFFSET\000"
 3882      455F4741 
 3882      54545F45 
 3882      52525F49 
 3882      4E56414C 
 3883              	.LASF203:
 3884 1871 4359424C 		.ascii	"CYBLE_GATT_READ_BY_TYPE_REQ\000"
 3884      455F4741 
 3884      54545F52 
 3884      4541445F 
 3884      42595F54 
 3885              	.LASF77:
 3886 188d 4359424C 		.ascii	"CYBLE_EVT_L2CAP_CBFC_CONN_CNF\000"
 3886      455F4556 
 3886      545F4C32 
 3886      4341505F 
 3886      43424643 
 3887              	.LASF263:
 3888 18ab 4359424C 		.ascii	"CYBLE_GATT_ERR_OUT_OF_RANGE\000"
 3888      455F4741 
 3888      54545F45 
 3888      52525F4F 
 3888      55545F4F 
 3889              	.LASF87:
 3890 18c7 4359424C 		.ascii	"CYBLE_EVT_FLASH_CORRUPT\000"
 3890      455F4556 
 3890      545F464C 
 3890      4153485F 
 3890      434F5252 
 3891              	.LASF15:
 3892 18df 6C6F6E67 		.ascii	"long double\000"
 3892      20646F75 
 3892      626C6500 
 3893              	.LASF201:
 3894 18eb 4359424C 		.ascii	"CYBLE_GATT_FIND_BY_TYPE_VALUE_REQ\000"
 3894      455F4741 
 3894      54545F46 
 3894      494E445F 
 3894      42595F54 
 3895              	.LASF126:
 3896 190d 4359424C 		.ascii	"CYBLE_LL_PWR_LVL_NEG_6_DBM\000"
 3896      455F4C4C 
 3896      5F505752 
 3896      5F4C564C 
 3896      5F4E4547 
 3897              	.LASF23:
 3898 1928 4359424C 		.ascii	"CYBLE_EVT_MEMORY_REQUEST\000"
 3898      455F4556 
 3898      545F4D45 
 3898      4D4F5259 
 3898      5F524551 
 3899              	.LASF294:
 3900 1941 61707065 		.ascii	"appearanceCharHandle\000"
 3900      6172616E 
 3900      63654368 
 3900      61724861 
ARM GAS  C:\Users\LIAMSA~1\AppData\Local\Temp\cc7Yswwd.s 			page 124


 3900      6E646C65 
 3901              	.LASF166:
 3902 1956 4359424C 		.ascii	"CYBLE_GAP_AUTH_ERROR_NONE\000"
 3902      455F4741 
 3902      505F4155 
 3902      54485F45 
 3902      52524F52 
 3903              	.LASF33:
 3904 1970 4359424C 		.ascii	"CYBLE_EVT_GAP_ENCRYPT_CHANGE\000"
 3904      455F4556 
 3904      545F4741 
 3904      505F454E 
 3904      43525950 
 3905              	.LASF276:
 3906 198d 71756575 		.ascii	"queueBuffer\000"
 3906      65427566 
 3906      66657200 
 3907              	.LASF51:
 3908 1999 4359424C 		.ascii	"CYBLE_EVT_GATTS_XCNHG_MTU_REQ\000"
 3908      455F4556 
 3908      545F4741 
 3908      5454535F 
 3908      58434E48 
 3909              	.LASF200:
 3910 19b7 4359424C 		.ascii	"CYBLE_GATT_FIND_INFO_RSP\000"
 3910      455F4741 
 3910      54545F46 
 3910      494E445F 
 3910      494E464F 
 3911              	.LASF168:
 3912 19d0 4359424C 		.ascii	"CYBLE_GAP_AUTH_ERROR_OOB_DATA_NOT_AVAILABLE\000"
 3912      455F4741 
 3912      505F4155 
 3912      54485F45 
 3912      52524F52 
 3913              	.LASF47:
 3914 19fc 4359424C 		.ascii	"CYBLE_EVT_GAP_SMP_LOC_P256_KEYS_GEN_AND_SET_COMPLET"
 3914      455F4556 
 3914      545F4741 
 3914      505F534D 
 3914      505F4C4F 
 3915 1a2f 4500     		.ascii	"E\000"
 3916              	.LASF141:
 3917 1a31 4359424C 		.ascii	"CYBLE_PREPARED_WRITE_REQUEST\000"
 3917      455F5052 
 3917      45504152 
 3917      45445F57 
 3917      52495445 
 3918              	.LASF195:
 3919 1a4e 4359424C 		.ascii	"CYBLE_GAP_CONN_PARAM_UPDATED_IN_CONTROLLER_T\000"
 3919      455F4741 
 3919      505F434F 
 3919      4E4E5F50 
 3919      4152414D 
 3920              	.LASF7:
 3921 1a7b 6C6F6E67 		.ascii	"long long unsigned int\000"
 3921      206C6F6E 
ARM GAS  C:\Users\LIAMSA~1\AppData\Local\Temp\cc7Yswwd.s 			page 125


 3921      6720756E 
 3921      7369676E 
 3921      65642069 
 3922              	.LASF226:
 3923 1a92 4359424C 		.ascii	"CYBLE_GATT_ERR_INVALID_HANDLE\000"
 3923      455F4741 
 3923      54545F45 
 3923      52525F49 
 3923      4E56414C 
 3924              	.LASF19:
 3925 1ab0 4359424C 		.ascii	"CYBLE_EVT_TIMEOUT\000"
 3925      455F4556 
 3925      545F5449 
 3925      4D454F55 
 3925      5400
 3926              	.LASF224:
 3927 1ac2 4359424C 		.ascii	"CYBLE_GATT_UNKNOWN_PDU_IND\000"
 3927      455F4741 
 3927      54545F55 
 3927      4E4B4E4F 
 3927      574E5F50 
 3928              	.LASF121:
 3929 1add 4359424C 		.ascii	"CYBLE_ERROR_INVALID_STATE\000"
 3929      455F4552 
 3929      524F525F 
 3929      494E5641 
 3929      4C49445F 
 3930              	.LASF265:
 3931 1af7 4359424C 		.ascii	"CYBLE_GATT_DB_ATTR_HANDLE_T\000"
 3931      455F4741 
 3931      54545F44 
 3931      425F4154 
 3931      54525F48 
 3932              	.LASF313:
 3933 1b13 626C6553 		.ascii	"bleSsPowerLevel\000"
 3933      73506F77 
 3933      65724C65 
 3933      76656C00 
 3934              	.LASF80:
 3935 1b23 4359424C 		.ascii	"CYBLE_EVT_L2CAP_CBFC_DATA_READ\000"
 3935      455F4556 
 3935      545F4C32 
 3935      4341505F 
 3935      43424643 
 3936              	.LASF225:
 3937 1b42 4359424C 		.ascii	"CYBLE_GATT_ERR_NONE\000"
 3937      455F4741 
 3937      54545F45 
 3937      52525F4E 
 3937      4F4E4500 
 3938              	.LASF271:
 3939 1b56 76616C75 		.ascii	"value\000"
 3939      6500
 3940              	.LASF277:
 3941 1b5c 746F7461 		.ascii	"totalAttrValueLength\000"
 3941      6C417474 
 3941      7256616C 
ARM GAS  C:\Users\LIAMSA~1\AppData\Local\Temp\cc7Yswwd.s 			page 126


 3941      75654C65 
 3941      6E677468 
 3942              	.LASF320:
 3943 1b71 4379426C 		.ascii	"CyBle_ApplCallback\000"
 3943      655F4170 
 3943      706C4361 
 3943      6C6C6261 
 3943      636B00
 3944              	.LASF114:
 3945 1b84 4359424C 		.ascii	"CYBLE_ERROR_FLASH_WRITE\000"
 3945      455F4552 
 3945      524F525F 
 3945      464C4153 
 3945      485F5752 
 3946              	.LASF152:
 3947 1b9c 4359424C 		.ascii	"CYBLE_GAP_SCAN_TO\000"
 3947      455F4741 
 3947      505F5343 
 3947      414E5F54 
 3947      4F00
 3948              	.LASF247:
 3949 1bae 4359424C 		.ascii	"CYBLE_GATT_ERR_HTS_OUT_OF_RANGE\000"
 3949      455F4741 
 3949      54545F45 
 3949      52525F48 
 3949      54535F4F 
 3950              	.LASF298:
 3951 1bce 4359424C 		.ascii	"CYBLE_GAPS_T\000"
 3951      455F4741 
 3951      50535F54 
 3951      00
 3952              	.LASF150:
 3953 1bdb 4359424C 		.ascii	"CYBLE_GAP_BD_ADDR_T\000"
 3953      455F4741 
 3953      505F4244 
 3953      5F414444 
 3953      525F5400 
 3954              	.LASF207:
 3955 1bef 4359424C 		.ascii	"CYBLE_GATT_READ_BLOB_REQ\000"
 3955      455F4741 
 3955      54545F52 
 3955      4541445F 
 3955      424C4F42 
 3956              	.LASF151:
 3957 1c08 4359424C 		.ascii	"CYBLE_GAP_ADV_MODE_TO\000"
 3957      455F4741 
 3957      505F4144 
 3957      565F4D4F 
 3957      44455F54 
 3958              	.LASF283:
 3959 1c1e 68616E64 		.ascii	"handleValPair\000"
 3959      6C655661 
 3959      6C506169 
 3959      7200
 3960              	.LASF274:
 3961 1c2c 636F6E6E 		.ascii	"connHandle\000"
 3961      48616E64 
ARM GAS  C:\Users\LIAMSA~1\AppData\Local\Temp\cc7Yswwd.s 			page 127


 3961      6C6500
 3962              	.LASF304:
 3963 1c37 4379426C 		.ascii	"CyBle_TimeOutEventHandler\000"
 3963      655F5469 
 3963      6D654F75 
 3963      74457665 
 3963      6E744861 
 3964              	.LASF171:
 3965 1c51 4359424C 		.ascii	"CYBLE_GAP_AUTH_ERROR_PAIRING_NOT_SUPPORTED\000"
 3965      455F4741 
 3965      505F4155 
 3965      54485F45 
 3965      52524F52 
 3966              	.LASF154:
 3967 1c7c 4359424C 		.ascii	"CYBLE_GENERIC_TO\000"
 3967      455F4745 
 3967      4E455249 
 3967      435F544F 
 3967      00
 3968              	.LASF55:
 3969 1c8d 4359424C 		.ascii	"CYBLE_EVT_GATTC_FIND_INFO_RSP\000"
 3969      455F4556 
 3969      545F4741 
 3969      5454435F 
 3969      46494E44 
 3970              	.LASF54:
 3971 1cab 4359424C 		.ascii	"CYBLE_EVT_GATTC_READ_BY_TYPE_RSP\000"
 3971      455F4556 
 3971      545F4741 
 3971      5454435F 
 3971      52454144 
 3972              	.LASF252:
 3973 1ccc 4359424C 		.ascii	"CYBLE_GATTS_ERR_OPERATION_FAILED\000"
 3973      455F4741 
 3973      5454535F 
 3973      4552525F 
 3973      4F504552 
 3974              	.LASF326:
 3975 1ced 6379426C 		.ascii	"cyBle_state\000"
 3975      655F7374 
 3975      61746500 
 3976              	.LASF115:
 3977 1cf9 4359424C 		.ascii	"CYBLE_ERROR_LL_SAME_TRANSACTION_COLLISION\000"
 3977      455F4552 
 3977      524F525F 
 3977      4C4C5F53 
 3977      414D455F 
 3978              	.LASF189:
 3979 1d23 70616972 		.ascii	"pairingProperties\000"
 3979      696E6750 
 3979      726F7065 
 3979      72746965 
 3979      7300
 3980              	.LASF61:
 3981 1d35 4359424C 		.ascii	"CYBLE_EVT_GATTC_WRITE_RSP\000"
 3981      455F4556 
 3981      545F4741 
ARM GAS  C:\Users\LIAMSA~1\AppData\Local\Temp\cc7Yswwd.s 			page 128


 3981      5454435F 
 3981      57524954 
 3982              	.LASF290:
 3983 1d4f 4359424C 		.ascii	"CYBLE_STATE_DISCONNECTED\000"
 3983      455F5354 
 3983      4154455F 
 3983      44495343 
 3983      4F4E4E45 
 3984              	.LASF315:
 3985 1d68 6C654D61 		.ascii	"leMask\000"
 3985      736B00
 3986              	.LASF30:
 3987 1d6f 4359424C 		.ascii	"CYBLE_EVT_GAPP_ADVERTISEMENT_START_STOP\000"
 3987      455F4556 
 3987      545F4741 
 3987      50505F41 
 3987      44564552 
 3988              	.LASF9:
 3989 1d97 75696E74 		.ascii	"uint8\000"
 3989      3800
 3990              	.LASF325:
 3991 1d9d 6379426C 		.ascii	"cyBle_authInfo\000"
 3991      655F6175 
 3991      7468496E 
 3991      666F00
 3992              	.LASF38:
 3993 1dac 4359424C 		.ascii	"CYBLE_EVT_GAP_KEYPRESS_NOTIFICATION\000"
 3993      455F4556 
 3993      545F4741 
 3993      505F4B45 
 3993      59505245 
 3994              	.LASF309:
 3995 1dd0 4379426C 		.ascii	"CyBle_L2Cap_ConnParamUpdateRspEventHandler\000"
 3995      655F4C32 
 3995      4361705F 
 3995      436F6E6E 
 3995      50617261 
 3996              	.LASF213:
 3997 1dfb 4359424C 		.ascii	"CYBLE_GATT_WRITE_REQ\000"
 3997      455F4741 
 3997      54545F57 
 3997      52495445 
 3997      5F524551 
 3998              	.LASF2:
 3999 1e10 73686F72 		.ascii	"short int\000"
 3999      7420696E 
 3999      7400
 4000              	.LASF188:
 4001 1e1a 61757468 		.ascii	"authErr\000"
 4001      45727200 
 4002              	.LASF112:
 4003 1e22 4359424C 		.ascii	"CYBLE_ERROR_HARDWARE_FAILURE\000"
 4003      455F4552 
 4003      524F525F 
 4003      48415244 
 4003      57415245 
 4004              	.LASF246:
ARM GAS  C:\Users\LIAMSA~1\AppData\Local\Temp\cc7Yswwd.s 			page 129


 4005 1e3f 4359424C 		.ascii	"CYBLE_GATT_ERR_CPS_INAPPROPRIATE_CONNECTION_PARAMET"
 4005      455F4741 
 4005      54545F45 
 4005      52525F43 
 4005      50535F49 
 4006 1e72 45525300 		.ascii	"ERS\000"
 4007              	.LASF231:
 4008 1e76 4359424C 		.ascii	"CYBLE_GATT_ERR_REQUEST_NOT_SUPPORTED\000"
 4008      455F4741 
 4008      54545F45 
 4008      52525F52 
 4008      45515545 
 4009              	.LASF48:
 4010 1e9b 4359424C 		.ascii	"CYBLE_EVT_GATTC_ERROR_RSP\000"
 4010      455F4556 
 4010      545F4741 
 4010      5454435F 
 4010      4552524F 
 4011              	.LASF165:
 4012 1eb5 4359424C 		.ascii	"CYBLE_GAP_IOCAP_KEYBOARD_DISPLAY\000"
 4012      455F4741 
 4012      505F494F 
 4012      4341505F 
 4012      4B455942 
 4013              	.LASF291:
 4014 1ed6 4359424C 		.ascii	"CYBLE_STATE_T\000"
 4014      455F5354 
 4014      4154455F 
 4014      5400
 4015              	.LASF76:
 4016 1ee4 4359424C 		.ascii	"CYBLE_EVT_L2CAP_CBFC_CONN_IND\000"
 4016      455F4556 
 4016      545F4C32 
 4016      4341505F 
 4016      43424643 
 4017              	.LASF64:
 4018 1f02 4359424C 		.ascii	"CYBLE_EVT_GATTS_EXEC_WRITE_REQ\000"
 4018      455F4556 
 4018      545F4741 
 4018      5454535F 
 4018      45584543 
 4019              	.LASF24:
 4020 1f21 4359424C 		.ascii	"CYBLE_EVT_GAPC_SCAN_PROGRESS_RESULT\000"
 4020      455F4556 
 4020      545F4741 
 4020      50435F53 
 4020      43414E5F 
 4021              	.LASF264:
 4022 1f45 4359424C 		.ascii	"CYBLE_GATT_ERR_CODE_T\000"
 4022      455F4741 
 4022      54545F45 
 4022      52525F43 
 4022      4F44455F 
 4023              	.LASF259:
 4024 1f5b 4359424C 		.ascii	"CYBLE_GATT_ERR_ANCS_INVALID_PARAMETER\000"
 4024      455F4741 
 4024      54545F45 
ARM GAS  C:\Users\LIAMSA~1\AppData\Local\Temp\cc7Yswwd.s 			page 130


 4024      52525F41 
 4024      4E43535F 
 4025              	.LASF98:
 4026 1f81 4359424C 		.ascii	"CYBLE_ERROR_GAP_ROLE\000"
 4026      455F4552 
 4026      524F525F 
 4026      4741505F 
 4026      524F4C45 
 4027              	.LASF321:
 4028 1f96 6379426C 		.ascii	"cyBle_stackMemoryRam\000"
 4028      655F7374 
 4028      61636B4D 
 4028      656D6F72 
 4028      7952616D 
 4029              	.LASF330:
 4030 1fab 6379426C 		.ascii	"cyBle_advertisingIntervalType\000"
 4030      655F6164 
 4030      76657274 
 4030      6973696E 
 4030      67496E74 
 4031              	.LASF45:
 4032 1fc9 4359424C 		.ascii	"CYBLE_EVT_GAP_SCAN_REQ_RECVD\000"
 4032      455F4556 
 4032      545F4741 
 4032      505F5343 
 4032      414E5F52 
 4033              	.LASF296:
 4034 1fe6 63656E74 		.ascii	"centralAddrResolutionCharHandle\000"
 4034      72616C41 
 4034      64647252 
 4034      65736F6C 
 4034      7574696F 
 4035              	.LASF148:
 4036 2006 62644164 		.ascii	"bdAddr\000"
 4036      647200
 4037              	.LASF256:
 4038 200d 4359424C 		.ascii	"CYBLE_GATT_ERR_ANS_COMMAND_NOT_SUPPORTED\000"
 4038      455F4741 
 4038      54545F45 
 4038      52525F41 
 4038      4E535F43 
 4039              	.LASF310:
 4040 2036 72657370 		.ascii	"response\000"
 4040      6F6E7365 
 4040      00
 4041              	.LASF206:
 4042 203f 4359424C 		.ascii	"CYBLE_GATT_READ_RSP\000"
 4042      455F4741 
 4042      54545F52 
 4042      4541445F 
 4042      52535000 
 4043              	.LASF314:
 4044 2053 62644164 		.ascii	"bdAddrLoc\000"
 4044      64724C6F 
 4044      6300
 4045              	.LASF95:
 4046 205d 4359424C 		.ascii	"CYBLE_ERROR_NO_CONNECTION\000"
ARM GAS  C:\Users\LIAMSA~1\AppData\Local\Temp\cc7Yswwd.s 			page 131


 4046      455F4552 
 4046      524F525F 
 4046      4E4F5F43 
 4046      4F4E4E45 
 4047              	.LASF130:
 4048 2077 4359424C 		.ascii	"CYBLE_LL_PWR_LVL_0_DBM\000"
 4048      455F4C4C 
 4048      5F505752 
 4048      5F4C564C 
 4048      5F305F44 
 4049              	.LASF134:
 4050 208e 4359424C 		.ascii	"CYBLE_LL_ADV_CH_TYPE\000"
 4050      455F4C4C 
 4050      5F414456 
 4050      5F43485F 
 4050      54595045 
 4051              	.LASF85:
 4052 20a3 4359424C 		.ascii	"CYBLE_EVT_LE_PING_AUTH_TIMEOUT\000"
 4052      455F4556 
 4052      545F4C45 
 4052      5F50494E 
 4052      475F4155 
 4053              	.LASF123:
 4054 20c2 4359424C 		.ascii	"CYBLE_API_RESULT_T\000"
 4054      455F4150 
 4054      495F5245 
 4054      53554C54 
 4054      5F5400
 4055              	.LASF67:
 4056 20d5 4359424C 		.ascii	"CYBLE_EVT_GATTC_HANDLE_VALUE_IND\000"
 4056      455F4556 
 4056      545F4741 
 4056      5454435F 
 4056      48414E44 
 4057              	.LASF312:
 4058 20f6 6576656E 		.ascii	"eventCode\000"
 4058      74436F64 
 4058      6500
 4059              	.LASF101:
 4060 2100 4359424C 		.ascii	"CYBLE_ERROR_SEC_FAILED\000"
 4060      455F4552 
 4060      524F525F 
 4060      5345435F 
 4060      4641494C 
 4061              	.LASF22:
 4062 2117 4359424C 		.ascii	"CYBLE_EVT_STACK_BUSY_STATUS\000"
 4062      455F4556 
 4062      545F5354 
 4062      41434B5F 
 4062      42555359 
 4063              	.LASF193:
 4064 2133 636F6E6E 		.ascii	"connLatency\000"
 4064      4C617465 
 4064      6E637900 
 4065              	.LASF178:
 4066 213f 4359424C 		.ascii	"CYBLE_GAP_AUTH_ERROR_NUMERIC_COMPARISON_FAILED\000"
 4066      455F4741 
ARM GAS  C:\Users\LIAMSA~1\AppData\Local\Temp\cc7Yswwd.s 			page 132


 4066      505F4155 
 4066      54485F45 
 4066      52524F52 
 4067              	.LASF162:
 4068 216e 4359424C 		.ascii	"CYBLE_GAP_IOCAP_DISPLAY_YESNO\000"
 4068      455F4741 
 4068      505F494F 
 4068      4341505F 
 4068      44495350 
 4069              	.LASF36:
 4070 218c 4359424C 		.ascii	"CYBLE_EVT_GAP_KEYINFO_EXCHNGE_CMPLT\000"
 4070      455F4556 
 4070      545F4741 
 4070      505F4B45 
 4070      59494E46 
 4071              	.LASF218:
 4072 21b0 4359424C 		.ascii	"CYBLE_GATT_EXECUTE_WRITE_REQ\000"
 4072      455F4741 
 4072      54545F45 
 4072      58454355 
 4072      54455F57 
 4073              	.LASF140:
 4074 21cd 4359424C 		.ascii	"CYBLE_BLESS_PWR_IN_DB_T\000"
 4074      455F424C 
 4074      4553535F 
 4074      5057525F 
 4074      494E5F44 
 4075              	.LASF136:
 4076 21e5 4359424C 		.ascii	"CYBLE_LL_MAX_CH_TYPE\000"
 4076      455F4C4C 
 4076      5F4D4158 
 4076      5F43485F 
 4076      54595045 
 4077              	.LASF73:
 4078 21fa 4359424C 		.ascii	"CYBLE_EVT_L2CAP_CONN_PARAM_UPDATE_REQ\000"
 4078      455F4556 
 4078      545F4C32 
 4078      4341505F 
 4078      434F4E4E 
 4079              	.LASF143:
 4080 2220 4359424C 		.ascii	"CYBLE_PROTOCOL_REQ_T\000"
 4080      455F5052 
 4080      4F544F43 
 4080      4F4C5F52 
 4080      45515F54 
 4081              	.LASF299:
 4082 2235 67617474 		.ascii	"gattErr\000"
 4082      45727200 
 4083              	.LASF228:
 4084 223d 4359424C 		.ascii	"CYBLE_GATT_ERR_WRITE_NOT_PERMITTED\000"
 4084      455F4741 
 4084      54545F45 
 4084      52525F57 
 4084      52495445 
 4085              	.LASF192:
 4086 2260 636F6E6E 		.ascii	"connIntv\000"
 4086      496E7476 
ARM GAS  C:\Users\LIAMSA~1\AppData\Local\Temp\cc7Yswwd.s 			page 133


 4086      00
 4087              	.LASF3:
 4088 2269 73686F72 		.ascii	"short unsigned int\000"
 4088      7420756E 
 4088      7369676E 
 4088      65642069 
 4088      6E7400
 4089              	.LASF240:
 4090 227c 4359424C 		.ascii	"CYBLE_GATT_ERR_INSUFFICIENT_ENCRYPTION\000"
 4090      455F4741 
 4090      54545F45 
 4090      52525F49 
 4090      4E535546 
 4091              	.LASF288:
 4092 22a3 4359424C 		.ascii	"CYBLE_STATE_CONNECTED\000"
 4092      455F5354 
 4092      4154455F 
 4092      434F4E4E 
 4092      45435445 
 4093              	.LASF269:
 4094 22b9 61637475 		.ascii	"actualLen\000"
 4094      616C4C65 
 4094      6E00
 4095              	.LASF211:
 4096 22c3 4359424C 		.ascii	"CYBLE_GATT_READ_BY_GROUP_REQ\000"
 4096      455F4741 
 4096      54545F52 
 4096      4541445F 
 4096      42595F47 
 4097              	.LASF267:
 4098 22e0 61747449 		.ascii	"attId\000"
 4098      6400
 4099              	.LASF91:
 4100 22e6 4359424C 		.ascii	"CYBLE_ERROR_INVALID_OPERATION\000"
 4100      455F4552 
 4100      524F525F 
 4100      494E5641 
 4100      4C49445F 
 4101              	.LASF21:
 4102 2304 4359424C 		.ascii	"CYBLE_EVT_HCI_STATUS\000"
 4102      455F4556 
 4102      545F4843 
 4102      495F5354 
 4102      41545553 
 4103              	.LASF50:
 4104 2319 4359424C 		.ascii	"CYBLE_EVT_GATT_DISCONNECT_IND\000"
 4104      455F4556 
 4104      545F4741 
 4104      54545F44 
 4104      4953434F 
 4105              	.LASF194:
 4106 2337 73757065 		.ascii	"supervisionTO\000"
 4106      72766973 
 4106      696F6E54 
 4106      4F00
 4107              	.LASF153:
 4108 2345 4359424C 		.ascii	"CYBLE_GATT_RSP_TO\000"
ARM GAS  C:\Users\LIAMSA~1\AppData\Local\Temp\cc7Yswwd.s 			page 134


 4108      455F4741 
 4108      54545F52 
 4108      53505F54 
 4108      4F00
 4109              	.LASF83:
 4110 2357 4359424C 		.ascii	"CYBLE_EVT_L2CAP_CBFC_DATA_WRITE_IND\000"
 4110      455F4556 
 4110      545F4C32 
 4110      4341505F 
 4110      43424643 
 4111              	.LASF72:
 4112 237b 4359424C 		.ascii	"CYBLE_EVT_GATTC_LONG_PROCEDURE_END\000"
 4112      455F4556 
 4112      545F4741 
 4112      5454435F 
 4112      4C4F4E47 
 4113              	.LASF32:
 4114 239e 4359424C 		.ascii	"CYBLE_EVT_GAP_DEVICE_DISCONNECTED\000"
 4114      455F4556 
 4114      545F4741 
 4114      505F4445 
 4114      56494345 
 4115              	.LASF68:
 4116 23c0 4359424C 		.ascii	"CYBLE_EVT_GATTS_HANDLE_VALUE_CNF\000"
 4116      455F4556 
 4116      545F4741 
 4116      5454535F 
 4116      48414E44 
 4117              	.LASF10:
 4118 23e1 75696E74 		.ascii	"uint16\000"
 4118      313600
 4119              	.LASF99:
 4120 23e8 4359424C 		.ascii	"CYBLE_ERROR_TX_POWER_READ\000"
 4120      455F4552 
 4120      524F525F 
 4120      54585F50 
 4120      4F574552 
 4121              		.ident	"GCC: (GNU Tools for ARM Embedded Processors) 5.4.1 20160609 (release) [ARM/embedded-5-bran
