ARM GAS  C:\Users\LIAMSA~1\AppData\Local\Temp\cc7Yswwd.s 			page 1


   1              		.syntax unified
   2              		.cpu cortex-m0
   3              		.fpu softvfp
   4              		.eabi_attribute 20, 1
   5              		.eabi_attribute 21, 1
   6              		.eabi_attribute 23, 3
   7              		.eabi_attribute 24, 1
   8              		.eabi_attribute 25, 1
   9              		.eabi_attribute 26, 1
  10              		.eabi_attribute 30, 6
  11              		.eabi_attribute 34, 0
  12              		.eabi_attribute 18, 4
  13              		.thumb
  14              		.syntax unified
  15              		.file	"CYBLE_eventHandler.c"
  16              		.text
  17              	.Ltext0:
  18              		.cfi_sections	.debug_frame
  19              		.comm	cyBle_connHandle,2,4
  20              		.comm	cyBle_eventHandlerFlag,1,1
  21              		.comm	cyBle_busyStatus,1,1
  22              		.global	cyBle_gaps
  23              		.section	.rodata
  24              		.align	2
  25              		.type	cyBle_gaps, %object
  26              		.size	cyBle_gaps, 12
  27              	cyBle_gaps:
  28 0000 0100     		.short	1
  29 0002 0300     		.short	3
  30 0004 0500     		.short	5
  31 0006 0700     		.short	7
  32 0008 0000     		.short	0
  33 000a 0000     		.short	0
  34              		.comm	cyBle_advertisingIntervalType,1,1
  35              		.global	cyBle_authInfo
  36              		.data
  37              		.align	2
  38              		.type	cyBle_authInfo, %object
  39              		.size	cyBle_authInfo, 5
  40              	cyBle_authInfo:
  41 0000 10       		.byte	16
  42 0001 00       		.byte	0
  43 0002 10       		.byte	16
  44 0003 00       		.byte	0
  45 0004 00       		.byte	0
  46              		.section	.text.CyBle_WriteReqHandler,"ax",%progbits
  47              		.align	2
  48              		.code	16
  49              		.thumb_func
  50              		.type	CyBle_WriteReqHandler, %function
  51              	CyBle_WriteReqHandler:
  52              	.LFB2:
  53              		.file 1 "Generated_Source\\PSoC4\\CYBLE_eventHandler.c"
   1:Generated_Source\PSoC4/CYBLE_eventHandler.c **** /***************************************************************************//**
   2:Generated_Source\PSoC4/CYBLE_eventHandler.c **** * \file CYBLE_eventHandler.c
   3:Generated_Source\PSoC4/CYBLE_eventHandler.c **** * \version 3.66
   4:Generated_Source\PSoC4/CYBLE_eventHandler.c **** * 
ARM GAS  C:\Users\LIAMSA~1\AppData\Local\Temp\cc7Yswwd.s 			page 2


   5:Generated_Source\PSoC4/CYBLE_eventHandler.c **** * \brief
   6:Generated_Source\PSoC4/CYBLE_eventHandler.c **** *  This file contains the source code for the Event Handler State Machine
   7:Generated_Source\PSoC4/CYBLE_eventHandler.c **** *  of the BLE Component.
   8:Generated_Source\PSoC4/CYBLE_eventHandler.c **** * 
   9:Generated_Source\PSoC4/CYBLE_eventHandler.c **** ********************************************************************************
  10:Generated_Source\PSoC4/CYBLE_eventHandler.c **** * \copyright
  11:Generated_Source\PSoC4/CYBLE_eventHandler.c **** * Copyright 2014-2020, Cypress Semiconductor Corporation.  All rights reserved.
  12:Generated_Source\PSoC4/CYBLE_eventHandler.c **** * You may use this file only in accordance with the license, terms, conditions,
  13:Generated_Source\PSoC4/CYBLE_eventHandler.c **** * disclaimers, and limitations in the end user license agreement accompanying
  14:Generated_Source\PSoC4/CYBLE_eventHandler.c **** * the software package with which this file was provided.
  15:Generated_Source\PSoC4/CYBLE_eventHandler.c **** *******************************************************************************/
  16:Generated_Source\PSoC4/CYBLE_eventHandler.c **** 
  17:Generated_Source\PSoC4/CYBLE_eventHandler.c **** #include "CYBLE_eventHandler.h"
  18:Generated_Source\PSoC4/CYBLE_eventHandler.c **** 
  19:Generated_Source\PSoC4/CYBLE_eventHandler.c **** 
  20:Generated_Source\PSoC4/CYBLE_eventHandler.c **** /***************************************
  21:Generated_Source\PSoC4/CYBLE_eventHandler.c **** * Private Function Prototypes
  22:Generated_Source\PSoC4/CYBLE_eventHandler.c **** ***************************************/
  23:Generated_Source\PSoC4/CYBLE_eventHandler.c **** 
  24:Generated_Source\PSoC4/CYBLE_eventHandler.c **** static void CyBle_GattDisconnectEventHandler(void);
  25:Generated_Source\PSoC4/CYBLE_eventHandler.c **** static void CyBle_TimeOutEventHandler(const CYBLE_TO_REASON_CODE_T *eventParam);
  26:Generated_Source\PSoC4/CYBLE_eventHandler.c **** static void CyBle_GattConnectReqHandler(void);
  27:Generated_Source\PSoC4/CYBLE_eventHandler.c **** static void CyBle_L2Cap_ConnParamUpdateRspEventHandler(uint16 response);
  28:Generated_Source\PSoC4/CYBLE_eventHandler.c **** static void CyBle_GapConnUpdateCompleteEventHandler(const CYBLE_GAP_CONN_PARAM_UPDATED_IN_CONTROLLE
  29:Generated_Source\PSoC4/CYBLE_eventHandler.c **** 
  30:Generated_Source\PSoC4/CYBLE_eventHandler.c **** 
  31:Generated_Source\PSoC4/CYBLE_eventHandler.c **** #if (CYBLE_GATT_ROLE_SERVER)
  32:Generated_Source\PSoC4/CYBLE_eventHandler.c **** 
  33:Generated_Source\PSoC4/CYBLE_eventHandler.c **** static void CyBle_WriteReqHandler(CYBLE_GATTS_WRITE_REQ_PARAM_T *eventParam);
  34:Generated_Source\PSoC4/CYBLE_eventHandler.c **** static void CyBle_ValueConfirmation(const CYBLE_CONN_HANDLE_T *eventParam);
  35:Generated_Source\PSoC4/CYBLE_eventHandler.c **** 
  36:Generated_Source\PSoC4/CYBLE_eventHandler.c **** #endif /* CYBLE_GATT_ROLE_SERVER */
  37:Generated_Source\PSoC4/CYBLE_eventHandler.c **** 
  38:Generated_Source\PSoC4/CYBLE_eventHandler.c **** #if (CYBLE_GATT_ROLE_CLIENT)
  39:Generated_Source\PSoC4/CYBLE_eventHandler.c **** 
  40:Generated_Source\PSoC4/CYBLE_eventHandler.c **** static void CyBle_GapcDiscoverCharacteristicsEventHandler(CYBLE_DISC_CHAR_INFO_T *discCharInfo);
  41:Generated_Source\PSoC4/CYBLE_eventHandler.c **** static CYBLE_GATT_ATTR_HANDLE_RANGE_T CyBle_GetCharRange(void);
  42:Generated_Source\PSoC4/CYBLE_eventHandler.c **** static void CyBle_GattcWriteResponseEventHandler(const CYBLE_CONN_HANDLE_T *eventParam);
  43:Generated_Source\PSoC4/CYBLE_eventHandler.c **** static void CyBle_NotificationEventHandler(CYBLE_GATTC_HANDLE_VALUE_NTF_PARAM_T *eventParam);
  44:Generated_Source\PSoC4/CYBLE_eventHandler.c **** static void CyBle_IndicationEventHandler(CYBLE_GATTC_HANDLE_VALUE_IND_PARAM_T *eventParam);
  45:Generated_Source\PSoC4/CYBLE_eventHandler.c **** static void CyBle_ReadResponseEventHandler(CYBLE_GATTC_READ_RSP_PARAM_T *eventParam);
  46:Generated_Source\PSoC4/CYBLE_eventHandler.c **** static void CyBle_ReadMultipleResponseEventHandler(CYBLE_GATTC_READ_RSP_PARAM_T *eventParam);
  47:Generated_Source\PSoC4/CYBLE_eventHandler.c **** 
  48:Generated_Source\PSoC4/CYBLE_eventHandler.c **** #endif /* CYBLE_GATT_ROLE_CLIENT */
  49:Generated_Source\PSoC4/CYBLE_eventHandler.c **** 
  50:Generated_Source\PSoC4/CYBLE_eventHandler.c **** 
  51:Generated_Source\PSoC4/CYBLE_eventHandler.c **** /***************************************
  52:Generated_Source\PSoC4/CYBLE_eventHandler.c **** * Global Variables
  53:Generated_Source\PSoC4/CYBLE_eventHandler.c **** ***************************************/
  54:Generated_Source\PSoC4/CYBLE_eventHandler.c **** 
  55:Generated_Source\PSoC4/CYBLE_eventHandler.c **** /* This global variable is initialized after connection with peer device, 
  56:Generated_Source\PSoC4/CYBLE_eventHandler.c ****    after CYBLE_EVT_GATT_CONNECT_IND event, and could be used by application code
  57:Generated_Source\PSoC4/CYBLE_eventHandler.c ****    to send data to peer device. 
  58:Generated_Source\PSoC4/CYBLE_eventHandler.c **** */
  59:Generated_Source\PSoC4/CYBLE_eventHandler.c **** CYBLE_CONN_HANDLE_T cyBle_connHandle;
  60:Generated_Source\PSoC4/CYBLE_eventHandler.c **** 
  61:Generated_Source\PSoC4/CYBLE_eventHandler.c **** volatile uint8 cyBle_eventHandlerFlag;
ARM GAS  C:\Users\LIAMSA~1\AppData\Local\Temp\cc7Yswwd.s 			page 3


  62:Generated_Source\PSoC4/CYBLE_eventHandler.c **** volatile uint8 cyBle_busyStatus;
  63:Generated_Source\PSoC4/CYBLE_eventHandler.c **** 
  64:Generated_Source\PSoC4/CYBLE_eventHandler.c **** const CYBLE_GAPS_T cyBle_gaps =
  65:Generated_Source\PSoC4/CYBLE_eventHandler.c **** {
  66:Generated_Source\PSoC4/CYBLE_eventHandler.c ****     0x0001u,    /* Handle of the GAP service */
  67:Generated_Source\PSoC4/CYBLE_eventHandler.c ****     0x0003u,    /* Handle of the Device Name characteristic */
  68:Generated_Source\PSoC4/CYBLE_eventHandler.c ****     0x0005u,    /* Handle of the Appearance characteristic */
  69:Generated_Source\PSoC4/CYBLE_eventHandler.c ****     0x0007u,    /* Handle of the Peripheral Preferred Connection Parameters characteristic */
  70:Generated_Source\PSoC4/CYBLE_eventHandler.c ****     CYBLE_GATT_INVALID_ATTR_HANDLE_VALUE, /* Handle of the Central Address Resolution characteristi
  71:Generated_Source\PSoC4/CYBLE_eventHandler.c ****     CYBLE_GATT_INVALID_ATTR_HANDLE_VALUE, /* Handle of the Resolvable Private Address Only characte
  72:Generated_Source\PSoC4/CYBLE_eventHandler.c **** };
  73:Generated_Source\PSoC4/CYBLE_eventHandler.c **** 
  74:Generated_Source\PSoC4/CYBLE_eventHandler.c **** 
  75:Generated_Source\PSoC4/CYBLE_eventHandler.c **** #if(CYBLE_GAP_ROLE_PERIPHERAL || CYBLE_GAP_ROLE_BROADCASTER) 
  76:Generated_Source\PSoC4/CYBLE_eventHandler.c ****     uint8 cyBle_advertisingIntervalType;
  77:Generated_Source\PSoC4/CYBLE_eventHandler.c **** #endif /* CYBLE_GAP_ROLE_PERIPHERAL || CYBLE_GAP_ROLE_BROADCASTER) */
  78:Generated_Source\PSoC4/CYBLE_eventHandler.c **** 
  79:Generated_Source\PSoC4/CYBLE_eventHandler.c **** #if(CYBLE_GAP_ROLE_CENTRAL || CYBLE_GAP_ROLE_OBSERVER) 
  80:Generated_Source\PSoC4/CYBLE_eventHandler.c ****     uint8 cyBle_scanningIntervalType;
  81:Generated_Source\PSoC4/CYBLE_eventHandler.c **** #endif /* CYBLE_GAP_ROLE_CENTRAL || CYBLE_GAP_ROLE_OBSERVER */
  82:Generated_Source\PSoC4/CYBLE_eventHandler.c **** 
  83:Generated_Source\PSoC4/CYBLE_eventHandler.c **** #if(CYBLE_GATT_ROLE_SERVER)
  84:Generated_Source\PSoC4/CYBLE_eventHandler.c **** #if defined CYBLE_CTS_SERVER || defined CYBLE_ESS_SERVER
  85:Generated_Source\PSoC4/CYBLE_eventHandler.c **** CYBLE_GATT_ERR_CODE_T cyBle_gattError;
  86:Generated_Source\PSoC4/CYBLE_eventHandler.c **** #endif /* defined CYBLE_CTS_SERVER || defined CYBLE_ESS_SERVER */
  87:Generated_Source\PSoC4/CYBLE_eventHandler.c **** #endif /* CYBLE_GATT_ROLE_SERVER */
  88:Generated_Source\PSoC4/CYBLE_eventHandler.c **** 
  89:Generated_Source\PSoC4/CYBLE_eventHandler.c **** #if(CYBLE_GATT_ROLE_CLIENT)
  90:Generated_Source\PSoC4/CYBLE_eventHandler.c **** uint8 cyBle_disCount; /* Counter for discovery procedures */
  91:Generated_Source\PSoC4/CYBLE_eventHandler.c **** 
  92:Generated_Source\PSoC4/CYBLE_eventHandler.c **** #ifdef CYBLE_CUSTOM_CLIENT
  93:Generated_Source\PSoC4/CYBLE_eventHandler.c **** /* Discovery included service information, used for 128-bit UUID read response handle 
  94:Generated_Source\PSoC4/CYBLE_eventHandler.c ****    and for continue discovery. 
  95:Generated_Source\PSoC4/CYBLE_eventHandler.c **** */
  96:Generated_Source\PSoC4/CYBLE_eventHandler.c **** static CYBLE_DISC_INCL_INFO_T cyBle_discInclInfo;
  97:Generated_Source\PSoC4/CYBLE_eventHandler.c **** #endif /* CYBLE_CUSTOM_CLIENT */
  98:Generated_Source\PSoC4/CYBLE_eventHandler.c **** 
  99:Generated_Source\PSoC4/CYBLE_eventHandler.c **** #ifdef CYBLE_HIDS_CLIENT
 100:Generated_Source\PSoC4/CYBLE_eventHandler.c ****     static uint8 disServiceIndex;      /* To discovery descriptors for multiple HID service instanc
 101:Generated_Source\PSoC4/CYBLE_eventHandler.c **** #endif /* CYBLE_HIDS_CLIENT */
 102:Generated_Source\PSoC4/CYBLE_eventHandler.c **** 
 103:Generated_Source\PSoC4/CYBLE_eventHandler.c **** CYBLE_DISC_SRVC_INFO_T cyBle_serverInfo[CYBLE_SRVI_COUNT] = /*4*/
 104:Generated_Source\PSoC4/CYBLE_eventHandler.c **** {
 105:Generated_Source\PSoC4/CYBLE_eventHandler.c ****     {{CYBLE_GATT_INVALID_ATTR_HANDLE_VALUE, CYBLE_GATT_INVALID_ATTR_HANDLE_VALUE}, CYBLE_UUID_GAP_S
 106:Generated_Source\PSoC4/CYBLE_eventHandler.c ****     {{CYBLE_GATT_INVALID_ATTR_HANDLE_VALUE, CYBLE_GATT_INVALID_ATTR_HANDLE_VALUE}, CYBLE_UUID_GATT_
 107:Generated_Source\PSoC4/CYBLE_eventHandler.c **** #ifdef CYBLE_AIOS_CLIENT
 108:Generated_Source\PSoC4/CYBLE_eventHandler.c ****     {{CYBLE_GATT_INVALID_ATTR_HANDLE_VALUE, CYBLE_GATT_INVALID_ATTR_HANDLE_VALUE}, CYBLE_UUID_AUTOM
 109:Generated_Source\PSoC4/CYBLE_eventHandler.c **** #endif /* CYBLE_BCS_CLIENT */
 110:Generated_Source\PSoC4/CYBLE_eventHandler.c **** #ifdef CYBLE_ANCS_CLIENT
 111:Generated_Source\PSoC4/CYBLE_eventHandler.c ****     {{CYBLE_GATT_INVALID_ATTR_HANDLE_VALUE, CYBLE_GATT_INVALID_ATTR_HANDLE_VALUE}, 0x0000u},
 112:Generated_Source\PSoC4/CYBLE_eventHandler.c **** #endif /* CYBLE_ANCS_CLIENT */
 113:Generated_Source\PSoC4/CYBLE_eventHandler.c **** #ifdef CYBLE_ANS_CLIENT
 114:Generated_Source\PSoC4/CYBLE_eventHandler.c ****     {{CYBLE_GATT_INVALID_ATTR_HANDLE_VALUE, CYBLE_GATT_INVALID_ATTR_HANDLE_VALUE}, 
 115:Generated_Source\PSoC4/CYBLE_eventHandler.c ****         CYBLE_UUID_ALERT_NOTIFICATION_SERVICE},
 116:Generated_Source\PSoC4/CYBLE_eventHandler.c **** #endif /* CYBLE_ANS_CLIENT */
 117:Generated_Source\PSoC4/CYBLE_eventHandler.c **** #ifdef CYBLE_BAS_CLIENT
 118:Generated_Source\PSoC4/CYBLE_eventHandler.c ****     {{CYBLE_GATT_INVALID_ATTR_HANDLE_VALUE, CYBLE_GATT_INVALID_ATTR_HANDLE_VALUE}, CYBLE_UUID_BAS_S
ARM GAS  C:\Users\LIAMSA~1\AppData\Local\Temp\cc7Yswwd.s 			page 4


 119:Generated_Source\PSoC4/CYBLE_eventHandler.c ****     #if(CYBLE_BASC_SERVICE_COUNT > 1u) /* Generate it by GUI */
 120:Generated_Source\PSoC4/CYBLE_eventHandler.c ****         
 121:Generated_Source\PSoC4/CYBLE_eventHandler.c ****     #endif /* CYBLE_BASC_SERVICE_COUNT > 1u */
 122:Generated_Source\PSoC4/CYBLE_eventHandler.c **** #endif /* CYBLE_BAS_CLIENT */
 123:Generated_Source\PSoC4/CYBLE_eventHandler.c **** #ifdef CYBLE_BCS_CLIENT
 124:Generated_Source\PSoC4/CYBLE_eventHandler.c ****     {{CYBLE_GATT_INVALID_ATTR_HANDLE_VALUE, CYBLE_GATT_INVALID_ATTR_HANDLE_VALUE}, CYBLE_UUID_BODY_
 125:Generated_Source\PSoC4/CYBLE_eventHandler.c **** #endif /* CYBLE_BCS_CLIENT */
 126:Generated_Source\PSoC4/CYBLE_eventHandler.c **** #ifdef CYBLE_BLS_CLIENT
 127:Generated_Source\PSoC4/CYBLE_eventHandler.c ****     {{CYBLE_GATT_INVALID_ATTR_HANDLE_VALUE, CYBLE_GATT_INVALID_ATTR_HANDLE_VALUE}, CYBLE_UUID_BLOOD
 128:Generated_Source\PSoC4/CYBLE_eventHandler.c **** #endif /* CYBLE_BLS_CLIENT */
 129:Generated_Source\PSoC4/CYBLE_eventHandler.c **** #ifdef CYBLE_BMS_CLIENT
 130:Generated_Source\PSoC4/CYBLE_eventHandler.c ****     {{CYBLE_GATT_INVALID_ATTR_HANDLE_VALUE, CYBLE_GATT_INVALID_ATTR_HANDLE_VALUE}, CYBLE_UUID_BOND_
 131:Generated_Source\PSoC4/CYBLE_eventHandler.c **** #endif /* CYBLE_BMS_CLIENT */
 132:Generated_Source\PSoC4/CYBLE_eventHandler.c **** #ifdef CYBLE_CGMS_CLIENT
 133:Generated_Source\PSoC4/CYBLE_eventHandler.c ****     {{CYBLE_GATT_INVALID_ATTR_HANDLE_VALUE, CYBLE_GATT_INVALID_ATTR_HANDLE_VALUE}, CYBLE_UUID_CGM_S
 134:Generated_Source\PSoC4/CYBLE_eventHandler.c **** #endif /* CYBLE_CGMS_CLIENT */
 135:Generated_Source\PSoC4/CYBLE_eventHandler.c **** #ifdef CYBLE_CPS_CLIENT
 136:Generated_Source\PSoC4/CYBLE_eventHandler.c ****     {{CYBLE_GATT_INVALID_ATTR_HANDLE_VALUE, CYBLE_GATT_INVALID_ATTR_HANDLE_VALUE}, CYBLE_UUID_CPS_S
 137:Generated_Source\PSoC4/CYBLE_eventHandler.c **** #endif /* CYBLE_CPS_CLIENT */
 138:Generated_Source\PSoC4/CYBLE_eventHandler.c **** #ifdef CYBLE_CSCS_CLIENT
 139:Generated_Source\PSoC4/CYBLE_eventHandler.c ****     {{CYBLE_GATT_INVALID_ATTR_HANDLE_VALUE, CYBLE_GATT_INVALID_ATTR_HANDLE_VALUE}, 
 140:Generated_Source\PSoC4/CYBLE_eventHandler.c ****         CYBLE_UUID_CYCLING_SPEED_AND_CADENCE_SERVICE},
 141:Generated_Source\PSoC4/CYBLE_eventHandler.c **** #endif /* CYBLE_CSCS_CLIENT */
 142:Generated_Source\PSoC4/CYBLE_eventHandler.c **** #ifdef CYBLE_CTS_CLIENT
 143:Generated_Source\PSoC4/CYBLE_eventHandler.c ****     {{CYBLE_GATT_INVALID_ATTR_HANDLE_VALUE, CYBLE_GATT_INVALID_ATTR_HANDLE_VALUE}, CYBLE_UUID_CURRE
 144:Generated_Source\PSoC4/CYBLE_eventHandler.c **** #endif /* CYBLE_CTS_CLIENT */
 145:Generated_Source\PSoC4/CYBLE_eventHandler.c **** #ifdef CYBLE_CUSTOM_CLIENT
 146:Generated_Source\PSoC4/CYBLE_eventHandler.c ****     
 147:Generated_Source\PSoC4/CYBLE_eventHandler.c **** #endif /* CYBLE_CUSTOM_CLIENT */
 148:Generated_Source\PSoC4/CYBLE_eventHandler.c **** #ifdef CYBLE_DIS_CLIENT
 149:Generated_Source\PSoC4/CYBLE_eventHandler.c ****     {{CYBLE_GATT_INVALID_ATTR_HANDLE_VALUE, CYBLE_GATT_INVALID_ATTR_HANDLE_VALUE}, CYBLE_UUID_DEVIC
 150:Generated_Source\PSoC4/CYBLE_eventHandler.c **** #endif /* CYBLE_DIS_CLIENT */
 151:Generated_Source\PSoC4/CYBLE_eventHandler.c **** #ifdef CYBLE_ESS_CLIENT
 152:Generated_Source\PSoC4/CYBLE_eventHandler.c ****     {{CYBLE_GATT_INVALID_ATTR_HANDLE_VALUE, CYBLE_GATT_INVALID_ATTR_HANDLE_VALUE}, 
 153:Generated_Source\PSoC4/CYBLE_eventHandler.c ****         CYBLE_UUID_ENVIRONMENTAL_SENSING_SERVICE},
 154:Generated_Source\PSoC4/CYBLE_eventHandler.c **** #endif /* CYBLE_ESS_CLIENT */
 155:Generated_Source\PSoC4/CYBLE_eventHandler.c **** #ifdef CYBLE_GLS_CLIENT
 156:Generated_Source\PSoC4/CYBLE_eventHandler.c ****     {{CYBLE_GATT_INVALID_ATTR_HANDLE_VALUE, CYBLE_GATT_INVALID_ATTR_HANDLE_VALUE}, CYBLE_UUID_GLUCO
 157:Generated_Source\PSoC4/CYBLE_eventHandler.c **** #endif /* CYBLE_GLS_CLIENT */
 158:Generated_Source\PSoC4/CYBLE_eventHandler.c **** #ifdef CYBLE_HIDS_CLIENT
 159:Generated_Source\PSoC4/CYBLE_eventHandler.c ****     {{CYBLE_GATT_INVALID_ATTR_HANDLE_VALUE, CYBLE_GATT_INVALID_ATTR_HANDLE_VALUE}, CYBLE_UUID_HIDS_
 160:Generated_Source\PSoC4/CYBLE_eventHandler.c ****     #if(CYBLE_HIDSC_SERVICE_COUNT > 1u) /* Generate it by GUI */
 161:Generated_Source\PSoC4/CYBLE_eventHandler.c ****         
 162:Generated_Source\PSoC4/CYBLE_eventHandler.c ****     #endif /* CYBLE_HIDSC_SERVICE_COUNT > 1u */
 163:Generated_Source\PSoC4/CYBLE_eventHandler.c **** #endif /* CYBLE_HIDS_CLIENT */
 164:Generated_Source\PSoC4/CYBLE_eventHandler.c **** #ifdef CYBLE_HPS_CLIENT
 165:Generated_Source\PSoC4/CYBLE_eventHandler.c ****     {{CYBLE_GATT_INVALID_ATTR_HANDLE_VALUE, CYBLE_GATT_INVALID_ATTR_HANDLE_VALUE}, CYBLE_UUID_HTTP_
 166:Generated_Source\PSoC4/CYBLE_eventHandler.c **** #endif /* CYBLE_HPS_CLIENT */
 167:Generated_Source\PSoC4/CYBLE_eventHandler.c **** #ifdef CYBLE_HRS_CLIENT
 168:Generated_Source\PSoC4/CYBLE_eventHandler.c ****     {{CYBLE_GATT_INVALID_ATTR_HANDLE_VALUE, CYBLE_GATT_INVALID_ATTR_HANDLE_VALUE}, CYBLE_UUID_HEART
 169:Generated_Source\PSoC4/CYBLE_eventHandler.c **** #endif /* CYBLE_HRS_CLIENT */
 170:Generated_Source\PSoC4/CYBLE_eventHandler.c **** #ifdef CYBLE_HTS_CLIENT
 171:Generated_Source\PSoC4/CYBLE_eventHandler.c ****     {{CYBLE_GATT_INVALID_ATTR_HANDLE_VALUE, CYBLE_GATT_INVALID_ATTR_HANDLE_VALUE}, CYBLE_UUID_HEALT
 172:Generated_Source\PSoC4/CYBLE_eventHandler.c **** #endif /* CYBLE_HTS_CLIENT */
 173:Generated_Source\PSoC4/CYBLE_eventHandler.c **** #ifdef CYBLE_IAS_CLIENT
 174:Generated_Source\PSoC4/CYBLE_eventHandler.c ****     {{CYBLE_GATT_INVALID_ATTR_HANDLE_VALUE, CYBLE_GATT_INVALID_ATTR_HANDLE_VALUE}, CYBLE_UUID_IMMED
 175:Generated_Source\PSoC4/CYBLE_eventHandler.c **** #endif /* CYBLE_IAS_CLIENT */
ARM GAS  C:\Users\LIAMSA~1\AppData\Local\Temp\cc7Yswwd.s 			page 5


 176:Generated_Source\PSoC4/CYBLE_eventHandler.c **** #ifdef CYBLE_IPS_CLIENT
 177:Generated_Source\PSoC4/CYBLE_eventHandler.c ****     {{CYBLE_GATT_INVALID_ATTR_HANDLE_VALUE, CYBLE_GATT_INVALID_ATTR_HANDLE_VALUE}, CYBLE_UUID_IPS_S
 178:Generated_Source\PSoC4/CYBLE_eventHandler.c **** #endif /* CYBLE_IPS_CLIENT */
 179:Generated_Source\PSoC4/CYBLE_eventHandler.c **** #ifdef CYBLE_LLS_CLIENT
 180:Generated_Source\PSoC4/CYBLE_eventHandler.c ****     {{CYBLE_GATT_INVALID_ATTR_HANDLE_VALUE, CYBLE_GATT_INVALID_ATTR_HANDLE_VALUE}, CYBLE_UUID_LINK_
 181:Generated_Source\PSoC4/CYBLE_eventHandler.c **** #endif /* CYBLE_LLS_CLIENT */
 182:Generated_Source\PSoC4/CYBLE_eventHandler.c **** #ifdef CYBLE_LNS_CLIENT
 183:Generated_Source\PSoC4/CYBLE_eventHandler.c ****     {{CYBLE_GATT_INVALID_ATTR_HANDLE_VALUE, CYBLE_GATT_INVALID_ATTR_HANDLE_VALUE}, CYBLE_UUID_LOCAT
 184:Generated_Source\PSoC4/CYBLE_eventHandler.c **** #endif /* CYBLE_LNS_CLIENT */
 185:Generated_Source\PSoC4/CYBLE_eventHandler.c **** #ifdef CYBLE_NDCS_CLIENT
 186:Generated_Source\PSoC4/CYBLE_eventHandler.c ****     {{CYBLE_GATT_INVALID_ATTR_HANDLE_VALUE, CYBLE_GATT_INVALID_ATTR_HANDLE_VALUE}, CYBLE_UUID_NEXT_
 187:Generated_Source\PSoC4/CYBLE_eventHandler.c **** #endif /* CYBLE_NDCS_CLIENT */
 188:Generated_Source\PSoC4/CYBLE_eventHandler.c **** #ifdef CYBLE_IPSS_CLIENT
 189:Generated_Source\PSoC4/CYBLE_eventHandler.c ****     {{CYBLE_GATT_INVALID_ATTR_HANDLE_VALUE, CYBLE_GATT_INVALID_ATTR_HANDLE_VALUE}, CYBLE_UUID_INTER
 190:Generated_Source\PSoC4/CYBLE_eventHandler.c **** #endif /* CYBLE_IPSS_CLIENT */
 191:Generated_Source\PSoC4/CYBLE_eventHandler.c **** #ifdef CYBLE_OTS_CLIENT
 192:Generated_Source\PSoC4/CYBLE_eventHandler.c ****     {{CYBLE_GATT_INVALID_ATTR_HANDLE_VALUE, CYBLE_GATT_INVALID_ATTR_HANDLE_VALUE}, CYBLE_UUID_OTS_S
 193:Generated_Source\PSoC4/CYBLE_eventHandler.c **** #endif /* CYBLE_OTS_CLIENT */
 194:Generated_Source\PSoC4/CYBLE_eventHandler.c **** #ifdef CYBLE_PASS_CLIENT
 195:Generated_Source\PSoC4/CYBLE_eventHandler.c ****     {{CYBLE_GATT_INVALID_ATTR_HANDLE_VALUE, CYBLE_GATT_INVALID_ATTR_HANDLE_VALUE}, CYBLE_UUID_PHONE
 196:Generated_Source\PSoC4/CYBLE_eventHandler.c **** #endif /* CYBLE_PASS_CLIENT */
 197:Generated_Source\PSoC4/CYBLE_eventHandler.c **** #ifdef CYBLE_PLXS_CLIENT
 198:Generated_Source\PSoC4/CYBLE_eventHandler.c ****     {{CYBLE_GATT_INVALID_ATTR_HANDLE_VALUE, CYBLE_GATT_INVALID_ATTR_HANDLE_VALUE}, CYBLE_UUID_PLX_S
 199:Generated_Source\PSoC4/CYBLE_eventHandler.c **** #endif /* CYBLE_PLXS_CLIENT */
 200:Generated_Source\PSoC4/CYBLE_eventHandler.c **** #ifdef CYBLE_RSCS_CLIENT
 201:Generated_Source\PSoC4/CYBLE_eventHandler.c ****     {{CYBLE_GATT_INVALID_ATTR_HANDLE_VALUE, CYBLE_GATT_INVALID_ATTR_HANDLE_VALUE}, CYBLE_UUID_RUNNI
 202:Generated_Source\PSoC4/CYBLE_eventHandler.c **** #endif /* CYBLE_RSCS_CLIENT */
 203:Generated_Source\PSoC4/CYBLE_eventHandler.c **** #ifdef CYBLE_RTUS_CLIENT
 204:Generated_Source\PSoC4/CYBLE_eventHandler.c ****     {{CYBLE_GATT_INVALID_ATTR_HANDLE_VALUE, CYBLE_GATT_INVALID_ATTR_HANDLE_VALUE}, CYBLE_UUID_REF_T
 205:Generated_Source\PSoC4/CYBLE_eventHandler.c **** #endif /* CYBLE_RTUS_CLIENT */
 206:Generated_Source\PSoC4/CYBLE_eventHandler.c **** #ifdef CYBLE_SCPS_CLIENT
 207:Generated_Source\PSoC4/CYBLE_eventHandler.c ****     {{CYBLE_GATT_INVALID_ATTR_HANDLE_VALUE, CYBLE_GATT_INVALID_ATTR_HANDLE_VALUE}, CYBLE_UUID_SCAN_
 208:Generated_Source\PSoC4/CYBLE_eventHandler.c **** #endif /* CYBLE_SCPS_CLIENT */
 209:Generated_Source\PSoC4/CYBLE_eventHandler.c **** #ifdef CYBLE_TPS_CLIENT
 210:Generated_Source\PSoC4/CYBLE_eventHandler.c ****     {{CYBLE_GATT_INVALID_ATTR_HANDLE_VALUE, CYBLE_GATT_INVALID_ATTR_HANDLE_VALUE}, CYBLE_UUID_TX_PO
 211:Generated_Source\PSoC4/CYBLE_eventHandler.c **** #endif /* CYBLE_TPS_CLIENT */
 212:Generated_Source\PSoC4/CYBLE_eventHandler.c **** #ifdef CYBLE_UDS_CLIENT
 213:Generated_Source\PSoC4/CYBLE_eventHandler.c ****     {{CYBLE_GATT_INVALID_ATTR_HANDLE_VALUE, CYBLE_GATT_INVALID_ATTR_HANDLE_VALUE}, CYBLE_UUID_USER_
 214:Generated_Source\PSoC4/CYBLE_eventHandler.c **** #endif /* CYBLE_UDS_CLIENT */
 215:Generated_Source\PSoC4/CYBLE_eventHandler.c **** #ifdef CYBLE_WSS_CLIENT
 216:Generated_Source\PSoC4/CYBLE_eventHandler.c ****     {{CYBLE_GATT_INVALID_ATTR_HANDLE_VALUE, CYBLE_GATT_INVALID_ATTR_HANDLE_VALUE}, CYBLE_UUID_WEIGH
 217:Generated_Source\PSoC4/CYBLE_eventHandler.c **** #endif /* CYBLE_WSS_CLIENT */
 218:Generated_Source\PSoC4/CYBLE_eventHandler.c **** #ifdef CYBLE_WPTS_CLIENT
 219:Generated_Source\PSoC4/CYBLE_eventHandler.c ****     {{CYBLE_GATT_INVALID_ATTR_HANDLE_VALUE, CYBLE_GATT_INVALID_ATTR_HANDLE_VALUE}, CYBLE_UUID_WIREL
 220:Generated_Source\PSoC4/CYBLE_eventHandler.c **** #endif /* CYBLE_WPTS_CLIENT */
 221:Generated_Source\PSoC4/CYBLE_eventHandler.c **** };
 222:Generated_Source\PSoC4/CYBLE_eventHandler.c **** 
 223:Generated_Source\PSoC4/CYBLE_eventHandler.c **** CYBLE_GAPC_T cyBle_gapc;
 224:Generated_Source\PSoC4/CYBLE_eventHandler.c **** 
 225:Generated_Source\PSoC4/CYBLE_eventHandler.c **** #endif /* CYBLE_GATT_ROLE_CLIENT */
 226:Generated_Source\PSoC4/CYBLE_eventHandler.c **** 
 227:Generated_Source\PSoC4/CYBLE_eventHandler.c **** /* Default device security */
 228:Generated_Source\PSoC4/CYBLE_eventHandler.c **** CYBLE_GAP_AUTH_INFO_T cyBle_authInfo =
 229:Generated_Source\PSoC4/CYBLE_eventHandler.c **** {
 230:Generated_Source\PSoC4/CYBLE_eventHandler.c ****     (CYBLE_GAP_SEC_MODE_1 | CYBLE_GAP_SEC_LEVEL_1 ), /* uint8 security */
 231:Generated_Source\PSoC4/CYBLE_eventHandler.c ****     CYBLE_GAP_BONDING_NONE, /* uint8 bonding */
 232:Generated_Source\PSoC4/CYBLE_eventHandler.c ****     0x10u,      /* uint8 ekeySize */
ARM GAS  C:\Users\LIAMSA~1\AppData\Local\Temp\cc7Yswwd.s 			page 6


 233:Generated_Source\PSoC4/CYBLE_eventHandler.c ****     CYBLE_GAP_AUTH_ERROR_NONE, /* CYBLE_AUTH_FAILED_REASON_T authErr */
 234:Generated_Source\PSoC4/CYBLE_eventHandler.c ****     0x00u,      /* uint8 pairingProperties */
 235:Generated_Source\PSoC4/CYBLE_eventHandler.c **** };
 236:Generated_Source\PSoC4/CYBLE_eventHandler.c **** 
 237:Generated_Source\PSoC4/CYBLE_eventHandler.c **** #if(CYBLE_GATT_ROLE_SERVER)
 238:Generated_Source\PSoC4/CYBLE_eventHandler.c **** 
 239:Generated_Source\PSoC4/CYBLE_eventHandler.c **** 
 240:Generated_Source\PSoC4/CYBLE_eventHandler.c **** /******************************************************************************    
 241:Generated_Source\PSoC4/CYBLE_eventHandler.c **** * Function Name: CyBle_WriteReqHandler
 242:Generated_Source\PSoC4/CYBLE_eventHandler.c **** ***************************************************************************//**
 243:Generated_Source\PSoC4/CYBLE_eventHandler.c **** * 
 244:Generated_Source\PSoC4/CYBLE_eventHandler.c **** *  Handles the Write Request event from BLE stack.
 245:Generated_Source\PSoC4/CYBLE_eventHandler.c **** * 
 246:Generated_Source\PSoC4/CYBLE_eventHandler.c **** *  CYBLE_GATTS_WRITE_REQ_PARAM_T * eventParam - event parameter
 247:Generated_Source\PSoC4/CYBLE_eventHandler.c **** * 
 248:Generated_Source\PSoC4/CYBLE_eventHandler.c **** * \return
 249:Generated_Source\PSoC4/CYBLE_eventHandler.c **** *  None
 250:Generated_Source\PSoC4/CYBLE_eventHandler.c **** * 
 251:Generated_Source\PSoC4/CYBLE_eventHandler.c **** ******************************************************************************/
 252:Generated_Source\PSoC4/CYBLE_eventHandler.c **** static void CyBle_WriteReqHandler(CYBLE_GATTS_WRITE_REQ_PARAM_T *eventParam)
 253:Generated_Source\PSoC4/CYBLE_eventHandler.c **** {
  54              		.loc 1 253 0
  55              		.cfi_startproc
  56              		@ args = 0, pretend = 0, frame = 16
  57              		@ frame_needed = 1, uses_anonymous_args = 0
  58 0000 90B5     		push	{r4, r7, lr}
  59              		.cfi_def_cfa_offset 12
  60              		.cfi_offset 4, -12
  61              		.cfi_offset 7, -8
  62              		.cfi_offset 14, -4
  63 0002 85B0     		sub	sp, sp, #20
  64              		.cfi_def_cfa_offset 32
  65 0004 00AF     		add	r7, sp, #0
  66              		.cfi_def_cfa_register 7
  67 0006 7860     		str	r0, [r7, #4]
 254:Generated_Source\PSoC4/CYBLE_eventHandler.c ****     CYBLE_GATT_ERR_CODE_T gattErr;
 255:Generated_Source\PSoC4/CYBLE_eventHandler.c **** #if defined CYBLE_CTS_SERVER || defined CYBLE_ESS_SERVER
 256:Generated_Source\PSoC4/CYBLE_eventHandler.c ****     cyBle_gattError = CYBLE_GATT_ERR_NONE;
 257:Generated_Source\PSoC4/CYBLE_eventHandler.c **** #endif /* defined CYBLE_CTS_SERVER || defined CYBLE_ESS_SERVER */
 258:Generated_Source\PSoC4/CYBLE_eventHandler.c ****     
 259:Generated_Source\PSoC4/CYBLE_eventHandler.c ****     gattErr = CyBle_GattsWriteEventHandler(eventParam);
  68              		.loc 1 259 0
  69 0008 0F23     		movs	r3, #15
  70 000a FC18     		adds	r4, r7, r3
  71 000c 7B68     		ldr	r3, [r7, #4]
  72 000e 1800     		movs	r0, r3
  73 0010 FFF7FEFF 		bl	CyBle_GattsWriteEventHandler
  74 0014 0300     		movs	r3, r0
  75 0016 2370     		strb	r3, [r4]
 260:Generated_Source\PSoC4/CYBLE_eventHandler.c **** #ifdef CYBLE_AIOS_SERVER
 261:Generated_Source\PSoC4/CYBLE_eventHandler.c ****     if(((cyBle_eventHandlerFlag & CYBLE_CALLBACK) != 0u) && (gattErr == CYBLE_GATT_ERR_NONE))
 262:Generated_Source\PSoC4/CYBLE_eventHandler.c ****     {
 263:Generated_Source\PSoC4/CYBLE_eventHandler.c ****         gattErr = CyBle_AiossWriteEventHandler(eventParam);
 264:Generated_Source\PSoC4/CYBLE_eventHandler.c ****     }
 265:Generated_Source\PSoC4/CYBLE_eventHandler.c **** #endif /* CYBLE_AIOS_SERVER */
 266:Generated_Source\PSoC4/CYBLE_eventHandler.c **** #ifdef CYBLE_ANCS_SERVER
 267:Generated_Source\PSoC4/CYBLE_eventHandler.c ****     if(((cyBle_eventHandlerFlag & CYBLE_CALLBACK) != 0u) && (gattErr == CYBLE_GATT_ERR_NONE))
ARM GAS  C:\Users\LIAMSA~1\AppData\Local\Temp\cc7Yswwd.s 			page 7


 268:Generated_Source\PSoC4/CYBLE_eventHandler.c ****     {
 269:Generated_Source\PSoC4/CYBLE_eventHandler.c ****         gattErr = CyBle_AncssWriteEventHandler(eventParam);
 270:Generated_Source\PSoC4/CYBLE_eventHandler.c ****     }
 271:Generated_Source\PSoC4/CYBLE_eventHandler.c **** #endif /* CYBLE_ANCS_SERVER */
 272:Generated_Source\PSoC4/CYBLE_eventHandler.c **** #ifdef CYBLE_ANS_SERVER
 273:Generated_Source\PSoC4/CYBLE_eventHandler.c ****     if(((cyBle_eventHandlerFlag & CYBLE_CALLBACK) != 0u) && (gattErr == CYBLE_GATT_ERR_NONE))
 274:Generated_Source\PSoC4/CYBLE_eventHandler.c ****     {
 275:Generated_Source\PSoC4/CYBLE_eventHandler.c ****         gattErr = CyBle_AnssWriteEventHandler(eventParam);
 276:Generated_Source\PSoC4/CYBLE_eventHandler.c ****     }
 277:Generated_Source\PSoC4/CYBLE_eventHandler.c **** #endif /* CYBLE_ANS_SERVER */
 278:Generated_Source\PSoC4/CYBLE_eventHandler.c **** #ifdef CYBLE_BAS_SERVER
 279:Generated_Source\PSoC4/CYBLE_eventHandler.c ****     if(((cyBle_eventHandlerFlag & CYBLE_CALLBACK) != 0u) && (gattErr == CYBLE_GATT_ERR_NONE))
 280:Generated_Source\PSoC4/CYBLE_eventHandler.c ****     {
 281:Generated_Source\PSoC4/CYBLE_eventHandler.c ****         gattErr = CyBle_BassWriteEventHandler(eventParam);
 282:Generated_Source\PSoC4/CYBLE_eventHandler.c ****     }
 283:Generated_Source\PSoC4/CYBLE_eventHandler.c **** #endif /* CYBLE_BAS_SERVER */
 284:Generated_Source\PSoC4/CYBLE_eventHandler.c **** #ifdef CYBLE_BCS_SERVER
 285:Generated_Source\PSoC4/CYBLE_eventHandler.c ****     if(((cyBle_eventHandlerFlag & CYBLE_CALLBACK) != 0u) && (gattErr == CYBLE_GATT_ERR_NONE))
 286:Generated_Source\PSoC4/CYBLE_eventHandler.c ****     {
 287:Generated_Source\PSoC4/CYBLE_eventHandler.c ****         gattErr = CyBle_BcssWriteEventHandler(eventParam);
 288:Generated_Source\PSoC4/CYBLE_eventHandler.c ****     }
 289:Generated_Source\PSoC4/CYBLE_eventHandler.c **** #endif /* CYBLE_BCS_SERVER */
 290:Generated_Source\PSoC4/CYBLE_eventHandler.c **** #ifdef CYBLE_BLS_SERVER
 291:Generated_Source\PSoC4/CYBLE_eventHandler.c ****     if(((cyBle_eventHandlerFlag & CYBLE_CALLBACK) != 0u) && (gattErr == CYBLE_GATT_ERR_NONE))
 292:Generated_Source\PSoC4/CYBLE_eventHandler.c ****     {
 293:Generated_Source\PSoC4/CYBLE_eventHandler.c ****         gattErr = CyBle_BlssWriteEventHandler(eventParam);
 294:Generated_Source\PSoC4/CYBLE_eventHandler.c ****     }
 295:Generated_Source\PSoC4/CYBLE_eventHandler.c **** #endif /* CYBLE_BLS_SERVER */
 296:Generated_Source\PSoC4/CYBLE_eventHandler.c **** #ifdef CYBLE_BMS_SERVER
 297:Generated_Source\PSoC4/CYBLE_eventHandler.c ****     if(((cyBle_eventHandlerFlag & CYBLE_CALLBACK) != 0u) && (gattErr == CYBLE_GATT_ERR_NONE))
 298:Generated_Source\PSoC4/CYBLE_eventHandler.c ****     {
 299:Generated_Source\PSoC4/CYBLE_eventHandler.c ****         gattErr = CyBle_BmssWriteEventHandler(eventParam);
 300:Generated_Source\PSoC4/CYBLE_eventHandler.c ****     }
 301:Generated_Source\PSoC4/CYBLE_eventHandler.c **** #endif /* CYBLE_BMS_SERVER */
 302:Generated_Source\PSoC4/CYBLE_eventHandler.c **** #ifdef CYBLE_BTS_SERVER
 303:Generated_Source\PSoC4/CYBLE_eventHandler.c ****     if((cyBle_eventHandlerFlag & CYBLE_CALLBACK) != 0u)
 304:Generated_Source\PSoC4/CYBLE_eventHandler.c ****     {
 305:Generated_Source\PSoC4/CYBLE_eventHandler.c ****         gattErr = CyBle_BtsWriteEventHandler(eventParam);
 306:Generated_Source\PSoC4/CYBLE_eventHandler.c ****     }
 307:Generated_Source\PSoC4/CYBLE_eventHandler.c **** #endif /* CYBLE_BTS_SERVER */
 308:Generated_Source\PSoC4/CYBLE_eventHandler.c **** #ifdef CYBLE_CGMS_SERVER
 309:Generated_Source\PSoC4/CYBLE_eventHandler.c ****     if(((cyBle_eventHandlerFlag & CYBLE_CALLBACK) != 0u) && (gattErr == CYBLE_GATT_ERR_NONE))
 310:Generated_Source\PSoC4/CYBLE_eventHandler.c ****     {
 311:Generated_Source\PSoC4/CYBLE_eventHandler.c ****         gattErr = CyBle_CgmssWriteEventHandler(eventParam);
 312:Generated_Source\PSoC4/CYBLE_eventHandler.c ****     }
 313:Generated_Source\PSoC4/CYBLE_eventHandler.c **** #endif /* CYBLE_CGMS_SERVER */
 314:Generated_Source\PSoC4/CYBLE_eventHandler.c **** #ifdef CYBLE_CPS_SERVER
 315:Generated_Source\PSoC4/CYBLE_eventHandler.c ****     if(((cyBle_eventHandlerFlag & CYBLE_CALLBACK) != 0u) && (gattErr == CYBLE_GATT_ERR_NONE))
 316:Generated_Source\PSoC4/CYBLE_eventHandler.c ****     {
 317:Generated_Source\PSoC4/CYBLE_eventHandler.c ****         gattErr = CyBle_CpssWriteEventHandler(eventParam);
 318:Generated_Source\PSoC4/CYBLE_eventHandler.c ****     }
 319:Generated_Source\PSoC4/CYBLE_eventHandler.c **** #endif /* CYBLE_CPS_SERVER */
 320:Generated_Source\PSoC4/CYBLE_eventHandler.c **** #ifdef CYBLE_CSCS_SERVER
 321:Generated_Source\PSoC4/CYBLE_eventHandler.c ****     if(((cyBle_eventHandlerFlag & CYBLE_CALLBACK) != 0u) && (gattErr == CYBLE_GATT_ERR_NONE))
 322:Generated_Source\PSoC4/CYBLE_eventHandler.c ****     {
 323:Generated_Source\PSoC4/CYBLE_eventHandler.c ****         gattErr = CyBle_CscssWriteEventHandler(eventParam);
 324:Generated_Source\PSoC4/CYBLE_eventHandler.c ****     }
ARM GAS  C:\Users\LIAMSA~1\AppData\Local\Temp\cc7Yswwd.s 			page 8


 325:Generated_Source\PSoC4/CYBLE_eventHandler.c **** #endif /* CYBLE_CSCS_SERVER */
 326:Generated_Source\PSoC4/CYBLE_eventHandler.c **** #ifdef CYBLE_CTS_SERVER
 327:Generated_Source\PSoC4/CYBLE_eventHandler.c ****     if(((cyBle_eventHandlerFlag & CYBLE_CALLBACK) != 0u) && (gattErr == CYBLE_GATT_ERR_NONE))
 328:Generated_Source\PSoC4/CYBLE_eventHandler.c ****     {
 329:Generated_Source\PSoC4/CYBLE_eventHandler.c ****         gattErr = CyBle_CtssWriteEventHandler(eventParam);
 330:Generated_Source\PSoC4/CYBLE_eventHandler.c ****     }
 331:Generated_Source\PSoC4/CYBLE_eventHandler.c **** #endif /* CYBLE_CTS_SERVER */
 332:Generated_Source\PSoC4/CYBLE_eventHandler.c **** #ifdef CYBLE_ESS_SERVER
 333:Generated_Source\PSoC4/CYBLE_eventHandler.c ****     if(((cyBle_eventHandlerFlag & CYBLE_CALLBACK) != 0u) && (gattErr == CYBLE_GATT_ERR_NONE))
 334:Generated_Source\PSoC4/CYBLE_eventHandler.c ****     {
 335:Generated_Source\PSoC4/CYBLE_eventHandler.c ****         gattErr = CyBle_EsssWriteEventHandler(eventParam);
 336:Generated_Source\PSoC4/CYBLE_eventHandler.c ****     }
 337:Generated_Source\PSoC4/CYBLE_eventHandler.c **** #endif /* CYBLE_ESS_SERVER */
 338:Generated_Source\PSoC4/CYBLE_eventHandler.c **** #ifdef CYBLE_GLS_SERVER
 339:Generated_Source\PSoC4/CYBLE_eventHandler.c ****     if(((cyBle_eventHandlerFlag & CYBLE_CALLBACK) != 0u) && (gattErr == CYBLE_GATT_ERR_NONE))
 340:Generated_Source\PSoC4/CYBLE_eventHandler.c ****     {
 341:Generated_Source\PSoC4/CYBLE_eventHandler.c ****         gattErr = CyBle_GlssWriteEventHandler(eventParam);
 342:Generated_Source\PSoC4/CYBLE_eventHandler.c ****     }
 343:Generated_Source\PSoC4/CYBLE_eventHandler.c **** #endif /* CYBLE_GLS_SERVER */
 344:Generated_Source\PSoC4/CYBLE_eventHandler.c **** #ifdef CYBLE_HIDS_SERVER
 345:Generated_Source\PSoC4/CYBLE_eventHandler.c ****     if(((cyBle_eventHandlerFlag & CYBLE_CALLBACK) != 0u) && (gattErr == CYBLE_GATT_ERR_NONE))
 346:Generated_Source\PSoC4/CYBLE_eventHandler.c ****     {
 347:Generated_Source\PSoC4/CYBLE_eventHandler.c ****         gattErr = CyBle_HidssWriteEventHandler(eventParam);
 348:Generated_Source\PSoC4/CYBLE_eventHandler.c ****     }
 349:Generated_Source\PSoC4/CYBLE_eventHandler.c **** #endif /* CYBLE_HIDS_SERVER */
 350:Generated_Source\PSoC4/CYBLE_eventHandler.c **** #ifdef CYBLE_HPS_SERVER
 351:Generated_Source\PSoC4/CYBLE_eventHandler.c ****     if(((cyBle_eventHandlerFlag & CYBLE_CALLBACK) != 0u) && (gattErr == CYBLE_GATT_ERR_NONE))
 352:Generated_Source\PSoC4/CYBLE_eventHandler.c ****     {
 353:Generated_Source\PSoC4/CYBLE_eventHandler.c ****         gattErr = CyBle_HpssWriteEventHandler(eventParam);
 354:Generated_Source\PSoC4/CYBLE_eventHandler.c ****     }
 355:Generated_Source\PSoC4/CYBLE_eventHandler.c **** #endif /* CYBLE_HPS_SERVER */
 356:Generated_Source\PSoC4/CYBLE_eventHandler.c **** #ifdef CYBLE_HRS_SERVER
 357:Generated_Source\PSoC4/CYBLE_eventHandler.c ****     if(((cyBle_eventHandlerFlag & CYBLE_CALLBACK) != 0u) && (gattErr == CYBLE_GATT_ERR_NONE))
 358:Generated_Source\PSoC4/CYBLE_eventHandler.c ****     {
 359:Generated_Source\PSoC4/CYBLE_eventHandler.c ****         gattErr = CyBle_HrssWriteEventHandler(eventParam);
 360:Generated_Source\PSoC4/CYBLE_eventHandler.c ****     }
 361:Generated_Source\PSoC4/CYBLE_eventHandler.c **** #endif /* CYBLE_HRS_SERVER */
 362:Generated_Source\PSoC4/CYBLE_eventHandler.c **** #ifdef CYBLE_HTS_SERVER
 363:Generated_Source\PSoC4/CYBLE_eventHandler.c ****     if(((cyBle_eventHandlerFlag & CYBLE_CALLBACK) != 0u) && (gattErr == CYBLE_GATT_ERR_NONE))
 364:Generated_Source\PSoC4/CYBLE_eventHandler.c ****     {
 365:Generated_Source\PSoC4/CYBLE_eventHandler.c ****         gattErr = CyBle_HtssWriteEventHandler(eventParam);
 366:Generated_Source\PSoC4/CYBLE_eventHandler.c ****     }
 367:Generated_Source\PSoC4/CYBLE_eventHandler.c **** #endif /* CYBLE_HTS_SERVER */
 368:Generated_Source\PSoC4/CYBLE_eventHandler.c **** #ifdef CYBLE_IPS_SERVER
 369:Generated_Source\PSoC4/CYBLE_eventHandler.c ****     if(((cyBle_eventHandlerFlag & CYBLE_CALLBACK) != 0u) && (gattErr == CYBLE_GATT_ERR_NONE))
 370:Generated_Source\PSoC4/CYBLE_eventHandler.c ****     {
 371:Generated_Source\PSoC4/CYBLE_eventHandler.c ****         gattErr = CyBle_IpssWriteEventHandler(eventParam);
 372:Generated_Source\PSoC4/CYBLE_eventHandler.c ****     }
 373:Generated_Source\PSoC4/CYBLE_eventHandler.c **** #endif /* CYBLE_IPS_SERVER */
 374:Generated_Source\PSoC4/CYBLE_eventHandler.c **** #ifdef CYBLE_LLS_SERVER
 375:Generated_Source\PSoC4/CYBLE_eventHandler.c ****     if(((cyBle_eventHandlerFlag & CYBLE_CALLBACK) != 0u) && (gattErr == CYBLE_GATT_ERR_NONE))
  76              		.loc 1 375 0
  77 0018 294B     		ldr	r3, .L7
  78 001a 1B78     		ldrb	r3, [r3]
  79 001c DBB2     		uxtb	r3, r3
  80 001e 1A00     		movs	r2, r3
  81 0020 0123     		movs	r3, #1
ARM GAS  C:\Users\LIAMSA~1\AppData\Local\Temp\cc7Yswwd.s 			page 9


  82 0022 1340     		ands	r3, r2
  83 0024 0CD0     		beq	.L2
  84              		.loc 1 375 0 is_stmt 0 discriminator 1
  85 0026 0F23     		movs	r3, #15
  86 0028 FB18     		adds	r3, r7, r3
  87 002a 1B78     		ldrb	r3, [r3]
  88 002c 002B     		cmp	r3, #0
  89 002e 07D1     		bne	.L2
 376:Generated_Source\PSoC4/CYBLE_eventHandler.c ****     {
 377:Generated_Source\PSoC4/CYBLE_eventHandler.c ****         gattErr = CyBle_LlssWriteEventHandler(eventParam);
  90              		.loc 1 377 0 is_stmt 1
  91 0030 0F23     		movs	r3, #15
  92 0032 FC18     		adds	r4, r7, r3
  93 0034 7B68     		ldr	r3, [r7, #4]
  94 0036 1800     		movs	r0, r3
  95 0038 FFF7FEFF 		bl	CyBle_LlssWriteEventHandler
  96 003c 0300     		movs	r3, r0
  97 003e 2370     		strb	r3, [r4]
  98              	.L2:
 378:Generated_Source\PSoC4/CYBLE_eventHandler.c ****     }
 379:Generated_Source\PSoC4/CYBLE_eventHandler.c **** #endif /* CYBLE_LLS_SERVER */
 380:Generated_Source\PSoC4/CYBLE_eventHandler.c **** #ifdef CYBLE_LNS_SERVER
 381:Generated_Source\PSoC4/CYBLE_eventHandler.c ****     if(((cyBle_eventHandlerFlag & CYBLE_CALLBACK) != 0u) && (gattErr == CYBLE_GATT_ERR_NONE))
 382:Generated_Source\PSoC4/CYBLE_eventHandler.c ****     {
 383:Generated_Source\PSoC4/CYBLE_eventHandler.c ****         gattErr = CyBle_LnssWriteEventHandler(eventParam);
 384:Generated_Source\PSoC4/CYBLE_eventHandler.c ****     }
 385:Generated_Source\PSoC4/CYBLE_eventHandler.c **** #endif /* CYBLE_LNS_SERVER */
 386:Generated_Source\PSoC4/CYBLE_eventHandler.c **** #ifdef CYBLE_OTS_SERVER
 387:Generated_Source\PSoC4/CYBLE_eventHandler.c ****     if(((cyBle_eventHandlerFlag & CYBLE_CALLBACK) != 0u) && (gattErr == CYBLE_GATT_ERR_NONE))
 388:Generated_Source\PSoC4/CYBLE_eventHandler.c ****     {
 389:Generated_Source\PSoC4/CYBLE_eventHandler.c ****         gattErr = CyBle_OtssWriteEventHandler(eventParam);
 390:Generated_Source\PSoC4/CYBLE_eventHandler.c ****     }
 391:Generated_Source\PSoC4/CYBLE_eventHandler.c **** #endif /* CYBLE_OTS_SERVER */
 392:Generated_Source\PSoC4/CYBLE_eventHandler.c **** #ifdef CYBLE_PASS_SERVER
 393:Generated_Source\PSoC4/CYBLE_eventHandler.c ****     if(((cyBle_eventHandlerFlag & CYBLE_CALLBACK) != 0u) && (gattErr == CYBLE_GATT_ERR_NONE))
 394:Generated_Source\PSoC4/CYBLE_eventHandler.c ****     {
 395:Generated_Source\PSoC4/CYBLE_eventHandler.c ****         gattErr = CyBle_PasssWriteEventHandler(eventParam);
 396:Generated_Source\PSoC4/CYBLE_eventHandler.c ****     }
 397:Generated_Source\PSoC4/CYBLE_eventHandler.c **** #endif /* CYBLE_PASS_SERVER */
 398:Generated_Source\PSoC4/CYBLE_eventHandler.c **** #ifdef CYBLE_PLXS_SERVER
 399:Generated_Source\PSoC4/CYBLE_eventHandler.c ****     if(((cyBle_eventHandlerFlag & CYBLE_CALLBACK) != 0u) && (gattErr == CYBLE_GATT_ERR_NONE))
 400:Generated_Source\PSoC4/CYBLE_eventHandler.c ****     {
 401:Generated_Source\PSoC4/CYBLE_eventHandler.c ****         gattErr = CyBle_PlxssWriteEventHandler(eventParam);
 402:Generated_Source\PSoC4/CYBLE_eventHandler.c ****     }
 403:Generated_Source\PSoC4/CYBLE_eventHandler.c **** #endif /* CYBLE_PLXS_SERVER */    
 404:Generated_Source\PSoC4/CYBLE_eventHandler.c **** #ifdef CYBLE_RSCS_SERVER
 405:Generated_Source\PSoC4/CYBLE_eventHandler.c ****     if(((cyBle_eventHandlerFlag & CYBLE_CALLBACK) != 0u) && (gattErr == CYBLE_GATT_ERR_NONE))
 406:Generated_Source\PSoC4/CYBLE_eventHandler.c ****     {
 407:Generated_Source\PSoC4/CYBLE_eventHandler.c ****         gattErr = CyBle_RscssWriteEventHandler(eventParam);
 408:Generated_Source\PSoC4/CYBLE_eventHandler.c ****     }
 409:Generated_Source\PSoC4/CYBLE_eventHandler.c **** #endif /* CYBLE_RSCS_SERVER */
 410:Generated_Source\PSoC4/CYBLE_eventHandler.c **** #ifdef CYBLE_SCPS_SERVER
 411:Generated_Source\PSoC4/CYBLE_eventHandler.c ****     if(((cyBle_eventHandlerFlag & CYBLE_CALLBACK) != 0u) && (gattErr == CYBLE_GATT_ERR_NONE))
 412:Generated_Source\PSoC4/CYBLE_eventHandler.c ****     {
 413:Generated_Source\PSoC4/CYBLE_eventHandler.c ****         gattErr = CyBle_ScpssWriteEventHandler(eventParam);
 414:Generated_Source\PSoC4/CYBLE_eventHandler.c ****     }
 415:Generated_Source\PSoC4/CYBLE_eventHandler.c **** #endif /* CYBLE_SCPS_SERVER */
ARM GAS  C:\Users\LIAMSA~1\AppData\Local\Temp\cc7Yswwd.s 			page 10


 416:Generated_Source\PSoC4/CYBLE_eventHandler.c **** #ifdef CYBLE_TPS_SERVER
 417:Generated_Source\PSoC4/CYBLE_eventHandler.c ****     if(((cyBle_eventHandlerFlag & CYBLE_CALLBACK) != 0u) && (gattErr == CYBLE_GATT_ERR_NONE))
  99              		.loc 1 417 0
 100 0040 1F4B     		ldr	r3, .L7
 101 0042 1B78     		ldrb	r3, [r3]
 102 0044 DBB2     		uxtb	r3, r3
 103 0046 1A00     		movs	r2, r3
 104 0048 0123     		movs	r3, #1
 105 004a 1340     		ands	r3, r2
 106 004c 0CD0     		beq	.L3
 107              		.loc 1 417 0 is_stmt 0 discriminator 1
 108 004e 0F23     		movs	r3, #15
 109 0050 FB18     		adds	r3, r7, r3
 110 0052 1B78     		ldrb	r3, [r3]
 111 0054 002B     		cmp	r3, #0
 112 0056 07D1     		bne	.L3
 418:Generated_Source\PSoC4/CYBLE_eventHandler.c ****     {
 419:Generated_Source\PSoC4/CYBLE_eventHandler.c ****         gattErr = CyBle_TpssWriteEventHandler(eventParam);
 113              		.loc 1 419 0 is_stmt 1
 114 0058 0F23     		movs	r3, #15
 115 005a FC18     		adds	r4, r7, r3
 116 005c 7B68     		ldr	r3, [r7, #4]
 117 005e 1800     		movs	r0, r3
 118 0060 FFF7FEFF 		bl	CyBle_TpssWriteEventHandler
 119 0064 0300     		movs	r3, r0
 120 0066 2370     		strb	r3, [r4]
 121              	.L3:
 420:Generated_Source\PSoC4/CYBLE_eventHandler.c ****     }
 421:Generated_Source\PSoC4/CYBLE_eventHandler.c **** #endif /* CYBLE_TPS_SERVER */
 422:Generated_Source\PSoC4/CYBLE_eventHandler.c **** #ifdef CYBLE_UDS_SERVER
 423:Generated_Source\PSoC4/CYBLE_eventHandler.c ****     if(((cyBle_eventHandlerFlag & CYBLE_CALLBACK) != 0u) && (gattErr == CYBLE_GATT_ERR_NONE))
 424:Generated_Source\PSoC4/CYBLE_eventHandler.c ****     {
 425:Generated_Source\PSoC4/CYBLE_eventHandler.c ****         gattErr = CyBle_UdssWriteEventHandler(eventParam);
 426:Generated_Source\PSoC4/CYBLE_eventHandler.c ****     }
 427:Generated_Source\PSoC4/CYBLE_eventHandler.c **** #endif /* CYBLE_UDS_SERVER */
 428:Generated_Source\PSoC4/CYBLE_eventHandler.c **** #ifdef CYBLE_WPTS_SERVER
 429:Generated_Source\PSoC4/CYBLE_eventHandler.c ****     if(((cyBle_eventHandlerFlag & CYBLE_CALLBACK) != 0u) && (gattErr == CYBLE_GATT_ERR_NONE))
 430:Generated_Source\PSoC4/CYBLE_eventHandler.c ****     {
 431:Generated_Source\PSoC4/CYBLE_eventHandler.c ****         gattErr = CyBle_WptssWriteEventHandler(eventParam);
 432:Generated_Source\PSoC4/CYBLE_eventHandler.c ****     }
 433:Generated_Source\PSoC4/CYBLE_eventHandler.c **** #endif /* CYBLE_WPTS_SERVER */
 434:Generated_Source\PSoC4/CYBLE_eventHandler.c **** #ifdef CYBLE_WSS_SERVER
 435:Generated_Source\PSoC4/CYBLE_eventHandler.c ****     if(((cyBle_eventHandlerFlag & CYBLE_CALLBACK) != 0u) && (gattErr == CYBLE_GATT_ERR_NONE))
 436:Generated_Source\PSoC4/CYBLE_eventHandler.c ****     {
 437:Generated_Source\PSoC4/CYBLE_eventHandler.c ****         gattErr = CyBle_WsssWriteEventHandler(eventParam);
 438:Generated_Source\PSoC4/CYBLE_eventHandler.c ****     }
 439:Generated_Source\PSoC4/CYBLE_eventHandler.c **** #endif /* CYBLE_WSS_SERVER */
 440:Generated_Source\PSoC4/CYBLE_eventHandler.c **** 
 441:Generated_Source\PSoC4/CYBLE_eventHandler.c ****     /* Send response when event was handled by service */
 442:Generated_Source\PSoC4/CYBLE_eventHandler.c ****     if((cyBle_eventHandlerFlag & CYBLE_CALLBACK) == 0u)
 122              		.loc 1 442 0
 123 0068 154B     		ldr	r3, .L7
 124 006a 1B78     		ldrb	r3, [r3]
 125 006c DBB2     		uxtb	r3, r3
 126 006e 1A00     		movs	r2, r3
 127 0070 0123     		movs	r3, #1
 128 0072 1340     		ands	r3, r2
ARM GAS  C:\Users\LIAMSA~1\AppData\Local\Temp\cc7Yswwd.s 			page 11


 129 0074 1FD1     		bne	.L6
 443:Generated_Source\PSoC4/CYBLE_eventHandler.c ****     {
 444:Generated_Source\PSoC4/CYBLE_eventHandler.c ****         if(gattErr != CYBLE_GATT_ERR_NONE)
 130              		.loc 1 444 0
 131 0076 0F23     		movs	r3, #15
 132 0078 FB18     		adds	r3, r7, r3
 133 007a 1B78     		ldrb	r3, [r3]
 134 007c 002B     		cmp	r3, #0
 135 007e 16D0     		beq	.L5
 136              	.LBB2:
 445:Generated_Source\PSoC4/CYBLE_eventHandler.c ****         {
 446:Generated_Source\PSoC4/CYBLE_eventHandler.c ****             CYBLE_GATTS_ERR_PARAM_T err_param;
 447:Generated_Source\PSoC4/CYBLE_eventHandler.c ****             
 448:Generated_Source\PSoC4/CYBLE_eventHandler.c ****             err_param.opcode = (uint8) CYBLE_GATT_WRITE_REQ;
 137              		.loc 1 448 0
 138 0080 0823     		movs	r3, #8
 139 0082 FB18     		adds	r3, r7, r3
 140 0084 1222     		movs	r2, #18
 141 0086 9A70     		strb	r2, [r3, #2]
 449:Generated_Source\PSoC4/CYBLE_eventHandler.c ****             err_param.attrHandle = eventParam->handleValPair.attrHandle;
 142              		.loc 1 449 0
 143 0088 7B68     		ldr	r3, [r7, #4]
 144 008a 9A89     		ldrh	r2, [r3, #12]
 145 008c 0823     		movs	r3, #8
 146 008e FB18     		adds	r3, r7, r3
 147 0090 1A80     		strh	r2, [r3]
 450:Generated_Source\PSoC4/CYBLE_eventHandler.c ****             err_param.errorCode = gattErr;
 148              		.loc 1 450 0
 149 0092 0823     		movs	r3, #8
 150 0094 FB18     		adds	r3, r7, r3
 151 0096 0F22     		movs	r2, #15
 152 0098 BA18     		adds	r2, r7, r2
 153 009a 1278     		ldrb	r2, [r2]
 154 009c DA70     		strb	r2, [r3, #3]
 451:Generated_Source\PSoC4/CYBLE_eventHandler.c **** 
 452:Generated_Source\PSoC4/CYBLE_eventHandler.c ****             /* Send Error Response */
 453:Generated_Source\PSoC4/CYBLE_eventHandler.c ****             (void)CyBle_GattsErrorRsp(eventParam->connHandle, &err_param);
 155              		.loc 1 453 0
 156 009e 0823     		movs	r3, #8
 157 00a0 FA18     		adds	r2, r7, r3
 158 00a2 7B68     		ldr	r3, [r7, #4]
 159 00a4 1100     		movs	r1, r2
 160 00a6 1868     		ldr	r0, [r3]
 161 00a8 FFF7FEFF 		bl	CyBle_GattsErrorRsp
 162              	.LBE2:
 454:Generated_Source\PSoC4/CYBLE_eventHandler.c ****         }
 455:Generated_Source\PSoC4/CYBLE_eventHandler.c ****         else
 456:Generated_Source\PSoC4/CYBLE_eventHandler.c ****         {
 457:Generated_Source\PSoC4/CYBLE_eventHandler.c ****             (void)CyBle_GattsWriteRsp(eventParam->connHandle);
 458:Generated_Source\PSoC4/CYBLE_eventHandler.c ****         }
 459:Generated_Source\PSoC4/CYBLE_eventHandler.c ****     }
 460:Generated_Source\PSoC4/CYBLE_eventHandler.c **** }
 163              		.loc 1 460 0
 164 00ac 03E0     		b	.L6
 165              	.L5:
 457:Generated_Source\PSoC4/CYBLE_eventHandler.c ****         }
 166              		.loc 1 457 0
ARM GAS  C:\Users\LIAMSA~1\AppData\Local\Temp\cc7Yswwd.s 			page 12


 167 00ae 7B68     		ldr	r3, [r7, #4]
 168 00b0 1868     		ldr	r0, [r3]
 169 00b2 FFF7FEFF 		bl	CyBle_GattsWriteRsp
 170              	.L6:
 171              		.loc 1 460 0
 172 00b6 C046     		nop
 173 00b8 BD46     		mov	sp, r7
 174 00ba 05B0     		add	sp, sp, #20
 175              		@ sp needed
 176 00bc 90BD     		pop	{r4, r7, pc}
 177              	.L8:
 178 00be C046     		.align	2
 179              	.L7:
 180 00c0 00000000 		.word	cyBle_eventHandlerFlag
 181              		.cfi_endproc
 182              	.LFE2:
 183              		.size	CyBle_WriteReqHandler, .-CyBle_WriteReqHandler
 184              		.section	.text.CyBle_ValueConfirmation,"ax",%progbits
 185              		.align	2
 186              		.code	16
 187              		.thumb_func
 188              		.type	CyBle_ValueConfirmation, %function
 189              	CyBle_ValueConfirmation:
 190              	.LFB3:
 461:Generated_Source\PSoC4/CYBLE_eventHandler.c **** 
 462:Generated_Source\PSoC4/CYBLE_eventHandler.c **** 
 463:Generated_Source\PSoC4/CYBLE_eventHandler.c **** /****************************************************************************** 
 464:Generated_Source\PSoC4/CYBLE_eventHandler.c **** * Function Name: CyBle_ValueConfirmation
 465:Generated_Source\PSoC4/CYBLE_eventHandler.c **** ***************************************************************************//**
 466:Generated_Source\PSoC4/CYBLE_eventHandler.c **** * 
 467:Generated_Source\PSoC4/CYBLE_eventHandler.c **** *  Handles the Value Confirmation request event from the BLE stack.
 468:Generated_Source\PSoC4/CYBLE_eventHandler.c **** * 
 469:Generated_Source\PSoC4/CYBLE_eventHandler.c **** *  \param eventParam: Pointer to a structure of type 'CYBLE_CONN_HANDLE_T'
 470:Generated_Source\PSoC4/CYBLE_eventHandler.c **** * 
 471:Generated_Source\PSoC4/CYBLE_eventHandler.c **** * \return
 472:Generated_Source\PSoC4/CYBLE_eventHandler.c **** *  None
 473:Generated_Source\PSoC4/CYBLE_eventHandler.c **** * 
 474:Generated_Source\PSoC4/CYBLE_eventHandler.c **** ******************************************************************************/
 475:Generated_Source\PSoC4/CYBLE_eventHandler.c **** static void CyBle_ValueConfirmation(const CYBLE_CONN_HANDLE_T *eventParam)
 476:Generated_Source\PSoC4/CYBLE_eventHandler.c **** {
 191              		.loc 1 476 0
 192              		.cfi_startproc
 193              		@ args = 0, pretend = 0, frame = 8
 194              		@ frame_needed = 1, uses_anonymous_args = 0
 195 0000 80B5     		push	{r7, lr}
 196              		.cfi_def_cfa_offset 8
 197              		.cfi_offset 7, -8
 198              		.cfi_offset 14, -4
 199 0002 82B0     		sub	sp, sp, #8
 200              		.cfi_def_cfa_offset 16
 201 0004 00AF     		add	r7, sp, #0
 202              		.cfi_def_cfa_register 7
 203 0006 7860     		str	r0, [r7, #4]
 477:Generated_Source\PSoC4/CYBLE_eventHandler.c ****     if(eventParam != NULL)
 478:Generated_Source\PSoC4/CYBLE_eventHandler.c ****     {
 479:Generated_Source\PSoC4/CYBLE_eventHandler.c ****     #ifdef CYBLE_AIOS_SERVER
 480:Generated_Source\PSoC4/CYBLE_eventHandler.c ****         if((cyBle_eventHandlerFlag & CYBLE_CALLBACK) != 0u)
ARM GAS  C:\Users\LIAMSA~1\AppData\Local\Temp\cc7Yswwd.s 			page 13


 481:Generated_Source\PSoC4/CYBLE_eventHandler.c ****         {
 482:Generated_Source\PSoC4/CYBLE_eventHandler.c ****             CyBle_AiossConfirmationEventHandler(eventParam);
 483:Generated_Source\PSoC4/CYBLE_eventHandler.c ****         }
 484:Generated_Source\PSoC4/CYBLE_eventHandler.c ****     #endif /* CYBLE_AIOS_SERVER */
 485:Generated_Source\PSoC4/CYBLE_eventHandler.c ****     #ifdef CYBLE_BCS_SERVER
 486:Generated_Source\PSoC4/CYBLE_eventHandler.c ****         CyBle_BcssConfirmationEventHandler(eventParam);
 487:Generated_Source\PSoC4/CYBLE_eventHandler.c ****     #endif /* CYBLE_BCS_SERVER */
 488:Generated_Source\PSoC4/CYBLE_eventHandler.c ****     #ifdef CYBLE_BLS_SERVER
 489:Generated_Source\PSoC4/CYBLE_eventHandler.c ****         if((cyBle_eventHandlerFlag & CYBLE_CALLBACK) != 0u)
 490:Generated_Source\PSoC4/CYBLE_eventHandler.c ****         {
 491:Generated_Source\PSoC4/CYBLE_eventHandler.c ****             CyBle_BlssConfirmationEventHandler(eventParam);
 492:Generated_Source\PSoC4/CYBLE_eventHandler.c ****         }
 493:Generated_Source\PSoC4/CYBLE_eventHandler.c ****     #endif /* CYBLE_BLS_SERVER */
 494:Generated_Source\PSoC4/CYBLE_eventHandler.c ****     
 495:Generated_Source\PSoC4/CYBLE_eventHandler.c ****     #ifdef CYBLE_CGMS_SERVER
 496:Generated_Source\PSoC4/CYBLE_eventHandler.c ****         if((cyBle_eventHandlerFlag & CYBLE_CALLBACK) != 0u)
 497:Generated_Source\PSoC4/CYBLE_eventHandler.c ****         {
 498:Generated_Source\PSoC4/CYBLE_eventHandler.c ****             CyBle_CgmssConfirmationEventHandler(eventParam);
 499:Generated_Source\PSoC4/CYBLE_eventHandler.c ****         }
 500:Generated_Source\PSoC4/CYBLE_eventHandler.c ****     #endif /* CYBLE_CGMS_SERVER */
 501:Generated_Source\PSoC4/CYBLE_eventHandler.c ****     
 502:Generated_Source\PSoC4/CYBLE_eventHandler.c ****     #ifdef CYBLE_CPS_SERVER
 503:Generated_Source\PSoC4/CYBLE_eventHandler.c ****         if((cyBle_eventHandlerFlag & CYBLE_CALLBACK) != 0u)
 504:Generated_Source\PSoC4/CYBLE_eventHandler.c ****         {
 505:Generated_Source\PSoC4/CYBLE_eventHandler.c ****             CyBle_CpssConfirmationEventHandler(eventParam);
 506:Generated_Source\PSoC4/CYBLE_eventHandler.c ****         }
 507:Generated_Source\PSoC4/CYBLE_eventHandler.c ****     #endif /* CYBLE_CPS_SERVER */
 508:Generated_Source\PSoC4/CYBLE_eventHandler.c ****     
 509:Generated_Source\PSoC4/CYBLE_eventHandler.c ****     #ifdef CYBLE_CSCS_SERVER
 510:Generated_Source\PSoC4/CYBLE_eventHandler.c ****         if((cyBle_eventHandlerFlag & CYBLE_CALLBACK) != 0u)
 511:Generated_Source\PSoC4/CYBLE_eventHandler.c ****         {
 512:Generated_Source\PSoC4/CYBLE_eventHandler.c ****             CyBle_CscssConfirmationEventHandler(eventParam);
 513:Generated_Source\PSoC4/CYBLE_eventHandler.c ****         }
 514:Generated_Source\PSoC4/CYBLE_eventHandler.c ****     #endif /* CYBLE_CSCS_SERVER */
 515:Generated_Source\PSoC4/CYBLE_eventHandler.c ****     
 516:Generated_Source\PSoC4/CYBLE_eventHandler.c ****     #ifdef CYBLE_ESS_SERVER
 517:Generated_Source\PSoC4/CYBLE_eventHandler.c ****         if((cyBle_eventHandlerFlag & CYBLE_CALLBACK) != 0u)
 518:Generated_Source\PSoC4/CYBLE_eventHandler.c ****         {
 519:Generated_Source\PSoC4/CYBLE_eventHandler.c ****             CyBle_EsssConfirmationEventHandler(eventParam);
 520:Generated_Source\PSoC4/CYBLE_eventHandler.c ****         }
 521:Generated_Source\PSoC4/CYBLE_eventHandler.c ****     #endif /* CYBLE_ESS_SERVER */
 522:Generated_Source\PSoC4/CYBLE_eventHandler.c ****     
 523:Generated_Source\PSoC4/CYBLE_eventHandler.c ****     #ifdef CYBLE_GLS_SERVER
 524:Generated_Source\PSoC4/CYBLE_eventHandler.c ****         if((cyBle_eventHandlerFlag & CYBLE_CALLBACK) != 0u)
 525:Generated_Source\PSoC4/CYBLE_eventHandler.c ****         {
 526:Generated_Source\PSoC4/CYBLE_eventHandler.c ****             CyBle_GlssConfirmationEventHandler(eventParam);
 527:Generated_Source\PSoC4/CYBLE_eventHandler.c ****         }
 528:Generated_Source\PSoC4/CYBLE_eventHandler.c ****     #endif /* CYBLE_GLS_SERVER */
 529:Generated_Source\PSoC4/CYBLE_eventHandler.c ****     
 530:Generated_Source\PSoC4/CYBLE_eventHandler.c ****     #ifdef CYBLE_HTS_SERVER
 531:Generated_Source\PSoC4/CYBLE_eventHandler.c ****         if((cyBle_eventHandlerFlag & CYBLE_CALLBACK) != 0u)
 532:Generated_Source\PSoC4/CYBLE_eventHandler.c ****         {
 533:Generated_Source\PSoC4/CYBLE_eventHandler.c ****             CyBle_HtssConfirmationEventHandler(eventParam);
 534:Generated_Source\PSoC4/CYBLE_eventHandler.c ****         }
 535:Generated_Source\PSoC4/CYBLE_eventHandler.c ****     #endif /* CYBLE_HTS_SERVER */
 536:Generated_Source\PSoC4/CYBLE_eventHandler.c **** 
 537:Generated_Source\PSoC4/CYBLE_eventHandler.c ****     #ifdef CYBLE_LNS_SERVER
ARM GAS  C:\Users\LIAMSA~1\AppData\Local\Temp\cc7Yswwd.s 			page 14


 538:Generated_Source\PSoC4/CYBLE_eventHandler.c ****         if((cyBle_eventHandlerFlag & CYBLE_CALLBACK) != 0u)
 539:Generated_Source\PSoC4/CYBLE_eventHandler.c ****         {
 540:Generated_Source\PSoC4/CYBLE_eventHandler.c ****             CyBle_LnssConfirmationEventHandler(eventParam);
 541:Generated_Source\PSoC4/CYBLE_eventHandler.c ****         }
 542:Generated_Source\PSoC4/CYBLE_eventHandler.c ****     #endif /* CYBLE_LNS_SERVER */
 543:Generated_Source\PSoC4/CYBLE_eventHandler.c ****     
 544:Generated_Source\PSoC4/CYBLE_eventHandler.c ****     #ifdef CYBLE_OTS_SERVER
 545:Generated_Source\PSoC4/CYBLE_eventHandler.c ****         if((cyBle_eventHandlerFlag & CYBLE_CALLBACK) != 0u)
 546:Generated_Source\PSoC4/CYBLE_eventHandler.c ****         {
 547:Generated_Source\PSoC4/CYBLE_eventHandler.c ****             CyBle_OtssConfirmationEventHandler(eventParam);
 548:Generated_Source\PSoC4/CYBLE_eventHandler.c ****         }
 549:Generated_Source\PSoC4/CYBLE_eventHandler.c ****     #endif /* CYBLE_OTS_SERVER */
 550:Generated_Source\PSoC4/CYBLE_eventHandler.c ****     
 551:Generated_Source\PSoC4/CYBLE_eventHandler.c ****     #ifdef CYBLE_PLXS_SERVER
 552:Generated_Source\PSoC4/CYBLE_eventHandler.c ****         if((cyBle_eventHandlerFlag & CYBLE_CALLBACK) != 0u)
 553:Generated_Source\PSoC4/CYBLE_eventHandler.c ****         {
 554:Generated_Source\PSoC4/CYBLE_eventHandler.c ****             CyBle_PlxssConfirmationEventHandler((CYBLE_CONN_HANDLE_T *)eventParam);
 555:Generated_Source\PSoC4/CYBLE_eventHandler.c ****         }
 556:Generated_Source\PSoC4/CYBLE_eventHandler.c ****     #endif /* CYBLE_PLXS_SERVER */
 557:Generated_Source\PSoC4/CYBLE_eventHandler.c ****     
 558:Generated_Source\PSoC4/CYBLE_eventHandler.c ****     #ifdef CYBLE_RSCS_SERVER
 559:Generated_Source\PSoC4/CYBLE_eventHandler.c ****         if((cyBle_eventHandlerFlag & CYBLE_CALLBACK) != 0u)
 560:Generated_Source\PSoC4/CYBLE_eventHandler.c ****         {
 561:Generated_Source\PSoC4/CYBLE_eventHandler.c ****             CyBle_RscssConfirmationEventHandler(eventParam);
 562:Generated_Source\PSoC4/CYBLE_eventHandler.c ****         }
 563:Generated_Source\PSoC4/CYBLE_eventHandler.c ****     #endif /* CYBLE_RSCS_SERVER */
 564:Generated_Source\PSoC4/CYBLE_eventHandler.c ****     
 565:Generated_Source\PSoC4/CYBLE_eventHandler.c ****     #ifdef CYBLE_UDS_SERVER
 566:Generated_Source\PSoC4/CYBLE_eventHandler.c ****         if((cyBle_eventHandlerFlag & CYBLE_CALLBACK) != 0u)
 567:Generated_Source\PSoC4/CYBLE_eventHandler.c ****         {
 568:Generated_Source\PSoC4/CYBLE_eventHandler.c ****             CyBle_UdssConfirmationEventHandler(eventParam);
 569:Generated_Source\PSoC4/CYBLE_eventHandler.c ****         }
 570:Generated_Source\PSoC4/CYBLE_eventHandler.c ****     #endif /* CYBLE_UDS_SERVER */
 571:Generated_Source\PSoC4/CYBLE_eventHandler.c ****     
 572:Generated_Source\PSoC4/CYBLE_eventHandler.c ****     #ifdef CYBLE_WPTS_SERVER
 573:Generated_Source\PSoC4/CYBLE_eventHandler.c ****         if((cyBle_eventHandlerFlag & CYBLE_CALLBACK) != 0u)
 574:Generated_Source\PSoC4/CYBLE_eventHandler.c ****         {
 575:Generated_Source\PSoC4/CYBLE_eventHandler.c ****             CyBle_WptssConfirmationEventHandler(eventParam);
 576:Generated_Source\PSoC4/CYBLE_eventHandler.c ****         }
 577:Generated_Source\PSoC4/CYBLE_eventHandler.c ****     #endif /* CYBLE_WPTS_SERVER */
 578:Generated_Source\PSoC4/CYBLE_eventHandler.c ****     
 579:Generated_Source\PSoC4/CYBLE_eventHandler.c ****     #ifdef CYBLE_WSS_SERVER
 580:Generated_Source\PSoC4/CYBLE_eventHandler.c ****         if((cyBle_eventHandlerFlag & CYBLE_CALLBACK) != 0u)
 581:Generated_Source\PSoC4/CYBLE_eventHandler.c ****         {
 582:Generated_Source\PSoC4/CYBLE_eventHandler.c ****             CyBle_WsssConfirmationEventHandler(eventParam);
 583:Generated_Source\PSoC4/CYBLE_eventHandler.c ****         }
 584:Generated_Source\PSoC4/CYBLE_eventHandler.c ****     #endif /* CYBLE_WSS_SERVER */
 585:Generated_Source\PSoC4/CYBLE_eventHandler.c ****     }
 586:Generated_Source\PSoC4/CYBLE_eventHandler.c **** }
 204              		.loc 1 586 0
 205 0008 C046     		nop
 206 000a BD46     		mov	sp, r7
 207 000c 02B0     		add	sp, sp, #8
 208              		@ sp needed
 209 000e 80BD     		pop	{r7, pc}
 210              		.cfi_endproc
 211              	.LFE3:
ARM GAS  C:\Users\LIAMSA~1\AppData\Local\Temp\cc7Yswwd.s 			page 15


 212              		.size	CyBle_ValueConfirmation, .-CyBle_ValueConfirmation
 213              		.section	.text.CyBle_GattDisconnectEventHandler,"ax",%progbits
 214              		.align	2
 215              		.code	16
 216              		.thumb_func
 217              		.type	CyBle_GattDisconnectEventHandler, %function
 218              	CyBle_GattDisconnectEventHandler:
 219              	.LFB4:
 587:Generated_Source\PSoC4/CYBLE_eventHandler.c **** 
 588:Generated_Source\PSoC4/CYBLE_eventHandler.c **** #endif /* CYBLE_GATT_ROLE_SERVER */
 589:Generated_Source\PSoC4/CYBLE_eventHandler.c **** 
 590:Generated_Source\PSoC4/CYBLE_eventHandler.c **** 
 591:Generated_Source\PSoC4/CYBLE_eventHandler.c **** #if (CYBLE_GATT_ROLE_CLIENT)
 592:Generated_Source\PSoC4/CYBLE_eventHandler.c **** 
 593:Generated_Source\PSoC4/CYBLE_eventHandler.c **** /****************************************************************************** 
 594:Generated_Source\PSoC4/CYBLE_eventHandler.c **** * Function Name: CyBle_GattcWriteResponseEventHandler
 595:Generated_Source\PSoC4/CYBLE_eventHandler.c **** ***************************************************************************//**
 596:Generated_Source\PSoC4/CYBLE_eventHandler.c **** * 
 597:Generated_Source\PSoC4/CYBLE_eventHandler.c **** *  Handles the Write response event from the BLE stack.
 598:Generated_Source\PSoC4/CYBLE_eventHandler.c **** * 
 599:Generated_Source\PSoC4/CYBLE_eventHandler.c **** *  \param eventParam: Pointer to a structure of type 'CYBLE_CONN_HANDLE_T'
 600:Generated_Source\PSoC4/CYBLE_eventHandler.c **** * 
 601:Generated_Source\PSoC4/CYBLE_eventHandler.c **** * \return
 602:Generated_Source\PSoC4/CYBLE_eventHandler.c **** *  None
 603:Generated_Source\PSoC4/CYBLE_eventHandler.c **** * 
 604:Generated_Source\PSoC4/CYBLE_eventHandler.c **** ******************************************************************************/
 605:Generated_Source\PSoC4/CYBLE_eventHandler.c **** static void CyBle_GattcWriteResponseEventHandler(const CYBLE_CONN_HANDLE_T *eventParam)
 606:Generated_Source\PSoC4/CYBLE_eventHandler.c **** {
 607:Generated_Source\PSoC4/CYBLE_eventHandler.c **** 
 608:Generated_Source\PSoC4/CYBLE_eventHandler.c **** #ifdef CYBLE_AIOS_CLIENT
 609:Generated_Source\PSoC4/CYBLE_eventHandler.c ****     if((cyBle_eventHandlerFlag & CYBLE_CALLBACK) != 0u)
 610:Generated_Source\PSoC4/CYBLE_eventHandler.c ****     {
 611:Generated_Source\PSoC4/CYBLE_eventHandler.c ****         CyBle_AioscWriteResponseEventHandler(eventParam);
 612:Generated_Source\PSoC4/CYBLE_eventHandler.c ****     }
 613:Generated_Source\PSoC4/CYBLE_eventHandler.c **** #endif /* CYBLE_AIOS_CLIENT */
 614:Generated_Source\PSoC4/CYBLE_eventHandler.c **** 
 615:Generated_Source\PSoC4/CYBLE_eventHandler.c **** #ifdef CYBLE_ANCS_CLIENT
 616:Generated_Source\PSoC4/CYBLE_eventHandler.c ****     CyBle_AncscWriteResponseEventHandler(eventParam);
 617:Generated_Source\PSoC4/CYBLE_eventHandler.c **** #endif /* CYBLE_ANCS_CLIENT */
 618:Generated_Source\PSoC4/CYBLE_eventHandler.c **** 
 619:Generated_Source\PSoC4/CYBLE_eventHandler.c **** #ifdef CYBLE_ANS_CLIENT
 620:Generated_Source\PSoC4/CYBLE_eventHandler.c ****     if((cyBle_eventHandlerFlag & CYBLE_CALLBACK) != 0u)
 621:Generated_Source\PSoC4/CYBLE_eventHandler.c ****     {
 622:Generated_Source\PSoC4/CYBLE_eventHandler.c ****         CyBle_AnscWriteResponseEventHandler(eventParam);
 623:Generated_Source\PSoC4/CYBLE_eventHandler.c ****     }
 624:Generated_Source\PSoC4/CYBLE_eventHandler.c **** #endif /* CYBLE_ANS_CLIENT */
 625:Generated_Source\PSoC4/CYBLE_eventHandler.c **** 
 626:Generated_Source\PSoC4/CYBLE_eventHandler.c **** #ifdef CYBLE_BAS_CLIENT
 627:Generated_Source\PSoC4/CYBLE_eventHandler.c ****     if((cyBle_eventHandlerFlag & CYBLE_CALLBACK) != 0u)
 628:Generated_Source\PSoC4/CYBLE_eventHandler.c ****     {
 629:Generated_Source\PSoC4/CYBLE_eventHandler.c ****         CyBle_BascWriteResponseEventHandler(eventParam);
 630:Generated_Source\PSoC4/CYBLE_eventHandler.c ****     }
 631:Generated_Source\PSoC4/CYBLE_eventHandler.c **** #endif /* CYBLE_BAS_CLIENT */
 632:Generated_Source\PSoC4/CYBLE_eventHandler.c **** 
 633:Generated_Source\PSoC4/CYBLE_eventHandler.c **** #ifdef CYBLE_BCS_CLIENT
 634:Generated_Source\PSoC4/CYBLE_eventHandler.c ****     if((cyBle_eventHandlerFlag & CYBLE_CALLBACK) != 0u)
 635:Generated_Source\PSoC4/CYBLE_eventHandler.c ****     {
ARM GAS  C:\Users\LIAMSA~1\AppData\Local\Temp\cc7Yswwd.s 			page 16


 636:Generated_Source\PSoC4/CYBLE_eventHandler.c ****         CyBle_BcscWriteResponseEventHandler(eventParam);
 637:Generated_Source\PSoC4/CYBLE_eventHandler.c ****     }
 638:Generated_Source\PSoC4/CYBLE_eventHandler.c **** #endif /* CYBLE_BCS_CLIENT */
 639:Generated_Source\PSoC4/CYBLE_eventHandler.c **** 
 640:Generated_Source\PSoC4/CYBLE_eventHandler.c **** #ifdef CYBLE_BLS_CLIENT
 641:Generated_Source\PSoC4/CYBLE_eventHandler.c ****     if((cyBle_eventHandlerFlag & CYBLE_CALLBACK) != 0u)
 642:Generated_Source\PSoC4/CYBLE_eventHandler.c ****     {
 643:Generated_Source\PSoC4/CYBLE_eventHandler.c ****         CyBle_BlscWriteResponseEventHandler(eventParam);
 644:Generated_Source\PSoC4/CYBLE_eventHandler.c ****     }
 645:Generated_Source\PSoC4/CYBLE_eventHandler.c **** #endif /* CYBLE_BLS_CLIENT */
 646:Generated_Source\PSoC4/CYBLE_eventHandler.c **** 
 647:Generated_Source\PSoC4/CYBLE_eventHandler.c **** #ifdef CYBLE_BMS_CLIENT
 648:Generated_Source\PSoC4/CYBLE_eventHandler.c ****     if((cyBle_eventHandlerFlag & CYBLE_CALLBACK) != 0u)
 649:Generated_Source\PSoC4/CYBLE_eventHandler.c ****     {
 650:Generated_Source\PSoC4/CYBLE_eventHandler.c ****         CyBle_BmscWriteResponseEventHandler(eventParam);
 651:Generated_Source\PSoC4/CYBLE_eventHandler.c ****     }
 652:Generated_Source\PSoC4/CYBLE_eventHandler.c **** #endif /* CYBLE_BMS_CLIENT */
 653:Generated_Source\PSoC4/CYBLE_eventHandler.c **** 
 654:Generated_Source\PSoC4/CYBLE_eventHandler.c **** #ifdef CYBLE_CGMS_CLIENT
 655:Generated_Source\PSoC4/CYBLE_eventHandler.c ****     if((cyBle_eventHandlerFlag & CYBLE_CALLBACK) != 0u)
 656:Generated_Source\PSoC4/CYBLE_eventHandler.c ****     {
 657:Generated_Source\PSoC4/CYBLE_eventHandler.c ****         CyBle_CgmscWriteResponseEventHandler(eventParam);
 658:Generated_Source\PSoC4/CYBLE_eventHandler.c ****     }
 659:Generated_Source\PSoC4/CYBLE_eventHandler.c **** #endif /* CYBLE_CGMS_CLIENT */
 660:Generated_Source\PSoC4/CYBLE_eventHandler.c **** 
 661:Generated_Source\PSoC4/CYBLE_eventHandler.c **** #ifdef CYBLE_CPS_CLIENT
 662:Generated_Source\PSoC4/CYBLE_eventHandler.c ****     if((cyBle_eventHandlerFlag & CYBLE_CALLBACK) != 0u)
 663:Generated_Source\PSoC4/CYBLE_eventHandler.c ****     {
 664:Generated_Source\PSoC4/CYBLE_eventHandler.c ****         CyBle_CpscWriteResponseEventHandler(eventParam);
 665:Generated_Source\PSoC4/CYBLE_eventHandler.c ****     }
 666:Generated_Source\PSoC4/CYBLE_eventHandler.c **** #endif /* CYBLE_CPS_CLIENT */
 667:Generated_Source\PSoC4/CYBLE_eventHandler.c **** 
 668:Generated_Source\PSoC4/CYBLE_eventHandler.c **** #ifdef CYBLE_CSCS_CLIENT
 669:Generated_Source\PSoC4/CYBLE_eventHandler.c ****     if((cyBle_eventHandlerFlag & CYBLE_CALLBACK) != 0u)
 670:Generated_Source\PSoC4/CYBLE_eventHandler.c ****     {
 671:Generated_Source\PSoC4/CYBLE_eventHandler.c ****         CyBle_CscscWriteResponseEventHandler(eventParam);
 672:Generated_Source\PSoC4/CYBLE_eventHandler.c ****     }
 673:Generated_Source\PSoC4/CYBLE_eventHandler.c **** #endif /* CYBLE_CSCS_CLIENT */
 674:Generated_Source\PSoC4/CYBLE_eventHandler.c **** 
 675:Generated_Source\PSoC4/CYBLE_eventHandler.c **** #ifdef CYBLE_CTS_CLIENT
 676:Generated_Source\PSoC4/CYBLE_eventHandler.c ****     if((cyBle_eventHandlerFlag & CYBLE_CALLBACK) != 0u)
 677:Generated_Source\PSoC4/CYBLE_eventHandler.c ****     {
 678:Generated_Source\PSoC4/CYBLE_eventHandler.c ****         CyBle_CtscWriteResponseEventHandler(eventParam);
 679:Generated_Source\PSoC4/CYBLE_eventHandler.c ****     }
 680:Generated_Source\PSoC4/CYBLE_eventHandler.c **** #endif /* CYBLE_CTS_CLIENT */
 681:Generated_Source\PSoC4/CYBLE_eventHandler.c **** 
 682:Generated_Source\PSoC4/CYBLE_eventHandler.c **** #ifdef CYBLE_ESS_CLIENT
 683:Generated_Source\PSoC4/CYBLE_eventHandler.c ****     if((cyBle_eventHandlerFlag & CYBLE_CALLBACK) != 0u)
 684:Generated_Source\PSoC4/CYBLE_eventHandler.c ****     {
 685:Generated_Source\PSoC4/CYBLE_eventHandler.c ****         CyBle_EsscWriteResponseEventHandler(eventParam);
 686:Generated_Source\PSoC4/CYBLE_eventHandler.c ****     }
 687:Generated_Source\PSoC4/CYBLE_eventHandler.c **** #endif /* CYBLE_ESS_CLIENT */
 688:Generated_Source\PSoC4/CYBLE_eventHandler.c **** 
 689:Generated_Source\PSoC4/CYBLE_eventHandler.c **** #ifdef CYBLE_GLS_CLIENT
 690:Generated_Source\PSoC4/CYBLE_eventHandler.c ****     if((cyBle_eventHandlerFlag & CYBLE_CALLBACK) != 0u)
 691:Generated_Source\PSoC4/CYBLE_eventHandler.c ****     {
 692:Generated_Source\PSoC4/CYBLE_eventHandler.c ****         CyBle_GlscWriteResponseEventHandler(eventParam);
ARM GAS  C:\Users\LIAMSA~1\AppData\Local\Temp\cc7Yswwd.s 			page 17


 693:Generated_Source\PSoC4/CYBLE_eventHandler.c ****     }
 694:Generated_Source\PSoC4/CYBLE_eventHandler.c **** #endif /* CYBLE_GLS_CLIENT */
 695:Generated_Source\PSoC4/CYBLE_eventHandler.c **** 
 696:Generated_Source\PSoC4/CYBLE_eventHandler.c **** #ifdef CYBLE_HIDS_CLIENT
 697:Generated_Source\PSoC4/CYBLE_eventHandler.c ****     if((cyBle_eventHandlerFlag & CYBLE_CALLBACK) != 0u)
 698:Generated_Source\PSoC4/CYBLE_eventHandler.c ****     {
 699:Generated_Source\PSoC4/CYBLE_eventHandler.c ****         CyBle_HidscWriteResponseEventHandler(eventParam);
 700:Generated_Source\PSoC4/CYBLE_eventHandler.c ****     }
 701:Generated_Source\PSoC4/CYBLE_eventHandler.c **** #endif /* CYBLE_HIDS_CLIENT */
 702:Generated_Source\PSoC4/CYBLE_eventHandler.c **** 
 703:Generated_Source\PSoC4/CYBLE_eventHandler.c **** #ifdef CYBLE_HPS_CLIENT
 704:Generated_Source\PSoC4/CYBLE_eventHandler.c ****     if((cyBle_eventHandlerFlag & CYBLE_CALLBACK) != 0u)
 705:Generated_Source\PSoC4/CYBLE_eventHandler.c ****     {
 706:Generated_Source\PSoC4/CYBLE_eventHandler.c ****         CyBle_HpscWriteResponseEventHandler(eventParam);
 707:Generated_Source\PSoC4/CYBLE_eventHandler.c ****     }
 708:Generated_Source\PSoC4/CYBLE_eventHandler.c **** #endif /* CYBLE_HPS_CLIENT */
 709:Generated_Source\PSoC4/CYBLE_eventHandler.c **** 
 710:Generated_Source\PSoC4/CYBLE_eventHandler.c **** #ifdef CYBLE_HRS_CLIENT
 711:Generated_Source\PSoC4/CYBLE_eventHandler.c ****     if((cyBle_eventHandlerFlag & CYBLE_CALLBACK) != 0u)
 712:Generated_Source\PSoC4/CYBLE_eventHandler.c ****     {
 713:Generated_Source\PSoC4/CYBLE_eventHandler.c ****         CyBle_HrscWriteResponseEventHandler(eventParam);
 714:Generated_Source\PSoC4/CYBLE_eventHandler.c ****     }
 715:Generated_Source\PSoC4/CYBLE_eventHandler.c **** #endif /* CYBLE_HRS_CLIENT */
 716:Generated_Source\PSoC4/CYBLE_eventHandler.c **** 
 717:Generated_Source\PSoC4/CYBLE_eventHandler.c **** #ifdef CYBLE_HTS_CLIENT
 718:Generated_Source\PSoC4/CYBLE_eventHandler.c ****     if((cyBle_eventHandlerFlag & CYBLE_CALLBACK) != 0u)
 719:Generated_Source\PSoC4/CYBLE_eventHandler.c ****     {
 720:Generated_Source\PSoC4/CYBLE_eventHandler.c ****         CyBle_HtscWriteResponseEventHandler(eventParam);
 721:Generated_Source\PSoC4/CYBLE_eventHandler.c ****     }
 722:Generated_Source\PSoC4/CYBLE_eventHandler.c **** #endif /* CYBLE_HTS_CLIENT */
 723:Generated_Source\PSoC4/CYBLE_eventHandler.c **** 
 724:Generated_Source\PSoC4/CYBLE_eventHandler.c **** #ifdef CYBLE_IPS_CLIENT
 725:Generated_Source\PSoC4/CYBLE_eventHandler.c ****     if((cyBle_eventHandlerFlag & CYBLE_CALLBACK) != 0u)
 726:Generated_Source\PSoC4/CYBLE_eventHandler.c ****     {
 727:Generated_Source\PSoC4/CYBLE_eventHandler.c ****         CyBle_IpscWriteResponseEventHandler(eventParam);
 728:Generated_Source\PSoC4/CYBLE_eventHandler.c ****     }
 729:Generated_Source\PSoC4/CYBLE_eventHandler.c **** #endif /* CYBLE_IPS_CLIENT */
 730:Generated_Source\PSoC4/CYBLE_eventHandler.c **** 
 731:Generated_Source\PSoC4/CYBLE_eventHandler.c **** #ifdef CYBLE_LLS_CLIENT
 732:Generated_Source\PSoC4/CYBLE_eventHandler.c ****     if((cyBle_eventHandlerFlag & CYBLE_CALLBACK) != 0u)
 733:Generated_Source\PSoC4/CYBLE_eventHandler.c ****     {
 734:Generated_Source\PSoC4/CYBLE_eventHandler.c ****         CyBle_LlscWriteResponseEventHandler(eventParam);
 735:Generated_Source\PSoC4/CYBLE_eventHandler.c ****     }
 736:Generated_Source\PSoC4/CYBLE_eventHandler.c **** #endif /* CYBLE_LLS_CLIENT */
 737:Generated_Source\PSoC4/CYBLE_eventHandler.c **** 
 738:Generated_Source\PSoC4/CYBLE_eventHandler.c **** #ifdef CYBLE_LNS_CLIENT
 739:Generated_Source\PSoC4/CYBLE_eventHandler.c ****     if((cyBle_eventHandlerFlag & CYBLE_CALLBACK) != 0u)
 740:Generated_Source\PSoC4/CYBLE_eventHandler.c ****     {
 741:Generated_Source\PSoC4/CYBLE_eventHandler.c ****         CyBle_LnscWriteResponseEventHandler(eventParam);
 742:Generated_Source\PSoC4/CYBLE_eventHandler.c ****     }
 743:Generated_Source\PSoC4/CYBLE_eventHandler.c **** #endif /* CYBLE_LNS_CLIENT */
 744:Generated_Source\PSoC4/CYBLE_eventHandler.c **** 
 745:Generated_Source\PSoC4/CYBLE_eventHandler.c **** #ifdef CYBLE_OTS_CLIENT
 746:Generated_Source\PSoC4/CYBLE_eventHandler.c ****     if((cyBle_eventHandlerFlag & CYBLE_CALLBACK) != 0u)
 747:Generated_Source\PSoC4/CYBLE_eventHandler.c ****     {
 748:Generated_Source\PSoC4/CYBLE_eventHandler.c ****         CyBle_OtscWriteResponseEventHandler(eventParam);
 749:Generated_Source\PSoC4/CYBLE_eventHandler.c ****     }
ARM GAS  C:\Users\LIAMSA~1\AppData\Local\Temp\cc7Yswwd.s 			page 18


 750:Generated_Source\PSoC4/CYBLE_eventHandler.c **** #endif /* CYBLE_OTS_CLIENT */
 751:Generated_Source\PSoC4/CYBLE_eventHandler.c **** 
 752:Generated_Source\PSoC4/CYBLE_eventHandler.c **** #ifdef CYBLE_PASS_CLIENT
 753:Generated_Source\PSoC4/CYBLE_eventHandler.c ****     if((cyBle_eventHandlerFlag & CYBLE_CALLBACK) != 0u)
 754:Generated_Source\PSoC4/CYBLE_eventHandler.c ****     {
 755:Generated_Source\PSoC4/CYBLE_eventHandler.c ****         CyBle_PasscWriteResponseEventHandler(eventParam);
 756:Generated_Source\PSoC4/CYBLE_eventHandler.c ****     }
 757:Generated_Source\PSoC4/CYBLE_eventHandler.c **** #endif /* CYBLE_PASS_CLIENT */
 758:Generated_Source\PSoC4/CYBLE_eventHandler.c **** 
 759:Generated_Source\PSoC4/CYBLE_eventHandler.c **** #ifdef CYBLE_PLXS_CLIENT
 760:Generated_Source\PSoC4/CYBLE_eventHandler.c ****     if((cyBle_eventHandlerFlag & CYBLE_CALLBACK) != 0u)
 761:Generated_Source\PSoC4/CYBLE_eventHandler.c ****     {
 762:Generated_Source\PSoC4/CYBLE_eventHandler.c ****         CyBle_PlxscWriteResponseEventHandler(eventParam);
 763:Generated_Source\PSoC4/CYBLE_eventHandler.c ****     }
 764:Generated_Source\PSoC4/CYBLE_eventHandler.c **** #endif /* CYBLE_PASS_CLIENT */
 765:Generated_Source\PSoC4/CYBLE_eventHandler.c **** 
 766:Generated_Source\PSoC4/CYBLE_eventHandler.c **** #ifdef CYBLE_RSCS_CLIENT
 767:Generated_Source\PSoC4/CYBLE_eventHandler.c ****     if((cyBle_eventHandlerFlag & CYBLE_CALLBACK) != 0u)
 768:Generated_Source\PSoC4/CYBLE_eventHandler.c ****     {
 769:Generated_Source\PSoC4/CYBLE_eventHandler.c ****         CyBle_RscscWriteResponseEventHandler(eventParam);
 770:Generated_Source\PSoC4/CYBLE_eventHandler.c ****     }
 771:Generated_Source\PSoC4/CYBLE_eventHandler.c **** #endif /* CYBLE_RSCS_CLIENT */
 772:Generated_Source\PSoC4/CYBLE_eventHandler.c **** 
 773:Generated_Source\PSoC4/CYBLE_eventHandler.c **** #ifdef CYBLE_SCPS_CLIENT
 774:Generated_Source\PSoC4/CYBLE_eventHandler.c ****     if((cyBle_eventHandlerFlag & CYBLE_CALLBACK) != 0u)
 775:Generated_Source\PSoC4/CYBLE_eventHandler.c ****     {
 776:Generated_Source\PSoC4/CYBLE_eventHandler.c ****         CyBle_ScpscWriteResponseEventHandler(eventParam);
 777:Generated_Source\PSoC4/CYBLE_eventHandler.c ****     }
 778:Generated_Source\PSoC4/CYBLE_eventHandler.c **** #endif /* CYBLE_SCPS_CLIENT */
 779:Generated_Source\PSoC4/CYBLE_eventHandler.c **** 
 780:Generated_Source\PSoC4/CYBLE_eventHandler.c **** #ifdef CYBLE_TPS_CLIENT
 781:Generated_Source\PSoC4/CYBLE_eventHandler.c ****     if((cyBle_eventHandlerFlag & CYBLE_CALLBACK) != 0u)
 782:Generated_Source\PSoC4/CYBLE_eventHandler.c ****     {
 783:Generated_Source\PSoC4/CYBLE_eventHandler.c ****         CyBle_TpscWriteResponseEventHandler(eventParam);
 784:Generated_Source\PSoC4/CYBLE_eventHandler.c ****     }
 785:Generated_Source\PSoC4/CYBLE_eventHandler.c **** #endif /* CYBLE_TPS_CLIENT */
 786:Generated_Source\PSoC4/CYBLE_eventHandler.c **** 
 787:Generated_Source\PSoC4/CYBLE_eventHandler.c **** #ifdef CYBLE_UDS_CLIENT
 788:Generated_Source\PSoC4/CYBLE_eventHandler.c ****     if((cyBle_eventHandlerFlag & CYBLE_CALLBACK) != 0u)
 789:Generated_Source\PSoC4/CYBLE_eventHandler.c ****     {
 790:Generated_Source\PSoC4/CYBLE_eventHandler.c ****         CyBle_UdscWriteResponseEventHandler(eventParam);
 791:Generated_Source\PSoC4/CYBLE_eventHandler.c ****     }
 792:Generated_Source\PSoC4/CYBLE_eventHandler.c **** #endif /* CYBLE_UDS_CLIENT */
 793:Generated_Source\PSoC4/CYBLE_eventHandler.c **** #ifdef CYBLE_WPTS_CLIENT
 794:Generated_Source\PSoC4/CYBLE_eventHandler.c ****     if((cyBle_eventHandlerFlag & CYBLE_CALLBACK) != 0u)
 795:Generated_Source\PSoC4/CYBLE_eventHandler.c ****     {
 796:Generated_Source\PSoC4/CYBLE_eventHandler.c ****         CyBle_WptscWriteResponseEventHandler(eventParam);
 797:Generated_Source\PSoC4/CYBLE_eventHandler.c ****     }
 798:Generated_Source\PSoC4/CYBLE_eventHandler.c **** #endif /* CYBLE_WPTS_CLIENT */
 799:Generated_Source\PSoC4/CYBLE_eventHandler.c **** #ifdef CYBLE_WSS_CLIENT
 800:Generated_Source\PSoC4/CYBLE_eventHandler.c ****     if((cyBle_eventHandlerFlag & CYBLE_CALLBACK) != 0u)
 801:Generated_Source\PSoC4/CYBLE_eventHandler.c ****     {
 802:Generated_Source\PSoC4/CYBLE_eventHandler.c ****         CyBle_WsscWriteResponseEventHandler(eventParam);
 803:Generated_Source\PSoC4/CYBLE_eventHandler.c ****     }
 804:Generated_Source\PSoC4/CYBLE_eventHandler.c **** #endif /* CYBLE_WSS_CLIENT */
 805:Generated_Source\PSoC4/CYBLE_eventHandler.c **** }
 806:Generated_Source\PSoC4/CYBLE_eventHandler.c **** 
ARM GAS  C:\Users\LIAMSA~1\AppData\Local\Temp\cc7Yswwd.s 			page 19


 807:Generated_Source\PSoC4/CYBLE_eventHandler.c **** 
 808:Generated_Source\PSoC4/CYBLE_eventHandler.c **** /******************************************************************************    
 809:Generated_Source\PSoC4/CYBLE_eventHandler.c **** * Function Name: CyBle_NotificationEventHandler
 810:Generated_Source\PSoC4/CYBLE_eventHandler.c **** ***************************************************************************//**
 811:Generated_Source\PSoC4/CYBLE_eventHandler.c **** * 
 812:Generated_Source\PSoC4/CYBLE_eventHandler.c **** *  Handles the Notification event from BLE stack.
 813:Generated_Source\PSoC4/CYBLE_eventHandler.c **** * 
 814:Generated_Source\PSoC4/CYBLE_eventHandler.c **** *  \param eventParam: event parameter
 815:Generated_Source\PSoC4/CYBLE_eventHandler.c **** * 
 816:Generated_Source\PSoC4/CYBLE_eventHandler.c **** * \return
 817:Generated_Source\PSoC4/CYBLE_eventHandler.c **** *  None
 818:Generated_Source\PSoC4/CYBLE_eventHandler.c **** * 
 819:Generated_Source\PSoC4/CYBLE_eventHandler.c **** ******************************************************************************/
 820:Generated_Source\PSoC4/CYBLE_eventHandler.c **** static void CyBle_NotificationEventHandler(CYBLE_GATTC_HANDLE_VALUE_NTF_PARAM_T *eventParam)
 821:Generated_Source\PSoC4/CYBLE_eventHandler.c **** {
 822:Generated_Source\PSoC4/CYBLE_eventHandler.c **** #ifdef CYBLE_AIOS_CLIENT
 823:Generated_Source\PSoC4/CYBLE_eventHandler.c ****     if((cyBle_eventHandlerFlag & CYBLE_CALLBACK) != 0u)
 824:Generated_Source\PSoC4/CYBLE_eventHandler.c ****     {
 825:Generated_Source\PSoC4/CYBLE_eventHandler.c ****         CyBle_AioscNotificationEventHandler(eventParam);
 826:Generated_Source\PSoC4/CYBLE_eventHandler.c ****     }
 827:Generated_Source\PSoC4/CYBLE_eventHandler.c **** #endif /* CYBLE_AIOS_CLIENT */
 828:Generated_Source\PSoC4/CYBLE_eventHandler.c **** #ifdef CYBLE_ANCS_CLIENT
 829:Generated_Source\PSoC4/CYBLE_eventHandler.c ****     CyBle_AncscNotificationEventHandler(eventParam);
 830:Generated_Source\PSoC4/CYBLE_eventHandler.c **** #endif /* CYBLE_ANCS_CLIENT */
 831:Generated_Source\PSoC4/CYBLE_eventHandler.c **** #ifdef CYBLE_ANS_CLIENT
 832:Generated_Source\PSoC4/CYBLE_eventHandler.c ****     if((cyBle_eventHandlerFlag & CYBLE_CALLBACK) != 0u)
 833:Generated_Source\PSoC4/CYBLE_eventHandler.c ****     {
 834:Generated_Source\PSoC4/CYBLE_eventHandler.c ****         CyBle_AnscNotificationEventHandler(eventParam);
 835:Generated_Source\PSoC4/CYBLE_eventHandler.c ****     }
 836:Generated_Source\PSoC4/CYBLE_eventHandler.c **** #endif /* CYBLE_ANS_CLIENT */
 837:Generated_Source\PSoC4/CYBLE_eventHandler.c **** #ifdef CYBLE_BAS_CLIENT
 838:Generated_Source\PSoC4/CYBLE_eventHandler.c ****     if((cyBle_eventHandlerFlag & CYBLE_CALLBACK) != 0u)
 839:Generated_Source\PSoC4/CYBLE_eventHandler.c ****     {
 840:Generated_Source\PSoC4/CYBLE_eventHandler.c ****         CyBle_BascNotificationEventHandler(eventParam);
 841:Generated_Source\PSoC4/CYBLE_eventHandler.c ****     }
 842:Generated_Source\PSoC4/CYBLE_eventHandler.c **** #endif /* CYBLE_BAS_CLIENT */
 843:Generated_Source\PSoC4/CYBLE_eventHandler.c **** #ifdef CYBLE_BLS_CLIENT
 844:Generated_Source\PSoC4/CYBLE_eventHandler.c ****     if((cyBle_eventHandlerFlag & CYBLE_CALLBACK) != 0u)
 845:Generated_Source\PSoC4/CYBLE_eventHandler.c ****     {
 846:Generated_Source\PSoC4/CYBLE_eventHandler.c ****         CyBle_BlscNotificationEventHandler(eventParam);
 847:Generated_Source\PSoC4/CYBLE_eventHandler.c ****     }
 848:Generated_Source\PSoC4/CYBLE_eventHandler.c **** #endif /* CYBLE_BLS_CLIENT */
 849:Generated_Source\PSoC4/CYBLE_eventHandler.c **** #ifdef CYBLE_CGMS_CLIENT
 850:Generated_Source\PSoC4/CYBLE_eventHandler.c ****     if((cyBle_eventHandlerFlag & CYBLE_CALLBACK) != 0u)
 851:Generated_Source\PSoC4/CYBLE_eventHandler.c ****     {
 852:Generated_Source\PSoC4/CYBLE_eventHandler.c ****         CyBle_CgmscNotificationEventHandler(eventParam);
 853:Generated_Source\PSoC4/CYBLE_eventHandler.c ****     }
 854:Generated_Source\PSoC4/CYBLE_eventHandler.c **** #endif /* CYBLE_CGMS_CLIENT */
 855:Generated_Source\PSoC4/CYBLE_eventHandler.c **** #ifdef CYBLE_CPS_CLIENT
 856:Generated_Source\PSoC4/CYBLE_eventHandler.c ****     if((cyBle_eventHandlerFlag & CYBLE_CALLBACK) != 0u)
 857:Generated_Source\PSoC4/CYBLE_eventHandler.c ****     {
 858:Generated_Source\PSoC4/CYBLE_eventHandler.c ****         CyBle_CpscNotificationEventHandler(eventParam);
 859:Generated_Source\PSoC4/CYBLE_eventHandler.c ****     }
 860:Generated_Source\PSoC4/CYBLE_eventHandler.c **** #endif /* CYBLE_CPS_CLIENT */
 861:Generated_Source\PSoC4/CYBLE_eventHandler.c **** #ifdef CYBLE_CSCS_CLIENT
 862:Generated_Source\PSoC4/CYBLE_eventHandler.c ****     if((cyBle_eventHandlerFlag & CYBLE_CALLBACK) != 0u)
 863:Generated_Source\PSoC4/CYBLE_eventHandler.c ****     {
ARM GAS  C:\Users\LIAMSA~1\AppData\Local\Temp\cc7Yswwd.s 			page 20


 864:Generated_Source\PSoC4/CYBLE_eventHandler.c ****         CyBle_CscscNotificationEventHandler(eventParam);
 865:Generated_Source\PSoC4/CYBLE_eventHandler.c ****     }
 866:Generated_Source\PSoC4/CYBLE_eventHandler.c **** #endif /* CYBLE_CSCS_CLIENT */
 867:Generated_Source\PSoC4/CYBLE_eventHandler.c **** #ifdef CYBLE_CTS_CLIENT
 868:Generated_Source\PSoC4/CYBLE_eventHandler.c ****     if((cyBle_eventHandlerFlag & CYBLE_CALLBACK) != 0u)
 869:Generated_Source\PSoC4/CYBLE_eventHandler.c ****     {
 870:Generated_Source\PSoC4/CYBLE_eventHandler.c ****         CyBle_CtscNotificationEventHandler(eventParam);
 871:Generated_Source\PSoC4/CYBLE_eventHandler.c ****     }
 872:Generated_Source\PSoC4/CYBLE_eventHandler.c **** #endif /* CYBLE_CTS_CLIENT */
 873:Generated_Source\PSoC4/CYBLE_eventHandler.c **** #ifdef CYBLE_ESS_CLIENT
 874:Generated_Source\PSoC4/CYBLE_eventHandler.c ****     if((cyBle_eventHandlerFlag & CYBLE_CALLBACK) != 0u)
 875:Generated_Source\PSoC4/CYBLE_eventHandler.c ****     {
 876:Generated_Source\PSoC4/CYBLE_eventHandler.c ****         CyBle_EsscNotificationEventHandler(eventParam);
 877:Generated_Source\PSoC4/CYBLE_eventHandler.c ****     }
 878:Generated_Source\PSoC4/CYBLE_eventHandler.c **** #endif /* CYBLE_ESS_CLIENT */
 879:Generated_Source\PSoC4/CYBLE_eventHandler.c **** #ifdef CYBLE_GLS_CLIENT
 880:Generated_Source\PSoC4/CYBLE_eventHandler.c ****     if((cyBle_eventHandlerFlag & CYBLE_CALLBACK) != 0u)
 881:Generated_Source\PSoC4/CYBLE_eventHandler.c ****     {
 882:Generated_Source\PSoC4/CYBLE_eventHandler.c ****         CyBle_GlscNotificationEventHandler(eventParam);
 883:Generated_Source\PSoC4/CYBLE_eventHandler.c ****     }
 884:Generated_Source\PSoC4/CYBLE_eventHandler.c **** #endif /* CYBLE_GLS_CLIENT */
 885:Generated_Source\PSoC4/CYBLE_eventHandler.c **** #ifdef CYBLE_HIDS_CLIENT
 886:Generated_Source\PSoC4/CYBLE_eventHandler.c ****     if((cyBle_eventHandlerFlag & CYBLE_CALLBACK) != 0u)
 887:Generated_Source\PSoC4/CYBLE_eventHandler.c ****     {
 888:Generated_Source\PSoC4/CYBLE_eventHandler.c ****         CyBle_HidscNotificationEventHandler(eventParam);
 889:Generated_Source\PSoC4/CYBLE_eventHandler.c ****     }
 890:Generated_Source\PSoC4/CYBLE_eventHandler.c **** #endif /* CYBLE_HIDS_CLIENT */
 891:Generated_Source\PSoC4/CYBLE_eventHandler.c **** #ifdef CYBLE_HPS_CLIENT
 892:Generated_Source\PSoC4/CYBLE_eventHandler.c ****     if((cyBle_eventHandlerFlag & CYBLE_CALLBACK) != 0u)
 893:Generated_Source\PSoC4/CYBLE_eventHandler.c ****     {
 894:Generated_Source\PSoC4/CYBLE_eventHandler.c ****         CyBle_HpscNotificationEventHandler(eventParam);
 895:Generated_Source\PSoC4/CYBLE_eventHandler.c ****     }
 896:Generated_Source\PSoC4/CYBLE_eventHandler.c **** #endif /* CYBLE_HPS_CLIENT */
 897:Generated_Source\PSoC4/CYBLE_eventHandler.c **** #ifdef CYBLE_HRS_CLIENT
 898:Generated_Source\PSoC4/CYBLE_eventHandler.c ****     if((cyBle_eventHandlerFlag & CYBLE_CALLBACK) != 0u)
 899:Generated_Source\PSoC4/CYBLE_eventHandler.c ****     {
 900:Generated_Source\PSoC4/CYBLE_eventHandler.c ****         CyBle_HrscNotificationEventHandler(eventParam);
 901:Generated_Source\PSoC4/CYBLE_eventHandler.c ****     }
 902:Generated_Source\PSoC4/CYBLE_eventHandler.c **** #endif /* CYBLE_HRS_CLIENT */
 903:Generated_Source\PSoC4/CYBLE_eventHandler.c **** #ifdef CYBLE_HTS_CLIENT
 904:Generated_Source\PSoC4/CYBLE_eventHandler.c ****     if((cyBle_eventHandlerFlag & CYBLE_CALLBACK) != 0u)
 905:Generated_Source\PSoC4/CYBLE_eventHandler.c ****     {
 906:Generated_Source\PSoC4/CYBLE_eventHandler.c ****         CyBle_HtscNotificationEventHandler(eventParam);
 907:Generated_Source\PSoC4/CYBLE_eventHandler.c ****     }
 908:Generated_Source\PSoC4/CYBLE_eventHandler.c **** #endif /* CYBLE_HTS_CLIENT */
 909:Generated_Source\PSoC4/CYBLE_eventHandler.c **** #ifdef CYBLE_LNS_CLIENT
 910:Generated_Source\PSoC4/CYBLE_eventHandler.c ****     if((cyBle_eventHandlerFlag & CYBLE_CALLBACK) != 0u)
 911:Generated_Source\PSoC4/CYBLE_eventHandler.c ****     {
 912:Generated_Source\PSoC4/CYBLE_eventHandler.c ****         CyBle_LnscNotificationEventHandler(eventParam);
 913:Generated_Source\PSoC4/CYBLE_eventHandler.c ****     }
 914:Generated_Source\PSoC4/CYBLE_eventHandler.c **** #endif /* CYBLE_LNS_CLIENT */
 915:Generated_Source\PSoC4/CYBLE_eventHandler.c **** #ifdef CYBLE_PASS_CLIENT
 916:Generated_Source\PSoC4/CYBLE_eventHandler.c ****     if((cyBle_eventHandlerFlag & CYBLE_CALLBACK) != 0u)
 917:Generated_Source\PSoC4/CYBLE_eventHandler.c ****     {
 918:Generated_Source\PSoC4/CYBLE_eventHandler.c ****         CyBle_PasscNotificationEventHandler(eventParam);
 919:Generated_Source\PSoC4/CYBLE_eventHandler.c ****     }
 920:Generated_Source\PSoC4/CYBLE_eventHandler.c **** #endif /* CYBLE_PASS_CLIENT */
ARM GAS  C:\Users\LIAMSA~1\AppData\Local\Temp\cc7Yswwd.s 			page 21


 921:Generated_Source\PSoC4/CYBLE_eventHandler.c **** #ifdef CYBLE_PLXS_CLIENT
 922:Generated_Source\PSoC4/CYBLE_eventHandler.c ****     if((cyBle_eventHandlerFlag & CYBLE_CALLBACK) != 0u)
 923:Generated_Source\PSoC4/CYBLE_eventHandler.c ****     {
 924:Generated_Source\PSoC4/CYBLE_eventHandler.c ****         CyBle_PlxscNotificationEventHandler(eventParam);
 925:Generated_Source\PSoC4/CYBLE_eventHandler.c ****     }
 926:Generated_Source\PSoC4/CYBLE_eventHandler.c **** #endif /* CYBLE_PLXS_CLIENT */
 927:Generated_Source\PSoC4/CYBLE_eventHandler.c **** #ifdef CYBLE_RSCS_CLIENT
 928:Generated_Source\PSoC4/CYBLE_eventHandler.c ****     if((cyBle_eventHandlerFlag & CYBLE_CALLBACK) != 0u)
 929:Generated_Source\PSoC4/CYBLE_eventHandler.c ****     {
 930:Generated_Source\PSoC4/CYBLE_eventHandler.c ****         CyBle_RscscNotificationEventHandler(eventParam);
 931:Generated_Source\PSoC4/CYBLE_eventHandler.c ****     }
 932:Generated_Source\PSoC4/CYBLE_eventHandler.c **** #endif /* CYBLE_RSCS_CLIENT */
 933:Generated_Source\PSoC4/CYBLE_eventHandler.c **** #ifdef CYBLE_SCPS_CLIENT
 934:Generated_Source\PSoC4/CYBLE_eventHandler.c ****     if((cyBle_eventHandlerFlag & CYBLE_CALLBACK) != 0u)
 935:Generated_Source\PSoC4/CYBLE_eventHandler.c ****     {
 936:Generated_Source\PSoC4/CYBLE_eventHandler.c ****         CyBle_ScpscNotificationEventHandler(eventParam);
 937:Generated_Source\PSoC4/CYBLE_eventHandler.c ****     }
 938:Generated_Source\PSoC4/CYBLE_eventHandler.c **** #endif /* CYBLE_SCPS_CLIENT */
 939:Generated_Source\PSoC4/CYBLE_eventHandler.c **** #ifdef CYBLE_TPS_CLIENT
 940:Generated_Source\PSoC4/CYBLE_eventHandler.c ****     if((cyBle_eventHandlerFlag & CYBLE_CALLBACK) != 0u)
 941:Generated_Source\PSoC4/CYBLE_eventHandler.c ****     {
 942:Generated_Source\PSoC4/CYBLE_eventHandler.c ****         CyBle_TpscNotificationEventHandler(eventParam);
 943:Generated_Source\PSoC4/CYBLE_eventHandler.c ****     }
 944:Generated_Source\PSoC4/CYBLE_eventHandler.c **** #endif /* CYBLE_TPS_CLIENT */
 945:Generated_Source\PSoC4/CYBLE_eventHandler.c **** #ifdef CYBLE_UDS_CLIENT
 946:Generated_Source\PSoC4/CYBLE_eventHandler.c ****     if((cyBle_eventHandlerFlag & CYBLE_CALLBACK) != 0u)
 947:Generated_Source\PSoC4/CYBLE_eventHandler.c ****     {
 948:Generated_Source\PSoC4/CYBLE_eventHandler.c ****         CyBle_UdscNotificationEventHandler(eventParam);
 949:Generated_Source\PSoC4/CYBLE_eventHandler.c ****     }
 950:Generated_Source\PSoC4/CYBLE_eventHandler.c **** #endif /* CYBLE_UDS_CLIENT */
 951:Generated_Source\PSoC4/CYBLE_eventHandler.c **** #ifdef CYBLE_WPTS_CLIENT
 952:Generated_Source\PSoC4/CYBLE_eventHandler.c ****     if((cyBle_eventHandlerFlag & CYBLE_CALLBACK) != 0u)
 953:Generated_Source\PSoC4/CYBLE_eventHandler.c ****     {
 954:Generated_Source\PSoC4/CYBLE_eventHandler.c ****         CyBle_WptscNotificationEventHandler(eventParam);
 955:Generated_Source\PSoC4/CYBLE_eventHandler.c ****     }
 956:Generated_Source\PSoC4/CYBLE_eventHandler.c **** #endif /* CYBLE_WPTS_CLIENT */
 957:Generated_Source\PSoC4/CYBLE_eventHandler.c **** }
 958:Generated_Source\PSoC4/CYBLE_eventHandler.c **** 
 959:Generated_Source\PSoC4/CYBLE_eventHandler.c **** 
 960:Generated_Source\PSoC4/CYBLE_eventHandler.c **** /******************************************************************************    
 961:Generated_Source\PSoC4/CYBLE_eventHandler.c **** * Function Name: CyBle_IndicationEventHandler
 962:Generated_Source\PSoC4/CYBLE_eventHandler.c **** ***************************************************************************//**
 963:Generated_Source\PSoC4/CYBLE_eventHandler.c **** * 
 964:Generated_Source\PSoC4/CYBLE_eventHandler.c **** *  Handles the Indication event from BLE stack.
 965:Generated_Source\PSoC4/CYBLE_eventHandler.c **** * 
 966:Generated_Source\PSoC4/CYBLE_eventHandler.c **** *  \param eventParam: event parameter
 967:Generated_Source\PSoC4/CYBLE_eventHandler.c **** * 
 968:Generated_Source\PSoC4/CYBLE_eventHandler.c **** * \return
 969:Generated_Source\PSoC4/CYBLE_eventHandler.c **** *  None
 970:Generated_Source\PSoC4/CYBLE_eventHandler.c **** * 
 971:Generated_Source\PSoC4/CYBLE_eventHandler.c **** ******************************************************************************/
 972:Generated_Source\PSoC4/CYBLE_eventHandler.c **** static void CyBle_IndicationEventHandler(CYBLE_GATTC_HANDLE_VALUE_IND_PARAM_T *eventParam)
 973:Generated_Source\PSoC4/CYBLE_eventHandler.c **** {
 974:Generated_Source\PSoC4/CYBLE_eventHandler.c **** #ifdef CYBLE_AIOS_CLIENT
 975:Generated_Source\PSoC4/CYBLE_eventHandler.c ****     if((cyBle_eventHandlerFlag & CYBLE_CALLBACK) != 0u)
 976:Generated_Source\PSoC4/CYBLE_eventHandler.c ****     {
 977:Generated_Source\PSoC4/CYBLE_eventHandler.c ****         CyBle_AioscIndicationEventHandler(eventParam);
ARM GAS  C:\Users\LIAMSA~1\AppData\Local\Temp\cc7Yswwd.s 			page 22


 978:Generated_Source\PSoC4/CYBLE_eventHandler.c ****     }
 979:Generated_Source\PSoC4/CYBLE_eventHandler.c **** #endif /* CYBLE_AIOS_CLIENT */
 980:Generated_Source\PSoC4/CYBLE_eventHandler.c **** #ifdef CYBLE_BCS_CLIENT
 981:Generated_Source\PSoC4/CYBLE_eventHandler.c ****     if((cyBle_eventHandlerFlag & CYBLE_CALLBACK) != 0u)
 982:Generated_Source\PSoC4/CYBLE_eventHandler.c ****     {
 983:Generated_Source\PSoC4/CYBLE_eventHandler.c ****         CyBle_BcscIndicationEventHandler(eventParam);
 984:Generated_Source\PSoC4/CYBLE_eventHandler.c ****     }
 985:Generated_Source\PSoC4/CYBLE_eventHandler.c **** #endif /* CYBLE_BCS_CLIENT */
 986:Generated_Source\PSoC4/CYBLE_eventHandler.c **** #ifdef CYBLE_BLS_CLIENT
 987:Generated_Source\PSoC4/CYBLE_eventHandler.c ****     if((cyBle_eventHandlerFlag & CYBLE_CALLBACK) != 0u)
 988:Generated_Source\PSoC4/CYBLE_eventHandler.c ****     {
 989:Generated_Source\PSoC4/CYBLE_eventHandler.c ****         CyBle_BlscIndicationEventHandler(eventParam);
 990:Generated_Source\PSoC4/CYBLE_eventHandler.c ****     }
 991:Generated_Source\PSoC4/CYBLE_eventHandler.c **** #endif /* CYBLE_BLS_CLIENT */
 992:Generated_Source\PSoC4/CYBLE_eventHandler.c **** #ifdef CYBLE_CGMS_CLIENT
 993:Generated_Source\PSoC4/CYBLE_eventHandler.c ****     if((cyBle_eventHandlerFlag & CYBLE_CALLBACK) != 0u)
 994:Generated_Source\PSoC4/CYBLE_eventHandler.c ****     {
 995:Generated_Source\PSoC4/CYBLE_eventHandler.c ****         CyBle_CgmscIndicationEventHandler(eventParam);
 996:Generated_Source\PSoC4/CYBLE_eventHandler.c ****     }
 997:Generated_Source\PSoC4/CYBLE_eventHandler.c **** #endif /* CYBLE_CGMS_CLIENT */
 998:Generated_Source\PSoC4/CYBLE_eventHandler.c **** #ifdef CYBLE_CPS_CLIENT
 999:Generated_Source\PSoC4/CYBLE_eventHandler.c ****     if((cyBle_eventHandlerFlag & CYBLE_CALLBACK) != 0u)
1000:Generated_Source\PSoC4/CYBLE_eventHandler.c ****     {
1001:Generated_Source\PSoC4/CYBLE_eventHandler.c ****         CyBle_CpscIndicationEventHandler(eventParam);
1002:Generated_Source\PSoC4/CYBLE_eventHandler.c ****     }
1003:Generated_Source\PSoC4/CYBLE_eventHandler.c **** #endif /* CYBLE_CPS_CLIENT */
1004:Generated_Source\PSoC4/CYBLE_eventHandler.c **** #ifdef CYBLE_CSCS_CLIENT
1005:Generated_Source\PSoC4/CYBLE_eventHandler.c ****     if((cyBle_eventHandlerFlag & CYBLE_CALLBACK) != 0u)
1006:Generated_Source\PSoC4/CYBLE_eventHandler.c ****     {
1007:Generated_Source\PSoC4/CYBLE_eventHandler.c ****         CyBle_CscscIndicationEventHandler(eventParam);
1008:Generated_Source\PSoC4/CYBLE_eventHandler.c ****     }
1009:Generated_Source\PSoC4/CYBLE_eventHandler.c **** #endif /* CYBLE_CSCS_CLIENT */
1010:Generated_Source\PSoC4/CYBLE_eventHandler.c **** #ifdef CYBLE_ESS_CLIENT
1011:Generated_Source\PSoC4/CYBLE_eventHandler.c ****     if((cyBle_eventHandlerFlag & CYBLE_CALLBACK) != 0u)
1012:Generated_Source\PSoC4/CYBLE_eventHandler.c ****     {
1013:Generated_Source\PSoC4/CYBLE_eventHandler.c ****         CyBle_EsscIndicationEventHandler(eventParam);
1014:Generated_Source\PSoC4/CYBLE_eventHandler.c ****     }
1015:Generated_Source\PSoC4/CYBLE_eventHandler.c **** #endif /* CYBLE_ESS_CLIENT */
1016:Generated_Source\PSoC4/CYBLE_eventHandler.c **** #ifdef CYBLE_GLS_CLIENT
1017:Generated_Source\PSoC4/CYBLE_eventHandler.c ****     if((cyBle_eventHandlerFlag & CYBLE_CALLBACK) != 0u)
1018:Generated_Source\PSoC4/CYBLE_eventHandler.c ****     {
1019:Generated_Source\PSoC4/CYBLE_eventHandler.c ****         CyBle_GlscIndicationEventHandler(eventParam);
1020:Generated_Source\PSoC4/CYBLE_eventHandler.c ****     }
1021:Generated_Source\PSoC4/CYBLE_eventHandler.c **** #endif /* CYBLE_GLS_CLIENT */
1022:Generated_Source\PSoC4/CYBLE_eventHandler.c **** #ifdef CYBLE_HTS_CLIENT
1023:Generated_Source\PSoC4/CYBLE_eventHandler.c ****     if((cyBle_eventHandlerFlag & CYBLE_CALLBACK) != 0u)
1024:Generated_Source\PSoC4/CYBLE_eventHandler.c ****     {
1025:Generated_Source\PSoC4/CYBLE_eventHandler.c ****         CyBle_HtscIndicationEventHandler(eventParam);
1026:Generated_Source\PSoC4/CYBLE_eventHandler.c ****     }
1027:Generated_Source\PSoC4/CYBLE_eventHandler.c **** #endif /* CYBLE_HTS_CLIENT */
1028:Generated_Source\PSoC4/CYBLE_eventHandler.c **** #ifdef CYBLE_LNS_CLIENT
1029:Generated_Source\PSoC4/CYBLE_eventHandler.c ****     if((cyBle_eventHandlerFlag & CYBLE_CALLBACK) != 0u)
1030:Generated_Source\PSoC4/CYBLE_eventHandler.c ****     {
1031:Generated_Source\PSoC4/CYBLE_eventHandler.c ****         CyBle_LnscIndicationEventHandler(eventParam);
1032:Generated_Source\PSoC4/CYBLE_eventHandler.c ****     }
1033:Generated_Source\PSoC4/CYBLE_eventHandler.c **** #endif /* CYBLE_LNS_CLIENT */
1034:Generated_Source\PSoC4/CYBLE_eventHandler.c **** #ifdef CYBLE_OTS_CLIENT
ARM GAS  C:\Users\LIAMSA~1\AppData\Local\Temp\cc7Yswwd.s 			page 23


1035:Generated_Source\PSoC4/CYBLE_eventHandler.c ****     if((cyBle_eventHandlerFlag & CYBLE_CALLBACK) != 0u)
1036:Generated_Source\PSoC4/CYBLE_eventHandler.c ****     {
1037:Generated_Source\PSoC4/CYBLE_eventHandler.c ****         CyBle_OtscIndicationEventHandler(eventParam);
1038:Generated_Source\PSoC4/CYBLE_eventHandler.c ****     }
1039:Generated_Source\PSoC4/CYBLE_eventHandler.c **** #endif /* CYBLE_OTS_CLIENT */
1040:Generated_Source\PSoC4/CYBLE_eventHandler.c **** #ifdef CYBLE_PLXS_CLIENT
1041:Generated_Source\PSoC4/CYBLE_eventHandler.c ****     if((cyBle_eventHandlerFlag & CYBLE_CALLBACK) != 0u)
1042:Generated_Source\PSoC4/CYBLE_eventHandler.c ****     {
1043:Generated_Source\PSoC4/CYBLE_eventHandler.c ****         CyBle_PlxscIndicationEventHandler(eventParam);
1044:Generated_Source\PSoC4/CYBLE_eventHandler.c ****     }
1045:Generated_Source\PSoC4/CYBLE_eventHandler.c **** #endif /* CYBLE_PLXS_CLIENT */
1046:Generated_Source\PSoC4/CYBLE_eventHandler.c **** #ifdef CYBLE_RSCS_CLIENT
1047:Generated_Source\PSoC4/CYBLE_eventHandler.c ****     if((cyBle_eventHandlerFlag & CYBLE_CALLBACK) != 0u)
1048:Generated_Source\PSoC4/CYBLE_eventHandler.c ****     {
1049:Generated_Source\PSoC4/CYBLE_eventHandler.c ****         CyBle_RscscIndicationEventHandler(eventParam);
1050:Generated_Source\PSoC4/CYBLE_eventHandler.c ****     }
1051:Generated_Source\PSoC4/CYBLE_eventHandler.c **** #endif /* CYBLE_RSCS_CLIENT */
1052:Generated_Source\PSoC4/CYBLE_eventHandler.c **** #ifdef CYBLE_UDS_CLIENT
1053:Generated_Source\PSoC4/CYBLE_eventHandler.c ****     if((cyBle_eventHandlerFlag & CYBLE_CALLBACK) != 0u)
1054:Generated_Source\PSoC4/CYBLE_eventHandler.c ****     {
1055:Generated_Source\PSoC4/CYBLE_eventHandler.c ****         CyBle_UdscIndicationEventHandler(eventParam);
1056:Generated_Source\PSoC4/CYBLE_eventHandler.c ****     }
1057:Generated_Source\PSoC4/CYBLE_eventHandler.c **** #endif /* CYBLE_UDS_CLIENT */
1058:Generated_Source\PSoC4/CYBLE_eventHandler.c **** #ifdef CYBLE_WPTS_CLIENT
1059:Generated_Source\PSoC4/CYBLE_eventHandler.c ****     if((cyBle_eventHandlerFlag & CYBLE_CALLBACK) != 0u)
1060:Generated_Source\PSoC4/CYBLE_eventHandler.c ****     {
1061:Generated_Source\PSoC4/CYBLE_eventHandler.c ****         CyBle_WptscIndicationEventHandler(eventParam);
1062:Generated_Source\PSoC4/CYBLE_eventHandler.c ****     }
1063:Generated_Source\PSoC4/CYBLE_eventHandler.c **** #endif /* CYBLE_WPTS_CLIENT */
1064:Generated_Source\PSoC4/CYBLE_eventHandler.c **** #ifdef CYBLE_WSS_CLIENT
1065:Generated_Source\PSoC4/CYBLE_eventHandler.c ****     if((cyBle_eventHandlerFlag & CYBLE_CALLBACK) != 0u)
1066:Generated_Source\PSoC4/CYBLE_eventHandler.c ****     {
1067:Generated_Source\PSoC4/CYBLE_eventHandler.c ****         CyBle_WsscIndicationEventHandler(eventParam);
1068:Generated_Source\PSoC4/CYBLE_eventHandler.c ****     }
1069:Generated_Source\PSoC4/CYBLE_eventHandler.c **** #endif /* CYBLE_WSS_CLIENT */
1070:Generated_Source\PSoC4/CYBLE_eventHandler.c **** }
1071:Generated_Source\PSoC4/CYBLE_eventHandler.c **** 
1072:Generated_Source\PSoC4/CYBLE_eventHandler.c **** /******************************************************************************    
1073:Generated_Source\PSoC4/CYBLE_eventHandler.c **** * Function Name: CyBle_ReadResponseEventHandler
1074:Generated_Source\PSoC4/CYBLE_eventHandler.c **** ***************************************************************************//**
1075:Generated_Source\PSoC4/CYBLE_eventHandler.c **** * 
1076:Generated_Source\PSoC4/CYBLE_eventHandler.c **** *  Handles the Read Response event from BLE stack.
1077:Generated_Source\PSoC4/CYBLE_eventHandler.c **** * 
1078:Generated_Source\PSoC4/CYBLE_eventHandler.c **** *  \param eventParam: event parameter
1079:Generated_Source\PSoC4/CYBLE_eventHandler.c **** * 
1080:Generated_Source\PSoC4/CYBLE_eventHandler.c **** * \return
1081:Generated_Source\PSoC4/CYBLE_eventHandler.c **** *  None
1082:Generated_Source\PSoC4/CYBLE_eventHandler.c **** * 
1083:Generated_Source\PSoC4/CYBLE_eventHandler.c **** ******************************************************************************/
1084:Generated_Source\PSoC4/CYBLE_eventHandler.c **** static void CyBle_ReadResponseEventHandler(CYBLE_GATTC_READ_RSP_PARAM_T *eventParam)
1085:Generated_Source\PSoC4/CYBLE_eventHandler.c **** {
1086:Generated_Source\PSoC4/CYBLE_eventHandler.c **** #ifdef CYBLE_CUSTOM_CLIENT
1087:Generated_Source\PSoC4/CYBLE_eventHandler.c ****     /* Read response with 128-bit included service uuid */
1088:Generated_Source\PSoC4/CYBLE_eventHandler.c ****     if((CyBle_GetClientState() == CYBLE_CLIENT_STATE_INCL_DISCOVERING) &&
1089:Generated_Source\PSoC4/CYBLE_eventHandler.c ****        (cyBle_discInclInfo.inclDefHandle != 0u))
1090:Generated_Source\PSoC4/CYBLE_eventHandler.c ****     {
1091:Generated_Source\PSoC4/CYBLE_eventHandler.c ****         CYBLE_DISC_SRVC128_INFO_T discServInfo;
ARM GAS  C:\Users\LIAMSA~1\AppData\Local\Temp\cc7Yswwd.s 			page 24


1092:Generated_Source\PSoC4/CYBLE_eventHandler.c **** 
1093:Generated_Source\PSoC4/CYBLE_eventHandler.c ****         /* Store service range */
1094:Generated_Source\PSoC4/CYBLE_eventHandler.c ****         discServInfo.range = cyBle_discInclInfo.inclHandleRange;
1095:Generated_Source\PSoC4/CYBLE_eventHandler.c ****         (void)memcpy((void *) discServInfo.uuid.uuid128.value, (void *)eventParam->value.val, event
1096:Generated_Source\PSoC4/CYBLE_eventHandler.c ****         CyBle_CustomcDiscoverServiceEventHandler(&discServInfo);
1097:Generated_Source\PSoC4/CYBLE_eventHandler.c ****         
1098:Generated_Source\PSoC4/CYBLE_eventHandler.c ****         /* Re-initiate CyBle_GattcFindIncludedServices function, setting the start
1099:Generated_Source\PSoC4/CYBLE_eventHandler.c ****            handle to the attribute handle which is placed next to the one used in
1100:Generated_Source\PSoC4/CYBLE_eventHandler.c ****            the above step.
1101:Generated_Source\PSoC4/CYBLE_eventHandler.c ****         */
1102:Generated_Source\PSoC4/CYBLE_eventHandler.c ****         discServInfo.range.startHandle = cyBle_discInclInfo.inclDefHandle + 1u;
1103:Generated_Source\PSoC4/CYBLE_eventHandler.c ****         discServInfo.range.endHandle = cyBle_serverInfo[cyBle_disCount].range.endHandle;
1104:Generated_Source\PSoC4/CYBLE_eventHandler.c ****         if(discServInfo.range.startHandle <= discServInfo.range.endHandle)
1105:Generated_Source\PSoC4/CYBLE_eventHandler.c ****         {
1106:Generated_Source\PSoC4/CYBLE_eventHandler.c ****             if(CYBLE_ERROR_OK != CyBle_GattcFindIncludedServices(cyBle_connHandle, &discServInfo.ra
1107:Generated_Source\PSoC4/CYBLE_eventHandler.c ****             {
1108:Generated_Source\PSoC4/CYBLE_eventHandler.c ****                 CyBle_ApplCallback(CYBLE_EVT_GATTC_INCL_DISCOVERY_FAILED, NULL);
1109:Generated_Source\PSoC4/CYBLE_eventHandler.c ****                 cyBle_eventHandlerFlag &= (uint8)~CYBLE_AUTO_DISCOVERY;
1110:Generated_Source\PSoC4/CYBLE_eventHandler.c ****             }
1111:Generated_Source\PSoC4/CYBLE_eventHandler.c ****         }
1112:Generated_Source\PSoC4/CYBLE_eventHandler.c ****         else /* Continue discovery of the following service */
1113:Generated_Source\PSoC4/CYBLE_eventHandler.c ****         {
1114:Generated_Source\PSoC4/CYBLE_eventHandler.c ****             CyBle_NextInclDiscovery(CYBLE_DISCOVERY_CONTINUE);
1115:Generated_Source\PSoC4/CYBLE_eventHandler.c ****         }
1116:Generated_Source\PSoC4/CYBLE_eventHandler.c ****         
1117:Generated_Source\PSoC4/CYBLE_eventHandler.c ****         cyBle_eventHandlerFlag &= (uint8)~CYBLE_CALLBACK;
1118:Generated_Source\PSoC4/CYBLE_eventHandler.c ****     #ifdef CYBLE_CUSTOM_CLIENT
1119:Generated_Source\PSoC4/CYBLE_eventHandler.c ****         cyBle_discInclInfo.inclDefHandle = 0u;
1120:Generated_Source\PSoC4/CYBLE_eventHandler.c ****     #endif /* CYBLE_CUSTOM_CLIENT */
1121:Generated_Source\PSoC4/CYBLE_eventHandler.c ****     }
1122:Generated_Source\PSoC4/CYBLE_eventHandler.c **** #endif /* CYBLE_CUSTOM_CLIENT */
1123:Generated_Source\PSoC4/CYBLE_eventHandler.c **** #ifdef CYBLE_AIOS_CLIENT
1124:Generated_Source\PSoC4/CYBLE_eventHandler.c ****     if((cyBle_eventHandlerFlag & CYBLE_CALLBACK) != 0u)
1125:Generated_Source\PSoC4/CYBLE_eventHandler.c ****     {
1126:Generated_Source\PSoC4/CYBLE_eventHandler.c ****         CyBle_AioscReadResponseEventHandler(eventParam);
1127:Generated_Source\PSoC4/CYBLE_eventHandler.c ****     }
1128:Generated_Source\PSoC4/CYBLE_eventHandler.c **** #endif /* CYBLE_AIOS_CLIENT */
1129:Generated_Source\PSoC4/CYBLE_eventHandler.c **** #ifdef CYBLE_ANCS_CLIENT
1130:Generated_Source\PSoC4/CYBLE_eventHandler.c ****     if((cyBle_eventHandlerFlag & CYBLE_CALLBACK) != 0u)
1131:Generated_Source\PSoC4/CYBLE_eventHandler.c ****     {
1132:Generated_Source\PSoC4/CYBLE_eventHandler.c ****         CyBle_AncscReadResponseEventHandler(eventParam);
1133:Generated_Source\PSoC4/CYBLE_eventHandler.c ****     }
1134:Generated_Source\PSoC4/CYBLE_eventHandler.c **** #endif /* CYBLE_ANCS_CLIENT */
1135:Generated_Source\PSoC4/CYBLE_eventHandler.c **** #ifdef CYBLE_ANS_CLIENT
1136:Generated_Source\PSoC4/CYBLE_eventHandler.c ****     if((cyBle_eventHandlerFlag & CYBLE_CALLBACK) != 0u)
1137:Generated_Source\PSoC4/CYBLE_eventHandler.c ****     {
1138:Generated_Source\PSoC4/CYBLE_eventHandler.c ****         CyBle_AnscReadResponseEventHandler(eventParam);
1139:Generated_Source\PSoC4/CYBLE_eventHandler.c ****     }
1140:Generated_Source\PSoC4/CYBLE_eventHandler.c **** #endif /* CYBLE_ANS_CLIENT */
1141:Generated_Source\PSoC4/CYBLE_eventHandler.c **** #ifdef CYBLE_BAS_CLIENT
1142:Generated_Source\PSoC4/CYBLE_eventHandler.c ****     if((cyBle_eventHandlerFlag & CYBLE_CALLBACK) != 0u)
1143:Generated_Source\PSoC4/CYBLE_eventHandler.c ****     {
1144:Generated_Source\PSoC4/CYBLE_eventHandler.c ****         CyBle_BascReadResponseEventHandler(eventParam);
1145:Generated_Source\PSoC4/CYBLE_eventHandler.c ****     }
1146:Generated_Source\PSoC4/CYBLE_eventHandler.c **** #endif /* CYBLE_BAS_CLIENT */
1147:Generated_Source\PSoC4/CYBLE_eventHandler.c **** #ifdef CYBLE_BLS_CLIENT
1148:Generated_Source\PSoC4/CYBLE_eventHandler.c ****     if((cyBle_eventHandlerFlag & CYBLE_CALLBACK) != 0u)
ARM GAS  C:\Users\LIAMSA~1\AppData\Local\Temp\cc7Yswwd.s 			page 25


1149:Generated_Source\PSoC4/CYBLE_eventHandler.c ****     {
1150:Generated_Source\PSoC4/CYBLE_eventHandler.c ****         CyBle_BlscReadResponseEventHandler(eventParam);
1151:Generated_Source\PSoC4/CYBLE_eventHandler.c ****     }
1152:Generated_Source\PSoC4/CYBLE_eventHandler.c **** #endif /* CYBLE_BLS_CLIENT */
1153:Generated_Source\PSoC4/CYBLE_eventHandler.c **** #ifdef CYBLE_BCS_CLIENT
1154:Generated_Source\PSoC4/CYBLE_eventHandler.c ****     if((cyBle_eventHandlerFlag & CYBLE_CALLBACK) != 0u)
1155:Generated_Source\PSoC4/CYBLE_eventHandler.c ****     {
1156:Generated_Source\PSoC4/CYBLE_eventHandler.c ****         CyBle_BcscReadResponseEventHandler(eventParam);
1157:Generated_Source\PSoC4/CYBLE_eventHandler.c ****     }
1158:Generated_Source\PSoC4/CYBLE_eventHandler.c **** #endif /* CYBLE_BCS_CLIENT */
1159:Generated_Source\PSoC4/CYBLE_eventHandler.c **** #ifdef CYBLE_BMS_CLIENT
1160:Generated_Source\PSoC4/CYBLE_eventHandler.c ****     if((cyBle_eventHandlerFlag & CYBLE_CALLBACK) != 0u)
1161:Generated_Source\PSoC4/CYBLE_eventHandler.c ****     {
1162:Generated_Source\PSoC4/CYBLE_eventHandler.c ****         CyBle_BmscReadResponseEventHandler(eventParam);
1163:Generated_Source\PSoC4/CYBLE_eventHandler.c ****     }
1164:Generated_Source\PSoC4/CYBLE_eventHandler.c **** #endif /* CYBLE_BMS_CLIENT */
1165:Generated_Source\PSoC4/CYBLE_eventHandler.c **** #ifdef CYBLE_CGMS_CLIENT
1166:Generated_Source\PSoC4/CYBLE_eventHandler.c ****     if((cyBle_eventHandlerFlag & CYBLE_CALLBACK) != 0u)
1167:Generated_Source\PSoC4/CYBLE_eventHandler.c ****     {
1168:Generated_Source\PSoC4/CYBLE_eventHandler.c ****         CyBle_CgmscReadResponseEventHandler(eventParam);
1169:Generated_Source\PSoC4/CYBLE_eventHandler.c ****     }
1170:Generated_Source\PSoC4/CYBLE_eventHandler.c **** #endif /* CYBLE_CGMS_CLIENT */
1171:Generated_Source\PSoC4/CYBLE_eventHandler.c **** #ifdef CYBLE_CPS_CLIENT
1172:Generated_Source\PSoC4/CYBLE_eventHandler.c ****     if((cyBle_eventHandlerFlag & CYBLE_CALLBACK) != 0u)
1173:Generated_Source\PSoC4/CYBLE_eventHandler.c ****     {
1174:Generated_Source\PSoC4/CYBLE_eventHandler.c ****         CyBle_CpscReadResponseEventHandler(eventParam);
1175:Generated_Source\PSoC4/CYBLE_eventHandler.c ****     }
1176:Generated_Source\PSoC4/CYBLE_eventHandler.c **** #endif /* CYBLE_CPS_CLIENT */
1177:Generated_Source\PSoC4/CYBLE_eventHandler.c **** #ifdef CYBLE_CSCS_CLIENT
1178:Generated_Source\PSoC4/CYBLE_eventHandler.c ****     if((cyBle_eventHandlerFlag & CYBLE_CALLBACK) != 0u)
1179:Generated_Source\PSoC4/CYBLE_eventHandler.c ****     {
1180:Generated_Source\PSoC4/CYBLE_eventHandler.c ****         CyBle_CscscReadResponseEventHandler(eventParam);
1181:Generated_Source\PSoC4/CYBLE_eventHandler.c ****     }
1182:Generated_Source\PSoC4/CYBLE_eventHandler.c **** #endif /* CYBLE_CSCS_CLIENT */
1183:Generated_Source\PSoC4/CYBLE_eventHandler.c **** #ifdef CYBLE_CTS_CLIENT
1184:Generated_Source\PSoC4/CYBLE_eventHandler.c ****     if((cyBle_eventHandlerFlag & CYBLE_CALLBACK) != 0u)
1185:Generated_Source\PSoC4/CYBLE_eventHandler.c ****     {
1186:Generated_Source\PSoC4/CYBLE_eventHandler.c ****         CyBle_CtscReadResponseEventHandler(eventParam);
1187:Generated_Source\PSoC4/CYBLE_eventHandler.c ****     }
1188:Generated_Source\PSoC4/CYBLE_eventHandler.c **** #endif /* CYBLE_BAS_CLIENT */
1189:Generated_Source\PSoC4/CYBLE_eventHandler.c **** #ifdef CYBLE_DIS_CLIENT
1190:Generated_Source\PSoC4/CYBLE_eventHandler.c ****     if((cyBle_eventHandlerFlag & CYBLE_CALLBACK) != 0u)
1191:Generated_Source\PSoC4/CYBLE_eventHandler.c ****     {
1192:Generated_Source\PSoC4/CYBLE_eventHandler.c ****         CyBle_DiscReadResponseEventHandler(eventParam);
1193:Generated_Source\PSoC4/CYBLE_eventHandler.c ****     }
1194:Generated_Source\PSoC4/CYBLE_eventHandler.c **** #endif /* CYBLE_DIS_CLIENT */
1195:Generated_Source\PSoC4/CYBLE_eventHandler.c **** #ifdef CYBLE_ESS_CLIENT
1196:Generated_Source\PSoC4/CYBLE_eventHandler.c ****     if((cyBle_eventHandlerFlag & CYBLE_CALLBACK) != 0u)
1197:Generated_Source\PSoC4/CYBLE_eventHandler.c ****     {
1198:Generated_Source\PSoC4/CYBLE_eventHandler.c ****         CyBle_EsscReadResponseEventHandler(eventParam);
1199:Generated_Source\PSoC4/CYBLE_eventHandler.c ****     }
1200:Generated_Source\PSoC4/CYBLE_eventHandler.c **** #endif /* CYBLE_ESS_CLIENT */
1201:Generated_Source\PSoC4/CYBLE_eventHandler.c **** #ifdef CYBLE_GLS_CLIENT
1202:Generated_Source\PSoC4/CYBLE_eventHandler.c ****     if((cyBle_eventHandlerFlag & CYBLE_CALLBACK) != 0u)
1203:Generated_Source\PSoC4/CYBLE_eventHandler.c ****     {
1204:Generated_Source\PSoC4/CYBLE_eventHandler.c ****         CyBle_GlscReadResponseEventHandler(eventParam);
1205:Generated_Source\PSoC4/CYBLE_eventHandler.c ****     }
ARM GAS  C:\Users\LIAMSA~1\AppData\Local\Temp\cc7Yswwd.s 			page 26


1206:Generated_Source\PSoC4/CYBLE_eventHandler.c **** #endif /* CYBLE_GLS_CLIENT */
1207:Generated_Source\PSoC4/CYBLE_eventHandler.c **** #ifdef CYBLE_HIDS_CLIENT
1208:Generated_Source\PSoC4/CYBLE_eventHandler.c ****     if((cyBle_eventHandlerFlag & CYBLE_CALLBACK) != 0u)
1209:Generated_Source\PSoC4/CYBLE_eventHandler.c ****     {
1210:Generated_Source\PSoC4/CYBLE_eventHandler.c ****         CyBle_HidscReadResponseEventHandler(eventParam);
1211:Generated_Source\PSoC4/CYBLE_eventHandler.c ****     }
1212:Generated_Source\PSoC4/CYBLE_eventHandler.c **** #endif /* CYBLE_HIDS_CLIENT */
1213:Generated_Source\PSoC4/CYBLE_eventHandler.c **** #ifdef CYBLE_HPS_CLIENT
1214:Generated_Source\PSoC4/CYBLE_eventHandler.c ****     if((cyBle_eventHandlerFlag & CYBLE_CALLBACK) != 0u)
1215:Generated_Source\PSoC4/CYBLE_eventHandler.c ****     {
1216:Generated_Source\PSoC4/CYBLE_eventHandler.c ****         CyBle_HpscReadResponseEventHandler(eventParam);
1217:Generated_Source\PSoC4/CYBLE_eventHandler.c ****     }
1218:Generated_Source\PSoC4/CYBLE_eventHandler.c **** #endif /* CYBLE_HPS_CLIENT */
1219:Generated_Source\PSoC4/CYBLE_eventHandler.c **** #ifdef CYBLE_HRS_CLIENT
1220:Generated_Source\PSoC4/CYBLE_eventHandler.c ****     if((cyBle_eventHandlerFlag & CYBLE_CALLBACK) != 0u)
1221:Generated_Source\PSoC4/CYBLE_eventHandler.c ****     {
1222:Generated_Source\PSoC4/CYBLE_eventHandler.c ****         CyBle_HrscReadResponseEventHandler(eventParam);
1223:Generated_Source\PSoC4/CYBLE_eventHandler.c ****     }
1224:Generated_Source\PSoC4/CYBLE_eventHandler.c **** #endif /* CYBLE_HRS_CLIENT */
1225:Generated_Source\PSoC4/CYBLE_eventHandler.c **** #ifdef CYBLE_HTS_CLIENT
1226:Generated_Source\PSoC4/CYBLE_eventHandler.c ****     if((cyBle_eventHandlerFlag & CYBLE_CALLBACK) != 0u)
1227:Generated_Source\PSoC4/CYBLE_eventHandler.c ****     {
1228:Generated_Source\PSoC4/CYBLE_eventHandler.c ****         CyBle_HtscReadResponseEventHandler(eventParam);
1229:Generated_Source\PSoC4/CYBLE_eventHandler.c ****     }
1230:Generated_Source\PSoC4/CYBLE_eventHandler.c **** #endif /* CYBLE_HTS_CLIENT */
1231:Generated_Source\PSoC4/CYBLE_eventHandler.c **** #ifdef CYBLE_IPS_CLIENT
1232:Generated_Source\PSoC4/CYBLE_eventHandler.c ****     if((cyBle_eventHandlerFlag & CYBLE_CALLBACK) != 0u)
1233:Generated_Source\PSoC4/CYBLE_eventHandler.c ****     {
1234:Generated_Source\PSoC4/CYBLE_eventHandler.c ****         CyBle_IpscReadResponseEventHandler(eventParam);
1235:Generated_Source\PSoC4/CYBLE_eventHandler.c ****     }
1236:Generated_Source\PSoC4/CYBLE_eventHandler.c **** #endif /* CYBLE_IPS_CLIENT */
1237:Generated_Source\PSoC4/CYBLE_eventHandler.c **** #ifdef CYBLE_LLS_CLIENT
1238:Generated_Source\PSoC4/CYBLE_eventHandler.c ****     if((cyBle_eventHandlerFlag & CYBLE_CALLBACK) != 0u)
1239:Generated_Source\PSoC4/CYBLE_eventHandler.c ****     {
1240:Generated_Source\PSoC4/CYBLE_eventHandler.c ****         CyBle_LlscReadResponseEventHandler(eventParam);
1241:Generated_Source\PSoC4/CYBLE_eventHandler.c ****     }
1242:Generated_Source\PSoC4/CYBLE_eventHandler.c **** #endif /* CYBLE_LLS_CLIENT */
1243:Generated_Source\PSoC4/CYBLE_eventHandler.c **** #ifdef CYBLE_LNS_CLIENT
1244:Generated_Source\PSoC4/CYBLE_eventHandler.c ****     if((cyBle_eventHandlerFlag & CYBLE_CALLBACK) != 0u)
1245:Generated_Source\PSoC4/CYBLE_eventHandler.c ****     {
1246:Generated_Source\PSoC4/CYBLE_eventHandler.c ****         CyBle_LnscReadResponseEventHandler(eventParam);
1247:Generated_Source\PSoC4/CYBLE_eventHandler.c ****     }
1248:Generated_Source\PSoC4/CYBLE_eventHandler.c **** #endif /* CYBLE_LNS_CLIENT */
1249:Generated_Source\PSoC4/CYBLE_eventHandler.c **** #ifdef CYBLE_NDCS_CLIENT
1250:Generated_Source\PSoC4/CYBLE_eventHandler.c ****     if((cyBle_eventHandlerFlag & CYBLE_CALLBACK) != 0u)
1251:Generated_Source\PSoC4/CYBLE_eventHandler.c ****     {
1252:Generated_Source\PSoC4/CYBLE_eventHandler.c ****         CyBle_NdcscReadResponseEventHandler(eventParam);
1253:Generated_Source\PSoC4/CYBLE_eventHandler.c ****     }
1254:Generated_Source\PSoC4/CYBLE_eventHandler.c **** #endif /* CYBLE_NDCS_CLIENT */
1255:Generated_Source\PSoC4/CYBLE_eventHandler.c **** #ifdef CYBLE_OTS_CLIENT
1256:Generated_Source\PSoC4/CYBLE_eventHandler.c ****     if((cyBle_eventHandlerFlag & CYBLE_CALLBACK) != 0u)
1257:Generated_Source\PSoC4/CYBLE_eventHandler.c ****     {
1258:Generated_Source\PSoC4/CYBLE_eventHandler.c ****         CyBle_OtscReadResponseEventHandler(eventParam);
1259:Generated_Source\PSoC4/CYBLE_eventHandler.c ****     }
1260:Generated_Source\PSoC4/CYBLE_eventHandler.c **** #endif /* CYBLE_OTS_CLIENT */
1261:Generated_Source\PSoC4/CYBLE_eventHandler.c **** #ifdef CYBLE_PASS_CLIENT
1262:Generated_Source\PSoC4/CYBLE_eventHandler.c ****     if((cyBle_eventHandlerFlag & CYBLE_CALLBACK) != 0u)
ARM GAS  C:\Users\LIAMSA~1\AppData\Local\Temp\cc7Yswwd.s 			page 27


1263:Generated_Source\PSoC4/CYBLE_eventHandler.c ****     {
1264:Generated_Source\PSoC4/CYBLE_eventHandler.c ****         CyBle_PasscReadResponseEventHandler(eventParam);
1265:Generated_Source\PSoC4/CYBLE_eventHandler.c ****     }
1266:Generated_Source\PSoC4/CYBLE_eventHandler.c **** #endif /* CYBLE_PASS_CLIENT */
1267:Generated_Source\PSoC4/CYBLE_eventHandler.c **** #ifdef CYBLE_PLXS_CLIENT
1268:Generated_Source\PSoC4/CYBLE_eventHandler.c ****     if((cyBle_eventHandlerFlag & CYBLE_CALLBACK) != 0u)
1269:Generated_Source\PSoC4/CYBLE_eventHandler.c ****     {
1270:Generated_Source\PSoC4/CYBLE_eventHandler.c ****         CyBle_PlxscReadResponseEventHandler(eventParam);
1271:Generated_Source\PSoC4/CYBLE_eventHandler.c ****     }
1272:Generated_Source\PSoC4/CYBLE_eventHandler.c **** #endif /* CYBLE_PLXS_CLIENT */
1273:Generated_Source\PSoC4/CYBLE_eventHandler.c **** #ifdef CYBLE_RSCS_CLIENT
1274:Generated_Source\PSoC4/CYBLE_eventHandler.c ****     if((cyBle_eventHandlerFlag & CYBLE_CALLBACK) != 0u)
1275:Generated_Source\PSoC4/CYBLE_eventHandler.c ****     {
1276:Generated_Source\PSoC4/CYBLE_eventHandler.c ****         CyBle_RscscReadResponseEventHandler(eventParam);
1277:Generated_Source\PSoC4/CYBLE_eventHandler.c ****     }
1278:Generated_Source\PSoC4/CYBLE_eventHandler.c **** #endif /* CYBLE_RSCS_CLIENT */
1279:Generated_Source\PSoC4/CYBLE_eventHandler.c **** #ifdef CYBLE_RTUS_CLIENT
1280:Generated_Source\PSoC4/CYBLE_eventHandler.c ****     if((cyBle_eventHandlerFlag & CYBLE_CALLBACK) != 0u)
1281:Generated_Source\PSoC4/CYBLE_eventHandler.c ****     {
1282:Generated_Source\PSoC4/CYBLE_eventHandler.c ****         CyBle_RtuscReadResponseEventHandler(eventParam);
1283:Generated_Source\PSoC4/CYBLE_eventHandler.c ****     }
1284:Generated_Source\PSoC4/CYBLE_eventHandler.c **** #endif /* CYBLE_RTUS_CLIENT */
1285:Generated_Source\PSoC4/CYBLE_eventHandler.c **** #ifdef CYBLE_SCPS_CLIENT
1286:Generated_Source\PSoC4/CYBLE_eventHandler.c ****     if((cyBle_eventHandlerFlag & CYBLE_CALLBACK) != 0u)
1287:Generated_Source\PSoC4/CYBLE_eventHandler.c ****     {
1288:Generated_Source\PSoC4/CYBLE_eventHandler.c ****         CyBle_ScpscReadResponseEventHandler(eventParam);
1289:Generated_Source\PSoC4/CYBLE_eventHandler.c ****     }
1290:Generated_Source\PSoC4/CYBLE_eventHandler.c **** #endif /* CYBLE_SCPS_CLIENT */
1291:Generated_Source\PSoC4/CYBLE_eventHandler.c **** #ifdef CYBLE_TPS_CLIENT
1292:Generated_Source\PSoC4/CYBLE_eventHandler.c ****     if((cyBle_eventHandlerFlag & CYBLE_CALLBACK) != 0u)
1293:Generated_Source\PSoC4/CYBLE_eventHandler.c ****     {
1294:Generated_Source\PSoC4/CYBLE_eventHandler.c ****         CyBle_TpscReadResponseEventHandler(eventParam);
1295:Generated_Source\PSoC4/CYBLE_eventHandler.c ****     }
1296:Generated_Source\PSoC4/CYBLE_eventHandler.c **** #endif /* CYBLE_TPS_CLIENT */
1297:Generated_Source\PSoC4/CYBLE_eventHandler.c **** #ifdef CYBLE_UDS_CLIENT
1298:Generated_Source\PSoC4/CYBLE_eventHandler.c ****     if((cyBle_eventHandlerFlag & CYBLE_CALLBACK) != 0u)
1299:Generated_Source\PSoC4/CYBLE_eventHandler.c ****     {
1300:Generated_Source\PSoC4/CYBLE_eventHandler.c ****         CyBle_UdscReadResponseEventHandler(eventParam);
1301:Generated_Source\PSoC4/CYBLE_eventHandler.c ****     }
1302:Generated_Source\PSoC4/CYBLE_eventHandler.c **** #endif /* CYBLE_UDS_CLIENT */
1303:Generated_Source\PSoC4/CYBLE_eventHandler.c **** #ifdef CYBLE_WPTS_CLIENT
1304:Generated_Source\PSoC4/CYBLE_eventHandler.c ****     if((cyBle_eventHandlerFlag & CYBLE_CALLBACK) != 0u)
1305:Generated_Source\PSoC4/CYBLE_eventHandler.c ****     {
1306:Generated_Source\PSoC4/CYBLE_eventHandler.c ****         CyBle_WptscReadResponseEventHandler(eventParam);
1307:Generated_Source\PSoC4/CYBLE_eventHandler.c ****     }
1308:Generated_Source\PSoC4/CYBLE_eventHandler.c **** #endif /* CYBLE_WPTS_CLIENT */
1309:Generated_Source\PSoC4/CYBLE_eventHandler.c **** #ifdef CYBLE_WSS_CLIENT
1310:Generated_Source\PSoC4/CYBLE_eventHandler.c ****     if((cyBle_eventHandlerFlag & CYBLE_CALLBACK) != 0u)
1311:Generated_Source\PSoC4/CYBLE_eventHandler.c ****     {
1312:Generated_Source\PSoC4/CYBLE_eventHandler.c ****         CyBle_WsscReadResponseEventHandler(eventParam);
1313:Generated_Source\PSoC4/CYBLE_eventHandler.c ****     }
1314:Generated_Source\PSoC4/CYBLE_eventHandler.c **** #endif /* CYBLE_WSS_CLIENT */
1315:Generated_Source\PSoC4/CYBLE_eventHandler.c **** }
1316:Generated_Source\PSoC4/CYBLE_eventHandler.c **** 
1317:Generated_Source\PSoC4/CYBLE_eventHandler.c **** /******************************************************************************    
1318:Generated_Source\PSoC4/CYBLE_eventHandler.c **** * Function Name: CyBle_ReadMultipleResponseEventHandler
1319:Generated_Source\PSoC4/CYBLE_eventHandler.c **** ***************************************************************************//**
ARM GAS  C:\Users\LIAMSA~1\AppData\Local\Temp\cc7Yswwd.s 			page 28


1320:Generated_Source\PSoC4/CYBLE_eventHandler.c **** * 
1321:Generated_Source\PSoC4/CYBLE_eventHandler.c **** *  Handles the Read Multiple Response event from BLE stack.
1322:Generated_Source\PSoC4/CYBLE_eventHandler.c **** * 
1323:Generated_Source\PSoC4/CYBLE_eventHandler.c **** *  \param eventParam: event parameter
1324:Generated_Source\PSoC4/CYBLE_eventHandler.c **** * 
1325:Generated_Source\PSoC4/CYBLE_eventHandler.c **** * \return
1326:Generated_Source\PSoC4/CYBLE_eventHandler.c **** *  None
1327:Generated_Source\PSoC4/CYBLE_eventHandler.c **** * 
1328:Generated_Source\PSoC4/CYBLE_eventHandler.c **** ******************************************************************************/
1329:Generated_Source\PSoC4/CYBLE_eventHandler.c **** static void CyBle_ReadMultipleResponseEventHandler(CYBLE_GATTC_READ_RSP_PARAM_T *eventParam)
1330:Generated_Source\PSoC4/CYBLE_eventHandler.c **** {
1331:Generated_Source\PSoC4/CYBLE_eventHandler.c **** #ifdef CYBLE_CUSTOM_CLIENT
1332:Generated_Source\PSoC4/CYBLE_eventHandler.c ****     /* Read response with 128-bit included service uuid */
1333:Generated_Source\PSoC4/CYBLE_eventHandler.c ****     if((CYBLE_CLIENT_STATE_INCL_DISCOVERING == CyBle_GetClientState()) &&
1334:Generated_Source\PSoC4/CYBLE_eventHandler.c ****        (cyBle_discInclInfo.inclDefHandle != 0u))
1335:Generated_Source\PSoC4/CYBLE_eventHandler.c ****     {
1336:Generated_Source\PSoC4/CYBLE_eventHandler.c ****         CYBLE_DISC_SRVC128_INFO_T discServInfo;
1337:Generated_Source\PSoC4/CYBLE_eventHandler.c **** 
1338:Generated_Source\PSoC4/CYBLE_eventHandler.c ****         /* Store service range */
1339:Generated_Source\PSoC4/CYBLE_eventHandler.c ****         discServInfo.range = cyBle_discInclInfo.inclHandleRange;
1340:Generated_Source\PSoC4/CYBLE_eventHandler.c ****         (void)memcpy((void *) discServInfo.uuid.uuid128.value, (void *)eventParam->value.val, event
1341:Generated_Source\PSoC4/CYBLE_eventHandler.c ****         CyBle_CustomcDiscoverServiceEventHandler(&discServInfo);
1342:Generated_Source\PSoC4/CYBLE_eventHandler.c ****         
1343:Generated_Source\PSoC4/CYBLE_eventHandler.c ****         /* Re-initiate CyBle_GattcFindIncludedServices function, setting the start
1344:Generated_Source\PSoC4/CYBLE_eventHandler.c ****            handle to the attribute handle which is placed next to the one used in
1345:Generated_Source\PSoC4/CYBLE_eventHandler.c ****            the above step.
1346:Generated_Source\PSoC4/CYBLE_eventHandler.c ****         */
1347:Generated_Source\PSoC4/CYBLE_eventHandler.c ****         discServInfo.range.startHandle = cyBle_discInclInfo.inclDefHandle + 1;
1348:Generated_Source\PSoC4/CYBLE_eventHandler.c ****         discServInfo.range.endHandle = cyBle_serverInfo[cyBle_disCount].range.endHandle;
1349:Generated_Source\PSoC4/CYBLE_eventHandler.c ****         if(discServInfo.range.startHandle <= discServInfo.range.endHandle)
1350:Generated_Source\PSoC4/CYBLE_eventHandler.c ****         {
1351:Generated_Source\PSoC4/CYBLE_eventHandler.c ****             if(CYBLE_ERROR_OK != CyBle_GattcFindIncludedServices(cyBle_connHandle, &discServInfo.ra
1352:Generated_Source\PSoC4/CYBLE_eventHandler.c ****             {
1353:Generated_Source\PSoC4/CYBLE_eventHandler.c ****                 CyBle_ApplCallback(CYBLE_EVT_GATTC_INCL_DISCOVERY_FAILED, NULL);
1354:Generated_Source\PSoC4/CYBLE_eventHandler.c ****                 cyBle_eventHandlerFlag &= (uint8)~CYBLE_AUTO_DISCOVERY;
1355:Generated_Source\PSoC4/CYBLE_eventHandler.c ****             }
1356:Generated_Source\PSoC4/CYBLE_eventHandler.c ****         }
1357:Generated_Source\PSoC4/CYBLE_eventHandler.c ****         else /* Continue discovery of the following service */
1358:Generated_Source\PSoC4/CYBLE_eventHandler.c ****         {
1359:Generated_Source\PSoC4/CYBLE_eventHandler.c ****             CyBle_NextInclDiscovery(CYBLE_DISCOVERY_CONTINUE);
1360:Generated_Source\PSoC4/CYBLE_eventHandler.c ****         }
1361:Generated_Source\PSoC4/CYBLE_eventHandler.c ****         
1362:Generated_Source\PSoC4/CYBLE_eventHandler.c ****         cyBle_eventHandlerFlag &= (uint8)~CYBLE_CALLBACK;
1363:Generated_Source\PSoC4/CYBLE_eventHandler.c ****     #ifdef CYBLE_CUSTOM_CLIENT
1364:Generated_Source\PSoC4/CYBLE_eventHandler.c ****         cyBle_discInclInfo.inclDefHandle = 0u;
1365:Generated_Source\PSoC4/CYBLE_eventHandler.c ****     #endif /* CYBLE_CUSTOM_CLIENT */
1366:Generated_Source\PSoC4/CYBLE_eventHandler.c ****     }
1367:Generated_Source\PSoC4/CYBLE_eventHandler.c **** #endif /* CYBLE_CUSTOM_CLIENT */
1368:Generated_Source\PSoC4/CYBLE_eventHandler.c **** #ifdef CYBLE_IPS_CLIENT
1369:Generated_Source\PSoC4/CYBLE_eventHandler.c ****     if((cyBle_eventHandlerFlag & CYBLE_CALLBACK) != 0u)
1370:Generated_Source\PSoC4/CYBLE_eventHandler.c ****     {
1371:Generated_Source\PSoC4/CYBLE_eventHandler.c ****         CyBle_IpscReadMultipleResponseEventHandler(eventParam);
1372:Generated_Source\PSoC4/CYBLE_eventHandler.c ****     }
1373:Generated_Source\PSoC4/CYBLE_eventHandler.c **** #endif /* CYBLE_IPS_CLIENT */
1374:Generated_Source\PSoC4/CYBLE_eventHandler.c ****     /* MISRA 16.7 violation workaround */
1375:Generated_Source\PSoC4/CYBLE_eventHandler.c ****     eventParam = eventParam;
1376:Generated_Source\PSoC4/CYBLE_eventHandler.c **** }
ARM GAS  C:\Users\LIAMSA~1\AppData\Local\Temp\cc7Yswwd.s 			page 29


1377:Generated_Source\PSoC4/CYBLE_eventHandler.c **** #endif /* CYBLE_GATT_ROLE_CLIENT */
1378:Generated_Source\PSoC4/CYBLE_eventHandler.c **** 
1379:Generated_Source\PSoC4/CYBLE_eventHandler.c **** 
1380:Generated_Source\PSoC4/CYBLE_eventHandler.c **** /****************************************************************************** 
1381:Generated_Source\PSoC4/CYBLE_eventHandler.c **** * Function Name: CyBle_DisconnectEventHandler
1382:Generated_Source\PSoC4/CYBLE_eventHandler.c **** ***************************************************************************//**
1383:Generated_Source\PSoC4/CYBLE_eventHandler.c **** * 
1384:Generated_Source\PSoC4/CYBLE_eventHandler.c **** *  Handles the GATT Disconnection event from the BLE stack.
1385:Generated_Source\PSoC4/CYBLE_eventHandler.c **** * 
1386:Generated_Source\PSoC4/CYBLE_eventHandler.c **** * \return
1387:Generated_Source\PSoC4/CYBLE_eventHandler.c **** *  None
1388:Generated_Source\PSoC4/CYBLE_eventHandler.c **** * 
1389:Generated_Source\PSoC4/CYBLE_eventHandler.c **** ******************************************************************************/
1390:Generated_Source\PSoC4/CYBLE_eventHandler.c **** static void CyBle_GattDisconnectEventHandler(void)
1391:Generated_Source\PSoC4/CYBLE_eventHandler.c **** {
 220              		.loc 1 1391 0
 221              		.cfi_startproc
 222              		@ args = 0, pretend = 0, frame = 0
 223              		@ frame_needed = 1, uses_anonymous_args = 0
 224 0000 80B5     		push	{r7, lr}
 225              		.cfi_def_cfa_offset 8
 226              		.cfi_offset 7, -8
 227              		.cfi_offset 14, -4
 228 0002 00AF     		add	r7, sp, #0
 229              		.cfi_def_cfa_register 7
1392:Generated_Source\PSoC4/CYBLE_eventHandler.c ****     cyBle_connHandle.attId = 0u;
 230              		.loc 1 1392 0
 231 0004 044B     		ldr	r3, .L11
 232 0006 0022     		movs	r2, #0
 233 0008 5A70     		strb	r2, [r3, #1]
1393:Generated_Source\PSoC4/CYBLE_eventHandler.c ****     cyBle_connHandle.bdHandle = 0u;
 234              		.loc 1 1393 0
 235 000a 034B     		ldr	r3, .L11
 236 000c 0022     		movs	r2, #0
 237 000e 1A70     		strb	r2, [r3]
1394:Generated_Source\PSoC4/CYBLE_eventHandler.c ****     
1395:Generated_Source\PSoC4/CYBLE_eventHandler.c ****     #if (CYBLE_GATT_ROLE_CLIENT)
1396:Generated_Source\PSoC4/CYBLE_eventHandler.c ****         if(CyBle_GetClientState() == CYBLE_CLIENT_STATE_DISCOVERED)
1397:Generated_Source\PSoC4/CYBLE_eventHandler.c ****         {
1398:Generated_Source\PSoC4/CYBLE_eventHandler.c ****             CyBle_SetClientState(CYBLE_CLIENT_STATE_DISCONNECTED_DISCOVERED);
1399:Generated_Source\PSoC4/CYBLE_eventHandler.c ****         }
1400:Generated_Source\PSoC4/CYBLE_eventHandler.c ****         else
1401:Generated_Source\PSoC4/CYBLE_eventHandler.c ****         {
1402:Generated_Source\PSoC4/CYBLE_eventHandler.c ****             CyBle_SetClientState(CYBLE_CLIENT_STATE_DISCONNECTED);
1403:Generated_Source\PSoC4/CYBLE_eventHandler.c ****         }
1404:Generated_Source\PSoC4/CYBLE_eventHandler.c ****     #endif /* CYBLE_GATT_ROLE_CLIENT */
1405:Generated_Source\PSoC4/CYBLE_eventHandler.c ****         
1406:Generated_Source\PSoC4/CYBLE_eventHandler.c ****     #ifdef CYBLE_CPS_SERVER
1407:Generated_Source\PSoC4/CYBLE_eventHandler.c ****         #if CYBLE_GAP_ROLE_BROADCASTER
1408:Generated_Source\PSoC4/CYBLE_eventHandler.c ****             CyBle_CpssDisconnectEventHandler();
1409:Generated_Source\PSoC4/CYBLE_eventHandler.c ****         #endif /* CYBLE_GAP_ROLE_BROADCASTER */
1410:Generated_Source\PSoC4/CYBLE_eventHandler.c ****     #endif /* CYBLE_CPS_SERVER */
1411:Generated_Source\PSoC4/CYBLE_eventHandler.c **** 
1412:Generated_Source\PSoC4/CYBLE_eventHandler.c ****     #ifdef CYBLE_CPS_CLIENT
1413:Generated_Source\PSoC4/CYBLE_eventHandler.c ****         CyBle_CpscDisconnectEventHandler();
1414:Generated_Source\PSoC4/CYBLE_eventHandler.c ****     #endif /* CYBLE_CPS_CLIENT */
1415:Generated_Source\PSoC4/CYBLE_eventHandler.c **** 
ARM GAS  C:\Users\LIAMSA~1\AppData\Local\Temp\cc7Yswwd.s 			page 30


1416:Generated_Source\PSoC4/CYBLE_eventHandler.c ****     #ifdef CYBLE_IAS_SERVER
1417:Generated_Source\PSoC4/CYBLE_eventHandler.c ****         CyBle_IassDisconnectEventHandler();
1418:Generated_Source\PSoC4/CYBLE_eventHandler.c ****     #endif /* CYBLE_IAS_SERVER */
1419:Generated_Source\PSoC4/CYBLE_eventHandler.c ****     
1420:Generated_Source\PSoC4/CYBLE_eventHandler.c ****     #ifdef CYBLE_GLS_SERVER
1421:Generated_Source\PSoC4/CYBLE_eventHandler.c ****         CyBle_GlsInit();
1422:Generated_Source\PSoC4/CYBLE_eventHandler.c ****     #endif /* CYBLE_GLS_SERVER */
1423:Generated_Source\PSoC4/CYBLE_eventHandler.c ****     
1424:Generated_Source\PSoC4/CYBLE_eventHandler.c ****     #ifdef CYBLE_LNS_SERVER
1425:Generated_Source\PSoC4/CYBLE_eventHandler.c ****         CyBle_LnsInit();
1426:Generated_Source\PSoC4/CYBLE_eventHandler.c ****     #endif /* CYBLE_LNS_SERVER */
1427:Generated_Source\PSoC4/CYBLE_eventHandler.c ****     
1428:Generated_Source\PSoC4/CYBLE_eventHandler.c ****     #ifdef CYBLE_UDS_SERVER
1429:Generated_Source\PSoC4/CYBLE_eventHandler.c ****         CyBle_UdsInit();
1430:Generated_Source\PSoC4/CYBLE_eventHandler.c ****     #endif /* CYBLE_UDS_SERVER */
1431:Generated_Source\PSoC4/CYBLE_eventHandler.c **** }
 238              		.loc 1 1431 0
 239 0010 C046     		nop
 240 0012 BD46     		mov	sp, r7
 241              		@ sp needed
 242 0014 80BD     		pop	{r7, pc}
 243              	.L12:
 244 0016 C046     		.align	2
 245              	.L11:
 246 0018 00000000 		.word	cyBle_connHandle
 247              		.cfi_endproc
 248              	.LFE4:
 249              		.size	CyBle_GattDisconnectEventHandler, .-CyBle_GattDisconnectEventHandler
 250              		.section	.text.CyBle_TimeOutEventHandler,"ax",%progbits
 251              		.align	2
 252              		.code	16
 253              		.thumb_func
 254              		.type	CyBle_TimeOutEventHandler, %function
 255              	CyBle_TimeOutEventHandler:
 256              	.LFB5:
1432:Generated_Source\PSoC4/CYBLE_eventHandler.c **** 
1433:Generated_Source\PSoC4/CYBLE_eventHandler.c **** 
1434:Generated_Source\PSoC4/CYBLE_eventHandler.c **** /****************************************************************************** 
1435:Generated_Source\PSoC4/CYBLE_eventHandler.c **** * Function Name: CyBle_TimeOutEventHandler
1436:Generated_Source\PSoC4/CYBLE_eventHandler.c **** ***************************************************************************//**
1437:Generated_Source\PSoC4/CYBLE_eventHandler.c **** * 
1438:Generated_Source\PSoC4/CYBLE_eventHandler.c **** *  Handles the CYBLE_EVT_TIMEOUT event from the BLE stack.
1439:Generated_Source\PSoC4/CYBLE_eventHandler.c **** * 
1440:Generated_Source\PSoC4/CYBLE_eventHandler.c **** *  \param eventParam: The pointer to a structure of type CYBLE_TO_REASON_CODE_T.
1441:Generated_Source\PSoC4/CYBLE_eventHandler.c **** * 
1442:Generated_Source\PSoC4/CYBLE_eventHandler.c **** * \return
1443:Generated_Source\PSoC4/CYBLE_eventHandler.c **** *  None
1444:Generated_Source\PSoC4/CYBLE_eventHandler.c **** * 
1445:Generated_Source\PSoC4/CYBLE_eventHandler.c **** ******************************************************************************/
1446:Generated_Source\PSoC4/CYBLE_eventHandler.c **** static void CyBle_TimeOutEventHandler(const CYBLE_TO_REASON_CODE_T *eventParam)
1447:Generated_Source\PSoC4/CYBLE_eventHandler.c **** {
 257              		.loc 1 1447 0
 258              		.cfi_startproc
 259              		@ args = 0, pretend = 0, frame = 8
 260              		@ frame_needed = 1, uses_anonymous_args = 0
 261 0000 80B5     		push	{r7, lr}
 262              		.cfi_def_cfa_offset 8
ARM GAS  C:\Users\LIAMSA~1\AppData\Local\Temp\cc7Yswwd.s 			page 31


 263              		.cfi_offset 7, -8
 264              		.cfi_offset 14, -4
 265 0002 82B0     		sub	sp, sp, #8
 266              		.cfi_def_cfa_offset 16
 267 0004 00AF     		add	r7, sp, #0
 268              		.cfi_def_cfa_register 7
 269 0006 7860     		str	r0, [r7, #4]
1448:Generated_Source\PSoC4/CYBLE_eventHandler.c ****     if(*eventParam == CYBLE_GATT_RSP_TO)
1449:Generated_Source\PSoC4/CYBLE_eventHandler.c ****     {
1450:Generated_Source\PSoC4/CYBLE_eventHandler.c ****     #if (CYBLE_GATT_ROLE_CLIENT)
1451:Generated_Source\PSoC4/CYBLE_eventHandler.c ****         if((cyBle_eventHandlerFlag & CYBLE_AUTO_DISCOVERY) != 0u)
1452:Generated_Source\PSoC4/CYBLE_eventHandler.c ****         {
1453:Generated_Source\PSoC4/CYBLE_eventHandler.c ****             switch(CyBle_GetClientState())
1454:Generated_Source\PSoC4/CYBLE_eventHandler.c ****             {
1455:Generated_Source\PSoC4/CYBLE_eventHandler.c ****                 case CYBLE_CLIENT_STATE_SRVC_DISCOVERING:
1456:Generated_Source\PSoC4/CYBLE_eventHandler.c ****                     CyBle_ApplCallback(CYBLE_EVT_GATTC_SRVC_DISCOVERY_FAILED, NULL);
1457:Generated_Source\PSoC4/CYBLE_eventHandler.c ****                     break;
1458:Generated_Source\PSoC4/CYBLE_eventHandler.c ****                 case CYBLE_CLIENT_STATE_INCL_DISCOVERING:
1459:Generated_Source\PSoC4/CYBLE_eventHandler.c ****                     CyBle_ApplCallback(CYBLE_EVT_GATTC_INCL_DISCOVERY_FAILED, NULL);
1460:Generated_Source\PSoC4/CYBLE_eventHandler.c ****                     break;
1461:Generated_Source\PSoC4/CYBLE_eventHandler.c ****                 case CYBLE_CLIENT_STATE_CHAR_DISCOVERING:
1462:Generated_Source\PSoC4/CYBLE_eventHandler.c ****                     CyBle_ApplCallback(CYBLE_EVT_GATTC_CHAR_DISCOVERY_FAILED, NULL);
1463:Generated_Source\PSoC4/CYBLE_eventHandler.c ****                     break;
1464:Generated_Source\PSoC4/CYBLE_eventHandler.c ****                 case CYBLE_CLIENT_STATE_DESCR_DISCOVERING:
1465:Generated_Source\PSoC4/CYBLE_eventHandler.c ****                     CyBle_ApplCallback(CYBLE_EVT_GATTC_DESCR_DISCOVERY_FAILED, NULL);
1466:Generated_Source\PSoC4/CYBLE_eventHandler.c ****                     break;
1467:Generated_Source\PSoC4/CYBLE_eventHandler.c ****                 default:        /* Other states should not be set in Auto discovery mode */
1468:Generated_Source\PSoC4/CYBLE_eventHandler.c ****                     break;
1469:Generated_Source\PSoC4/CYBLE_eventHandler.c ****             }
1470:Generated_Source\PSoC4/CYBLE_eventHandler.c ****             cyBle_eventHandlerFlag &= (uint8)~CYBLE_AUTO_DISCOVERY;
1471:Generated_Source\PSoC4/CYBLE_eventHandler.c ****             CyBle_SetClientState(CYBLE_CLIENT_STATE_CONNECTED);
1472:Generated_Source\PSoC4/CYBLE_eventHandler.c ****         }
1473:Generated_Source\PSoC4/CYBLE_eventHandler.c ****     #endif /* CYBLE_GATT_ROLE_CLIENT */
1474:Generated_Source\PSoC4/CYBLE_eventHandler.c ****     #ifdef CYBLE_CPS_SERVER
1475:Generated_Source\PSoC4/CYBLE_eventHandler.c ****         CyBle_CpssTimeOutEventHandler();
1476:Generated_Source\PSoC4/CYBLE_eventHandler.c ****     #endif /* CYBLE_CPS_SERVER */
1477:Generated_Source\PSoC4/CYBLE_eventHandler.c ****     }
1478:Generated_Source\PSoC4/CYBLE_eventHandler.c ****     
1479:Generated_Source\PSoC4/CYBLE_eventHandler.c ****     /* Connection procedure timeout */
1480:Generated_Source\PSoC4/CYBLE_eventHandler.c ****     if(*eventParam == CYBLE_GENERIC_TO)
1481:Generated_Source\PSoC4/CYBLE_eventHandler.c ****     {
1482:Generated_Source\PSoC4/CYBLE_eventHandler.c ****     #if(CYBLE_GAP_ROLE_CENTRAL)
1483:Generated_Source\PSoC4/CYBLE_eventHandler.c ****         if(CyBle_GetState() == CYBLE_STATE_CONNECTING)
1484:Generated_Source\PSoC4/CYBLE_eventHandler.c ****         {
1485:Generated_Source\PSoC4/CYBLE_eventHandler.c ****             (void)CyBle_GapcCancelDeviceConnection();
1486:Generated_Source\PSoC4/CYBLE_eventHandler.c ****         }
1487:Generated_Source\PSoC4/CYBLE_eventHandler.c ****     #endif /* CYBLE_GAP_ROLE_CENTRAL */
1488:Generated_Source\PSoC4/CYBLE_eventHandler.c ****     }
1489:Generated_Source\PSoC4/CYBLE_eventHandler.c **** }
 270              		.loc 1 1489 0
 271 0008 C046     		nop
 272 000a BD46     		mov	sp, r7
 273 000c 02B0     		add	sp, sp, #8
 274              		@ sp needed
 275 000e 80BD     		pop	{r7, pc}
 276              		.cfi_endproc
 277              	.LFE5:
ARM GAS  C:\Users\LIAMSA~1\AppData\Local\Temp\cc7Yswwd.s 			page 32


 278              		.size	CyBle_TimeOutEventHandler, .-CyBle_TimeOutEventHandler
 279              		.section	.text.CyBle_GattConnectReqHandler,"ax",%progbits
 280              		.align	2
 281              		.code	16
 282              		.thumb_func
 283              		.type	CyBle_GattConnectReqHandler, %function
 284              	CyBle_GattConnectReqHandler:
 285              	.LFB6:
1490:Generated_Source\PSoC4/CYBLE_eventHandler.c **** 
1491:Generated_Source\PSoC4/CYBLE_eventHandler.c **** 
1492:Generated_Source\PSoC4/CYBLE_eventHandler.c **** /****************************************************************************** 
1493:Generated_Source\PSoC4/CYBLE_eventHandler.c **** * Function Name: CyBle_GattConnectReqHandler
1494:Generated_Source\PSoC4/CYBLE_eventHandler.c **** ***************************************************************************//**
1495:Generated_Source\PSoC4/CYBLE_eventHandler.c **** * 
1496:Generated_Source\PSoC4/CYBLE_eventHandler.c **** *  Handles the GATT connect event from the BLE stack.
1497:Generated_Source\PSoC4/CYBLE_eventHandler.c **** * 
1498:Generated_Source\PSoC4/CYBLE_eventHandler.c **** * \return
1499:Generated_Source\PSoC4/CYBLE_eventHandler.c **** *  None
1500:Generated_Source\PSoC4/CYBLE_eventHandler.c **** * 
1501:Generated_Source\PSoC4/CYBLE_eventHandler.c **** ******************************************************************************/
1502:Generated_Source\PSoC4/CYBLE_eventHandler.c **** static void CyBle_GattConnectReqHandler(void)
1503:Generated_Source\PSoC4/CYBLE_eventHandler.c **** {
 286              		.loc 1 1503 0
 287              		.cfi_startproc
 288              		@ args = 0, pretend = 0, frame = 0
 289              		@ frame_needed = 1, uses_anonymous_args = 0
 290 0000 80B5     		push	{r7, lr}
 291              		.cfi_def_cfa_offset 8
 292              		.cfi_offset 7, -8
 293              		.cfi_offset 14, -4
 294 0002 00AF     		add	r7, sp, #0
 295              		.cfi_def_cfa_register 7
1504:Generated_Source\PSoC4/CYBLE_eventHandler.c ****     #ifdef CYBLE_CGMS_SERVER
1505:Generated_Source\PSoC4/CYBLE_eventHandler.c ****         CyBle_CgmsInit();
1506:Generated_Source\PSoC4/CYBLE_eventHandler.c ****     #endif /* CYBLE_CGMS_SERVER */
1507:Generated_Source\PSoC4/CYBLE_eventHandler.c ****     
1508:Generated_Source\PSoC4/CYBLE_eventHandler.c ****     #ifdef CYBLE_CPS_SERVER
1509:Generated_Source\PSoC4/CYBLE_eventHandler.c ****         CyBle_CpssConnectEventHandler();
1510:Generated_Source\PSoC4/CYBLE_eventHandler.c ****     #endif /* CYBLE_CPS_SERVER */
1511:Generated_Source\PSoC4/CYBLE_eventHandler.c ****     
1512:Generated_Source\PSoC4/CYBLE_eventHandler.c ****     #ifdef CYBLE_CSCS_SERVER
1513:Generated_Source\PSoC4/CYBLE_eventHandler.c ****             CyBle_CscsInit();
1514:Generated_Source\PSoC4/CYBLE_eventHandler.c ****     #endif /* CYBLE_CSCS_SERVER */
1515:Generated_Source\PSoC4/CYBLE_eventHandler.c ****     
1516:Generated_Source\PSoC4/CYBLE_eventHandler.c ****     #ifdef CYBLE_LLS_SERVER
1517:Generated_Source\PSoC4/CYBLE_eventHandler.c ****         CyBle_LlssConnectEventHandler();
 296              		.loc 1 1517 0
 297 0004 FFF7FEFF 		bl	CyBle_LlssConnectEventHandler
1518:Generated_Source\PSoC4/CYBLE_eventHandler.c ****     #endif /* CYBLE_LLS_SERVER */
1519:Generated_Source\PSoC4/CYBLE_eventHandler.c ****     
1520:Generated_Source\PSoC4/CYBLE_eventHandler.c ****     #ifdef CYBLE_HIDS_SERVER
1521:Generated_Source\PSoC4/CYBLE_eventHandler.c ****         CyBle_HidssOnDeviceConnected();
1522:Generated_Source\PSoC4/CYBLE_eventHandler.c ****     #endif /* CYBLE_HIDS_SERVER */
1523:Generated_Source\PSoC4/CYBLE_eventHandler.c **** 
1524:Generated_Source\PSoC4/CYBLE_eventHandler.c ****     #ifdef CYBLE_RSCS_SERVER
1525:Generated_Source\PSoC4/CYBLE_eventHandler.c ****         CyBle_RscsInit();
1526:Generated_Source\PSoC4/CYBLE_eventHandler.c ****     #endif /* CYBLE_RSCS_SERVER */
ARM GAS  C:\Users\LIAMSA~1\AppData\Local\Temp\cc7Yswwd.s 			page 33


1527:Generated_Source\PSoC4/CYBLE_eventHandler.c **** }
 298              		.loc 1 1527 0
 299 0008 C046     		nop
 300 000a BD46     		mov	sp, r7
 301              		@ sp needed
 302 000c 80BD     		pop	{r7, pc}
 303              		.cfi_endproc
 304              	.LFE6:
 305              		.size	CyBle_GattConnectReqHandler, .-CyBle_GattConnectReqHandler
 306 000e C046     		.section	.text.CyBle_IsDeviceAddressValid,"ax",%progbits
 307              		.align	2
 308              		.global	CyBle_IsDeviceAddressValid
 309              		.code	16
 310              		.thumb_func
 311              		.type	CyBle_IsDeviceAddressValid, %function
 312              	CyBle_IsDeviceAddressValid:
 313              	.LFB7:
1528:Generated_Source\PSoC4/CYBLE_eventHandler.c **** 
1529:Generated_Source\PSoC4/CYBLE_eventHandler.c **** 
1530:Generated_Source\PSoC4/CYBLE_eventHandler.c **** #if (CYBLE_GATT_ROLE_SERVER || CYBLE_GATT_ROLE_CLIENT)
1531:Generated_Source\PSoC4/CYBLE_eventHandler.c **** 
1532:Generated_Source\PSoC4/CYBLE_eventHandler.c **** /****************************************************************************** 
1533:Generated_Source\PSoC4/CYBLE_eventHandler.c **** * Function Name: CyBle_IsDeviceAddressValid
1534:Generated_Source\PSoC4/CYBLE_eventHandler.c **** ***************************************************************************//**
1535:Generated_Source\PSoC4/CYBLE_eventHandler.c **** * 
1536:Generated_Source\PSoC4/CYBLE_eventHandler.c **** *  This function verifies that BLE public address has been programmed to SFLASH 
1537:Generated_Source\PSoC4/CYBLE_eventHandler.c **** *  during manufacture. It could be used to verify if public device address is 
1538:Generated_Source\PSoC4/CYBLE_eventHandler.c **** *  programmed to flash memory.
1539:Generated_Source\PSoC4/CYBLE_eventHandler.c **** * 
1540:Generated_Source\PSoC4/CYBLE_eventHandler.c **** *  \param deviceAddress: the pointer to the BD address of type CYBLE_GAP_BD_ADDR_T. 
1541:Generated_Source\PSoC4/CYBLE_eventHandler.c **** * 
1542:Generated_Source\PSoC4/CYBLE_eventHandler.c **** * \return
1543:Generated_Source\PSoC4/CYBLE_eventHandler.c **** *  Non zero value when a device address differs from the default SFLASH content.
1544:Generated_Source\PSoC4/CYBLE_eventHandler.c **** * 
1545:Generated_Source\PSoC4/CYBLE_eventHandler.c **** ******************************************************************************/
1546:Generated_Source\PSoC4/CYBLE_eventHandler.c **** uint8 CyBle_IsDeviceAddressValid(const CYBLE_GAP_BD_ADDR_T *deviceAddress)
1547:Generated_Source\PSoC4/CYBLE_eventHandler.c **** {
 314              		.loc 1 1547 0
 315              		.cfi_startproc
 316              		@ args = 0, pretend = 0, frame = 16
 317              		@ frame_needed = 1, uses_anonymous_args = 0
 318 0000 80B5     		push	{r7, lr}
 319              		.cfi_def_cfa_offset 8
 320              		.cfi_offset 7, -8
 321              		.cfi_offset 14, -4
 322 0002 84B0     		sub	sp, sp, #16
 323              		.cfi_def_cfa_offset 24
 324 0004 00AF     		add	r7, sp, #0
 325              		.cfi_def_cfa_register 7
 326 0006 7860     		str	r0, [r7, #4]
1548:Generated_Source\PSoC4/CYBLE_eventHandler.c ****     uint8 i;
1549:Generated_Source\PSoC4/CYBLE_eventHandler.c ****     uint8 addressValid = 0u;
 327              		.loc 1 1549 0
 328 0008 0E23     		movs	r3, #14
 329 000a FB18     		adds	r3, r7, r3
 330 000c 0022     		movs	r2, #0
 331 000e 1A70     		strb	r2, [r3]
ARM GAS  C:\Users\LIAMSA~1\AppData\Local\Temp\cc7Yswwd.s 			page 34


1550:Generated_Source\PSoC4/CYBLE_eventHandler.c ****     
1551:Generated_Source\PSoC4/CYBLE_eventHandler.c ****     if(deviceAddress -> type == CYBLE_GAP_ADDR_TYPE_PUBLIC)  
 332              		.loc 1 1551 0
 333 0010 7B68     		ldr	r3, [r7, #4]
 334 0012 9B79     		ldrb	r3, [r3, #6]
 335 0014 002B     		cmp	r3, #0
 336 0016 1CD1     		bne	.L16
1552:Generated_Source\PSoC4/CYBLE_eventHandler.c ****     {
1553:Generated_Source\PSoC4/CYBLE_eventHandler.c ****         for(i = 0u; i < CYBLE_GAP_BD_ADDR_SIZE; i++)
 337              		.loc 1 1553 0
 338 0018 0F23     		movs	r3, #15
 339 001a FB18     		adds	r3, r7, r3
 340 001c 0022     		movs	r2, #0
 341 001e 1A70     		strb	r2, [r3]
 342 0020 12E0     		b	.L17
 343              	.L19:
1554:Generated_Source\PSoC4/CYBLE_eventHandler.c ****         {
1555:Generated_Source\PSoC4/CYBLE_eventHandler.c ****             if(deviceAddress->bdAddr[i] != 0u)
 344              		.loc 1 1555 0
 345 0022 0F23     		movs	r3, #15
 346 0024 FB18     		adds	r3, r7, r3
 347 0026 1B78     		ldrb	r3, [r3]
 348 0028 7A68     		ldr	r2, [r7, #4]
 349 002a D35C     		ldrb	r3, [r2, r3]
 350 002c 002B     		cmp	r3, #0
 351 002e 04D0     		beq	.L18
1556:Generated_Source\PSoC4/CYBLE_eventHandler.c ****             {
1557:Generated_Source\PSoC4/CYBLE_eventHandler.c ****                 addressValid = 1u;
 352              		.loc 1 1557 0
 353 0030 0E23     		movs	r3, #14
 354 0032 FB18     		adds	r3, r7, r3
 355 0034 0122     		movs	r2, #1
 356 0036 1A70     		strb	r2, [r3]
1558:Generated_Source\PSoC4/CYBLE_eventHandler.c ****                 break;
 357              		.loc 1 1558 0
 358 0038 0BE0     		b	.L16
 359              	.L18:
1553:Generated_Source\PSoC4/CYBLE_eventHandler.c ****         {
 360              		.loc 1 1553 0 discriminator 2
 361 003a 0F23     		movs	r3, #15
 362 003c FB18     		adds	r3, r7, r3
 363 003e 1A78     		ldrb	r2, [r3]
 364 0040 0F23     		movs	r3, #15
 365 0042 FB18     		adds	r3, r7, r3
 366 0044 0132     		adds	r2, r2, #1
 367 0046 1A70     		strb	r2, [r3]
 368              	.L17:
1553:Generated_Source\PSoC4/CYBLE_eventHandler.c ****         {
 369              		.loc 1 1553 0 is_stmt 0 discriminator 1
 370 0048 0F23     		movs	r3, #15
 371 004a FB18     		adds	r3, r7, r3
 372 004c 1B78     		ldrb	r3, [r3]
 373 004e 052B     		cmp	r3, #5
 374 0050 E7D9     		bls	.L19
 375              	.L16:
1559:Generated_Source\PSoC4/CYBLE_eventHandler.c ****             }
1560:Generated_Source\PSoC4/CYBLE_eventHandler.c ****         }
ARM GAS  C:\Users\LIAMSA~1\AppData\Local\Temp\cc7Yswwd.s 			page 35


1561:Generated_Source\PSoC4/CYBLE_eventHandler.c ****     }
1562:Generated_Source\PSoC4/CYBLE_eventHandler.c ****     return (addressValid);
 376              		.loc 1 1562 0 is_stmt 1
 377 0052 0E23     		movs	r3, #14
 378 0054 FB18     		adds	r3, r7, r3
 379 0056 1B78     		ldrb	r3, [r3]
1563:Generated_Source\PSoC4/CYBLE_eventHandler.c **** }
 380              		.loc 1 1563 0
 381 0058 1800     		movs	r0, r3
 382 005a BD46     		mov	sp, r7
 383 005c 04B0     		add	sp, sp, #16
 384              		@ sp needed
 385 005e 80BD     		pop	{r7, pc}
 386              		.cfi_endproc
 387              	.LFE7:
 388              		.size	CyBle_IsDeviceAddressValid, .-CyBle_IsDeviceAddressValid
 389              		.section	.text.CyBle_L2Cap_ConnParamUpdateRspEventHandler,"ax",%progbits
 390              		.align	2
 391              		.code	16
 392              		.thumb_func
 393              		.type	CyBle_L2Cap_ConnParamUpdateRspEventHandler, %function
 394              	CyBle_L2Cap_ConnParamUpdateRspEventHandler:
 395              	.LFB8:
1564:Generated_Source\PSoC4/CYBLE_eventHandler.c **** #endif /* CYBLE_GATT_ROLE_SERVER || CYBLE_GATT_ROLE_CLIENT */
1565:Generated_Source\PSoC4/CYBLE_eventHandler.c **** 
1566:Generated_Source\PSoC4/CYBLE_eventHandler.c **** 
1567:Generated_Source\PSoC4/CYBLE_eventHandler.c **** /****************************************************************************** 
1568:Generated_Source\PSoC4/CYBLE_eventHandler.c **** * Function Name: CyBle_L2Cap_ConnParamUpdateRspHandler
1569:Generated_Source\PSoC4/CYBLE_eventHandler.c **** ***************************************************************************//**
1570:Generated_Source\PSoC4/CYBLE_eventHandler.c **** * 
1571:Generated_Source\PSoC4/CYBLE_eventHandler.c **** *  Handles the L2CAP connection parameter response event from
1572:Generated_Source\PSoC4/CYBLE_eventHandler.c **** *  the BLE stack.
1573:Generated_Source\PSoC4/CYBLE_eventHandler.c **** * 
1574:Generated_Source\PSoC4/CYBLE_eventHandler.c **** *  \param response:
1575:Generated_Source\PSoC4/CYBLE_eventHandler.c **** *      * Accepted = 0x0000
1576:Generated_Source\PSoC4/CYBLE_eventHandler.c **** *      * Rejected = 0x0001
1577:Generated_Source\PSoC4/CYBLE_eventHandler.c **** * 
1578:Generated_Source\PSoC4/CYBLE_eventHandler.c **** * \return
1579:Generated_Source\PSoC4/CYBLE_eventHandler.c **** *  None
1580:Generated_Source\PSoC4/CYBLE_eventHandler.c **** * 
1581:Generated_Source\PSoC4/CYBLE_eventHandler.c **** ******************************************************************************/
1582:Generated_Source\PSoC4/CYBLE_eventHandler.c **** static void CyBle_L2Cap_ConnParamUpdateRspEventHandler(uint16 response)
1583:Generated_Source\PSoC4/CYBLE_eventHandler.c **** {
 396              		.loc 1 1583 0
 397              		.cfi_startproc
 398              		@ args = 0, pretend = 0, frame = 8
 399              		@ frame_needed = 1, uses_anonymous_args = 0
 400 0000 80B5     		push	{r7, lr}
 401              		.cfi_def_cfa_offset 8
 402              		.cfi_offset 7, -8
 403              		.cfi_offset 14, -4
 404 0002 82B0     		sub	sp, sp, #8
 405              		.cfi_def_cfa_offset 16
 406 0004 00AF     		add	r7, sp, #0
 407              		.cfi_def_cfa_register 7
 408 0006 0200     		movs	r2, r0
 409 0008 BB1D     		adds	r3, r7, #6
ARM GAS  C:\Users\LIAMSA~1\AppData\Local\Temp\cc7Yswwd.s 			page 36


 410 000a 1A80     		strh	r2, [r3]
1584:Generated_Source\PSoC4/CYBLE_eventHandler.c ****     #ifdef CYBLE_CPS_SERVER
1585:Generated_Source\PSoC4/CYBLE_eventHandler.c ****         CyBle_CpssConnParamUpdateRspEventHandler(response);
1586:Generated_Source\PSoC4/CYBLE_eventHandler.c ****     #endif /* CYBLE_CPS_SERVER */
1587:Generated_Source\PSoC4/CYBLE_eventHandler.c ****     
1588:Generated_Source\PSoC4/CYBLE_eventHandler.c ****     /* Unreferenced variable warning workaround */
1589:Generated_Source\PSoC4/CYBLE_eventHandler.c ****     if(response != 0u)
1590:Generated_Source\PSoC4/CYBLE_eventHandler.c ****     {
1591:Generated_Source\PSoC4/CYBLE_eventHandler.c ****     }
1592:Generated_Source\PSoC4/CYBLE_eventHandler.c **** }
 411              		.loc 1 1592 0
 412 000c C046     		nop
 413 000e BD46     		mov	sp, r7
 414 0010 02B0     		add	sp, sp, #8
 415              		@ sp needed
 416 0012 80BD     		pop	{r7, pc}
 417              		.cfi_endproc
 418              	.LFE8:
 419              		.size	CyBle_L2Cap_ConnParamUpdateRspEventHandler, .-CyBle_L2Cap_ConnParamUpdateRspEventHandler
 420              		.section	.text.CyBle_GapConnUpdateCompleteEventHandler,"ax",%progbits
 421              		.align	2
 422              		.code	16
 423              		.thumb_func
 424              		.type	CyBle_GapConnUpdateCompleteEventHandler, %function
 425              	CyBle_GapConnUpdateCompleteEventHandler:
 426              	.LFB9:
1593:Generated_Source\PSoC4/CYBLE_eventHandler.c **** 
1594:Generated_Source\PSoC4/CYBLE_eventHandler.c **** 
1595:Generated_Source\PSoC4/CYBLE_eventHandler.c **** /****************************************************************************** 
1596:Generated_Source\PSoC4/CYBLE_eventHandler.c **** * Function Name: CyBle_GapConnUpdateCompleteEventHandler
1597:Generated_Source\PSoC4/CYBLE_eventHandler.c **** ***************************************************************************//**
1598:Generated_Source\PSoC4/CYBLE_eventHandler.c **** * 
1599:Generated_Source\PSoC4/CYBLE_eventHandler.c **** *  Handles the CYBLE_EVT_GAP_CONNECTION_UPDATE_COMPLETE event from
1600:Generated_Source\PSoC4/CYBLE_eventHandler.c **** *  the BLE stack.
1601:Generated_Source\PSoC4/CYBLE_eventHandler.c **** * 
1602:Generated_Source\PSoC4/CYBLE_eventHandler.c **** *  \param eventParam: The pointer to the data structure specified by the event.
1603:Generated_Source\PSoC4/CYBLE_eventHandler.c **** * 
1604:Generated_Source\PSoC4/CYBLE_eventHandler.c **** * \return
1605:Generated_Source\PSoC4/CYBLE_eventHandler.c **** *  None
1606:Generated_Source\PSoC4/CYBLE_eventHandler.c **** * 
1607:Generated_Source\PSoC4/CYBLE_eventHandler.c **** ******************************************************************************/
1608:Generated_Source\PSoC4/CYBLE_eventHandler.c **** static void CyBle_GapConnUpdateCompleteEventHandler(const CYBLE_GAP_CONN_PARAM_UPDATED_IN_CONTROLLE
1609:Generated_Source\PSoC4/CYBLE_eventHandler.c **** {
 427              		.loc 1 1609 0
 428              		.cfi_startproc
 429              		@ args = 0, pretend = 0, frame = 8
 430              		@ frame_needed = 1, uses_anonymous_args = 0
 431 0000 80B5     		push	{r7, lr}
 432              		.cfi_def_cfa_offset 8
 433              		.cfi_offset 7, -8
 434              		.cfi_offset 14, -4
 435 0002 82B0     		sub	sp, sp, #8
 436              		.cfi_def_cfa_offset 16
 437 0004 00AF     		add	r7, sp, #0
 438              		.cfi_def_cfa_register 7
 439 0006 7860     		str	r0, [r7, #4]
1610:Generated_Source\PSoC4/CYBLE_eventHandler.c ****     #ifdef CYBLE_CPS_SERVER
ARM GAS  C:\Users\LIAMSA~1\AppData\Local\Temp\cc7Yswwd.s 			page 37


1611:Generated_Source\PSoC4/CYBLE_eventHandler.c ****         CyBle_CpssConnUpdateCompleteEventHandler(eventParam);
1612:Generated_Source\PSoC4/CYBLE_eventHandler.c ****     #endif /* CYBLE_CPS_SERVER */
1613:Generated_Source\PSoC4/CYBLE_eventHandler.c ****     
1614:Generated_Source\PSoC4/CYBLE_eventHandler.c ****     /* Unreferenced variable warning workaround */
1615:Generated_Source\PSoC4/CYBLE_eventHandler.c ****     if(eventParam != 0u)
1616:Generated_Source\PSoC4/CYBLE_eventHandler.c ****     {
1617:Generated_Source\PSoC4/CYBLE_eventHandler.c ****     }
1618:Generated_Source\PSoC4/CYBLE_eventHandler.c **** }
 440              		.loc 1 1618 0
 441 0008 C046     		nop
 442 000a BD46     		mov	sp, r7
 443 000c 02B0     		add	sp, sp, #8
 444              		@ sp needed
 445 000e 80BD     		pop	{r7, pc}
 446              		.cfi_endproc
 447              	.LFE9:
 448              		.size	CyBle_GapConnUpdateCompleteEventHandler, .-CyBle_GapConnUpdateCompleteEventHandler
 449              		.section	.text.CyBle_EventHandler,"ax",%progbits
 450              		.align	2
 451              		.global	CyBle_EventHandler
 452              		.code	16
 453              		.thumb_func
 454              		.type	CyBle_EventHandler, %function
 455              	CyBle_EventHandler:
 456              	.LFB10:
1619:Generated_Source\PSoC4/CYBLE_eventHandler.c **** 
1620:Generated_Source\PSoC4/CYBLE_eventHandler.c **** 
1621:Generated_Source\PSoC4/CYBLE_eventHandler.c **** /****************************************************************************** 
1622:Generated_Source\PSoC4/CYBLE_eventHandler.c **** * Function Name: CyBle_EventHandler
1623:Generated_Source\PSoC4/CYBLE_eventHandler.c **** ***************************************************************************//**
1624:Generated_Source\PSoC4/CYBLE_eventHandler.c **** * 
1625:Generated_Source\PSoC4/CYBLE_eventHandler.c **** *  Handles the events from the BLE stack
1626:Generated_Source\PSoC4/CYBLE_eventHandler.c **** * 
1627:Generated_Source\PSoC4/CYBLE_eventHandler.c **** *  \param eventCode:    the event code
1628:Generated_Source\PSoC4/CYBLE_eventHandler.c **** *  \param eventParam:  the event parameters
1629:Generated_Source\PSoC4/CYBLE_eventHandler.c **** * 
1630:Generated_Source\PSoC4/CYBLE_eventHandler.c **** * \return
1631:Generated_Source\PSoC4/CYBLE_eventHandler.c **** *  None.
1632:Generated_Source\PSoC4/CYBLE_eventHandler.c **** * 
1633:Generated_Source\PSoC4/CYBLE_eventHandler.c **** ******************************************************************************/
1634:Generated_Source\PSoC4/CYBLE_eventHandler.c **** void CyBle_EventHandler(uint8 eventCode, void *eventParam)
1635:Generated_Source\PSoC4/CYBLE_eventHandler.c **** {
 457              		.loc 1 1635 0
 458              		.cfi_startproc
 459              		@ args = 0, pretend = 0, frame = 32
 460              		@ frame_needed = 1, uses_anonymous_args = 0
 461 0000 80B5     		push	{r7, lr}
 462              		.cfi_def_cfa_offset 8
 463              		.cfi_offset 7, -8
 464              		.cfi_offset 14, -4
 465 0002 88B0     		sub	sp, sp, #32
 466              		.cfi_def_cfa_offset 40
 467 0004 00AF     		add	r7, sp, #0
 468              		.cfi_def_cfa_register 7
 469 0006 0200     		movs	r2, r0
 470 0008 3960     		str	r1, [r7]
 471 000a FB1D     		adds	r3, r7, #7
ARM GAS  C:\Users\LIAMSA~1\AppData\Local\Temp\cc7Yswwd.s 			page 38


 472 000c 1A70     		strb	r2, [r3]
1636:Generated_Source\PSoC4/CYBLE_eventHandler.c ****     cyBle_eventHandlerFlag |= CYBLE_CALLBACK;
 473              		.loc 1 1636 0
 474 000e CD4B     		ldr	r3, .L66
 475 0010 1B78     		ldrb	r3, [r3]
 476 0012 DBB2     		uxtb	r3, r3
 477 0014 0122     		movs	r2, #1
 478 0016 1343     		orrs	r3, r2
 479 0018 DAB2     		uxtb	r2, r3
 480 001a CA4B     		ldr	r3, .L66
 481 001c 1A70     		strb	r2, [r3]
1637:Generated_Source\PSoC4/CYBLE_eventHandler.c **** 
1638:Generated_Source\PSoC4/CYBLE_eventHandler.c ****     /* Common Profile event handling */
1639:Generated_Source\PSoC4/CYBLE_eventHandler.c ****     switch(eventCode)
 482              		.loc 1 1639 0
 483 001e FB1D     		adds	r3, r7, #7
 484 0020 1B78     		ldrb	r3, [r3]
 485 0022 712B     		cmp	r3, #113
 486 0024 00D9     		bls	.LCB376
 487 0026 6BE1     		b	.L61	@long jump
 488              	.LCB376:
 489 0028 9A00     		lsls	r2, r3, #2
 490 002a C74B     		ldr	r3, .L66+4
 491 002c D318     		adds	r3, r2, r3
 492 002e 1B68     		ldr	r3, [r3]
 493 0030 9F46     		mov	pc, r3
 494              		.section	.rodata
 495              		.align	2
 496              	.L26:
 497 000c 00030000 		.word	.L61
 498 0010 32000000 		.word	.L25
 499 0014 38010000 		.word	.L27
 500 0018 00030000 		.word	.L61
 501 001c 00030000 		.word	.L61
 502 0020 42010000 		.word	.L28
 503 0024 4C010000 		.word	.L29
 504 0028 00030000 		.word	.L61
 505 002c 00030000 		.word	.L61
 506 0030 00030000 		.word	.L61
 507 0034 00030000 		.word	.L61
 508 0038 00030000 		.word	.L61
 509 003c 00030000 		.word	.L61
 510 0040 00030000 		.word	.L61
 511 0044 00030000 		.word	.L61
 512 0048 00030000 		.word	.L61
 513 004c 00030000 		.word	.L61
 514 0050 00030000 		.word	.L61
 515 0054 00030000 		.word	.L61
 516 0058 00030000 		.word	.L61
 517 005c 00030000 		.word	.L61
 518 0060 00030000 		.word	.L61
 519 0064 00030000 		.word	.L61
 520 0068 00030000 		.word	.L61
 521 006c 00030000 		.word	.L61
 522 0070 00030000 		.word	.L61
 523 0074 00030000 		.word	.L61
 524 0078 00030000 		.word	.L61
ARM GAS  C:\Users\LIAMSA~1\AppData\Local\Temp\cc7Yswwd.s 			page 39


 525 007c 00030000 		.word	.L61
 526 0080 00030000 		.word	.L61
 527 0084 00030000 		.word	.L61
 528 0088 00030000 		.word	.L61
 529 008c 00030000 		.word	.L61
 530 0090 8C010000 		.word	.L30
 531 0094 00030000 		.word	.L61
 532 0098 00030000 		.word	.L61
 533 009c 00030000 		.word	.L61
 534 00a0 00030000 		.word	.L61
 535 00a4 0E020000 		.word	.L32
 536 00a8 F6010000 		.word	.L33
 537 00ac 06020000 		.word	.L34
 538 00b0 00030000 		.word	.L61
 539 00b4 EC010000 		.word	.L35
 540 00b8 00030000 		.word	.L61
 541 00bc 00030000 		.word	.L61
 542 00c0 00030000 		.word	.L61
 543 00c4 00030000 		.word	.L61
 544 00c8 00030000 		.word	.L61
 545 00cc 00030000 		.word	.L61
 546 00d0 00030000 		.word	.L61
 547 00d4 00030000 		.word	.L61
 548 00d8 00030000 		.word	.L61
 549 00dc 00030000 		.word	.L61
 550 00e0 00030000 		.word	.L61
 551 00e4 00030000 		.word	.L61
 552 00e8 00030000 		.word	.L61
 553 00ec 00030000 		.word	.L61
 554 00f0 00030000 		.word	.L61
 555 00f4 00030000 		.word	.L61
 556 00f8 00030000 		.word	.L61
 557 00fc 00030000 		.word	.L61
 558 0100 00030000 		.word	.L61
 559 0104 00030000 		.word	.L61
 560 0108 00030000 		.word	.L61
 561 010c 00030000 		.word	.L61
 562 0110 90020000 		.word	.L36
 563 0114 AC020000 		.word	.L37
 564 0118 B2020000 		.word	.L38
 565 011c 00030000 		.word	.L61
 566 0120 00030000 		.word	.L61
 567 0124 00030000 		.word	.L61
 568 0128 00030000 		.word	.L61
 569 012c 00030000 		.word	.L61
 570 0130 00030000 		.word	.L61
 571 0134 00030000 		.word	.L61
 572 0138 00030000 		.word	.L61
 573 013c EC020000 		.word	.L39
 574 0140 00030000 		.word	.L61
 575 0144 00030000 		.word	.L61
 576 0148 00030000 		.word	.L61
 577 014c 00030000 		.word	.L61
 578 0150 00030000 		.word	.L61
 579 0154 00030000 		.word	.L61
 580 0158 00030000 		.word	.L61
 581 015c F6020000 		.word	.L43
ARM GAS  C:\Users\LIAMSA~1\AppData\Local\Temp\cc7Yswwd.s 			page 40


 582 0160 00030000 		.word	.L61
 583 0164 00030000 		.word	.L61
 584 0168 00030000 		.word	.L61
 585 016c 00030000 		.word	.L61
 586 0170 00030000 		.word	.L61
 587 0174 00030000 		.word	.L61
 588 0178 00030000 		.word	.L61
 589 017c 00030000 		.word	.L61
 590 0180 00030000 		.word	.L61
 591 0184 00030000 		.word	.L61
 592 0188 00030000 		.word	.L61
 593 018c 00030000 		.word	.L61
 594 0190 00030000 		.word	.L61
 595 0194 00030000 		.word	.L61
 596 0198 00030000 		.word	.L61
 597 019c 00030000 		.word	.L61
 598 01a0 00030000 		.word	.L61
 599 01a4 00030000 		.word	.L61
 600 01a8 00030000 		.word	.L61
 601 01ac 00030000 		.word	.L61
 602 01b0 00030000 		.word	.L61
 603 01b4 00030000 		.word	.L61
 604 01b8 00030000 		.word	.L61
 605 01bc 00030000 		.word	.L61
 606 01c0 00030000 		.word	.L61
 607 01c4 00030000 		.word	.L61
 608 01c8 00030000 		.word	.L61
 609 01cc 00030000 		.word	.L61
 610 01d0 84020000 		.word	.L45
 611              		.section	.text.CyBle_EventHandler
 612              	.L25:
 613              	.LBB3:
1640:Generated_Source\PSoC4/CYBLE_eventHandler.c ****     {
1641:Generated_Source\PSoC4/CYBLE_eventHandler.c ****         /**********************************************************
1642:Generated_Source\PSoC4/CYBLE_eventHandler.c ****         * General events
1643:Generated_Source\PSoC4/CYBLE_eventHandler.c ****         ************************************************************/
1644:Generated_Source\PSoC4/CYBLE_eventHandler.c ****         case CYBLE_EVT_STACK_ON:
1645:Generated_Source\PSoC4/CYBLE_eventHandler.c ****         #if(CYBLE_MODE_PROFILE)
1646:Generated_Source\PSoC4/CYBLE_eventHandler.c ****         {
1647:Generated_Source\PSoC4/CYBLE_eventHandler.c ****             CYBLE_BLESS_PWR_IN_DB_T bleSsPowerLevel;
1648:Generated_Source\PSoC4/CYBLE_eventHandler.c ****             
1649:Generated_Source\PSoC4/CYBLE_eventHandler.c ****             /* Set Tx Power Level for advertising and connection channels */
1650:Generated_Source\PSoC4/CYBLE_eventHandler.c ****             bleSsPowerLevel.blePwrLevelInDbm = CYBLE_TX_POWER_LEVEL_ADV;
 614              		.loc 1 1650 0
 615 0032 1023     		movs	r3, #16
 616 0034 FB18     		adds	r3, r7, r3
 617 0036 0722     		movs	r2, #7
 618 0038 1A70     		strb	r2, [r3]
1651:Generated_Source\PSoC4/CYBLE_eventHandler.c ****             bleSsPowerLevel.bleSsChId = CYBLE_LL_ADV_CH_TYPE;
 619              		.loc 1 1651 0
 620 003a 1023     		movs	r3, #16
 621 003c FB18     		adds	r3, r7, r3
 622 003e 0022     		movs	r2, #0
 623 0040 5A70     		strb	r2, [r3, #1]
1652:Generated_Source\PSoC4/CYBLE_eventHandler.c ****             (void) CyBle_SetTxPowerLevel (&bleSsPowerLevel);
 624              		.loc 1 1652 0
 625 0042 1023     		movs	r3, #16
ARM GAS  C:\Users\LIAMSA~1\AppData\Local\Temp\cc7Yswwd.s 			page 41


 626 0044 FB18     		adds	r3, r7, r3
 627 0046 1800     		movs	r0, r3
 628 0048 FFF7FEFF 		bl	CyBle_SetTxPowerLevel
1653:Generated_Source\PSoC4/CYBLE_eventHandler.c ****             bleSsPowerLevel.blePwrLevelInDbm = CYBLE_TX_POWER_LEVEL_CONN;
 629              		.loc 1 1653 0
 630 004c 1023     		movs	r3, #16
 631 004e FB18     		adds	r3, r7, r3
 632 0050 0722     		movs	r2, #7
 633 0052 1A70     		strb	r2, [r3]
1654:Generated_Source\PSoC4/CYBLE_eventHandler.c ****             bleSsPowerLevel.bleSsChId = CYBLE_LL_CONN_CH_TYPE;
 634              		.loc 1 1654 0
 635 0054 1023     		movs	r3, #16
 636 0056 FB18     		adds	r3, r7, r3
 637 0058 0122     		movs	r2, #1
 638 005a 5A70     		strb	r2, [r3, #1]
1655:Generated_Source\PSoC4/CYBLE_eventHandler.c ****             (void) CyBle_SetTxPowerLevel (&bleSsPowerLevel);
 639              		.loc 1 1655 0
 640 005c 1023     		movs	r3, #16
 641 005e FB18     		adds	r3, r7, r3
 642 0060 1800     		movs	r0, r3
 643 0062 FFF7FEFF 		bl	CyBle_SetTxPowerLevel
1656:Generated_Source\PSoC4/CYBLE_eventHandler.c ****             
1657:Generated_Source\PSoC4/CYBLE_eventHandler.c ****             #if (CYBLE_GATT_ROLE_SERVER)
1658:Generated_Source\PSoC4/CYBLE_eventHandler.c ****                 /* As per Privacy Errata a call to CyBle_EnableDefaultDevicePrivacy() is
1659:Generated_Source\PSoC4/CYBLE_eventHandler.c ****                   required to set a device to use device privacy instead of network privacy
1660:Generated_Source\PSoC4/CYBLE_eventHandler.c ****                   that is enabled by default starting from BLE Stack 3.3.
1661:Generated_Source\PSoC4/CYBLE_eventHandler.c ****                 */
1662:Generated_Source\PSoC4/CYBLE_eventHandler.c ****                 if(cyBle_gaps.rpaOnlyCharHandle != CYBLE_GATT_INVALID_ATTR_HANDLE_VALUE)
 644              		.loc 1 1662 0
 645 0066 0023     		movs	r3, #0
 646 0068 002B     		cmp	r3, #0
 647 006a 01D0     		beq	.L46
1663:Generated_Source\PSoC4/CYBLE_eventHandler.c ****                 {
1664:Generated_Source\PSoC4/CYBLE_eventHandler.c ****                     CyBle_EnableDefaultDevicePrivacy();
 648              		.loc 1 1664 0
 649 006c FFF7FEFF 		bl	CyBle_EnableDefaultDevicePrivacy
 650              	.L46:
 651              	.LBE3:
1665:Generated_Source\PSoC4/CYBLE_eventHandler.c ****                 }
1666:Generated_Source\PSoC4/CYBLE_eventHandler.c ****             #endif /* (CYBLE_GATT_ROLE_SERVER) */
1667:Generated_Source\PSoC4/CYBLE_eventHandler.c ****             
1668:Generated_Source\PSoC4/CYBLE_eventHandler.c ****             #if (CYBLE_STRICT_PAIRING_ENABLED)
1669:Generated_Source\PSoC4/CYBLE_eventHandler.c ****                 (void) CyBle_GapSetSecurityRequirements(CYBLE_STRICT_PAIRING_REQ_VALUE, CYBLE_SECUR
1670:Generated_Source\PSoC4/CYBLE_eventHandler.c ****             #endif /* (CYBLE_STRICT_PAIRING_ENABLED) */
1671:Generated_Source\PSoC4/CYBLE_eventHandler.c ****             
1672:Generated_Source\PSoC4/CYBLE_eventHandler.c ****         }
1673:Generated_Source\PSoC4/CYBLE_eventHandler.c ****         #endif /* CYBLE_MODE_PROFILE */
1674:Generated_Source\PSoC4/CYBLE_eventHandler.c ****         #if (CYBLE_GATT_ROLE_SERVER || CYBLE_GATT_ROLE_CLIENT)
1675:Generated_Source\PSoC4/CYBLE_eventHandler.c ****             /* Set device Address  */
1676:Generated_Source\PSoC4/CYBLE_eventHandler.c ****             if(CyBle_IsDeviceAddressValid(cyBle_sflashDeviceAddress) != 0u)
 652              		.loc 1 1676 0
 653 0070 B64B     		ldr	r3, .L66+8
 654 0072 1B68     		ldr	r3, [r3]
 655 0074 1800     		movs	r0, r3
 656 0076 FFF7FEFF 		bl	CyBle_IsDeviceAddressValid
 657 007a 031E     		subs	r3, r0, #0
 658 007c 11D0     		beq	.L47
ARM GAS  C:\Users\LIAMSA~1\AppData\Local\Temp\cc7Yswwd.s 			page 42


1677:Generated_Source\PSoC4/CYBLE_eventHandler.c ****             {
1678:Generated_Source\PSoC4/CYBLE_eventHandler.c ****                 (void) CyBle_SetDeviceAddress(cyBle_sflashDeviceAddress);
 659              		.loc 1 1678 0
 660 007e B34B     		ldr	r3, .L66+8
 661 0080 1B68     		ldr	r3, [r3]
 662 0082 1800     		movs	r0, r3
 663 0084 FFF7FEFF 		bl	CyBle_SetDeviceAddress
1679:Generated_Source\PSoC4/CYBLE_eventHandler.c ****                 #if(CYBLE_GAP_ROLE_PERIPHERAL || CYBLE_GAP_ROLE_BROADCASTER)
1680:Generated_Source\PSoC4/CYBLE_eventHandler.c ****                     CyBle_ChangeAdDeviceAddress(cyBle_sflashDeviceAddress, 0u);
 664              		.loc 1 1680 0
 665 0088 B04B     		ldr	r3, .L66+8
 666 008a 1B68     		ldr	r3, [r3]
 667 008c 0021     		movs	r1, #0
 668 008e 1800     		movs	r0, r3
 669 0090 FFF7FEFF 		bl	CyBle_ChangeAdDeviceAddress
1681:Generated_Source\PSoC4/CYBLE_eventHandler.c ****                     CyBle_ChangeAdDeviceAddress(cyBle_sflashDeviceAddress, 1u);
 670              		.loc 1 1681 0
 671 0094 AD4B     		ldr	r3, .L66+8
 672 0096 1B68     		ldr	r3, [r3]
 673 0098 0121     		movs	r1, #1
 674 009a 1800     		movs	r0, r3
 675 009c FFF7FEFF 		bl	CyBle_ChangeAdDeviceAddress
 676 00a0 36E0     		b	.L48
 677              	.L47:
 678              	.LBB4:
1682:Generated_Source\PSoC4/CYBLE_eventHandler.c ****                 #endif /* CYBLE_GAP_ROLE_PERIPHERAL || CYBLE_GAP_ROLE_BROADCASTER */    
1683:Generated_Source\PSoC4/CYBLE_eventHandler.c ****             }
1684:Generated_Source\PSoC4/CYBLE_eventHandler.c ****             else
1685:Generated_Source\PSoC4/CYBLE_eventHandler.c ****             {
1686:Generated_Source\PSoC4/CYBLE_eventHandler.c ****             #if (SILICON_GENERATED_DEVICE_ADDRESS != 0u)
1687:Generated_Source\PSoC4/CYBLE_eventHandler.c ****             {
1688:Generated_Source\PSoC4/CYBLE_eventHandler.c ****                 uint32 bdAddrLoc;
1689:Generated_Source\PSoC4/CYBLE_eventHandler.c ****                 bdAddrLoc = (CYBLE_SFLASH_DIE_X_REG & CYBLE_SFLASH_DIE_X_MASK) |
 679              		.loc 1 1689 0
 680 00a2 AB4B     		ldr	r3, .L66+12
 681 00a4 1B78     		ldrb	r3, [r3]
 682 00a6 1A00     		movs	r2, r3
 683 00a8 3F23     		movs	r3, #63
 684 00aa 1A40     		ands	r2, r3
1690:Generated_Source\PSoC4/CYBLE_eventHandler.c ****                     ((uint32)(((uint32)CYBLE_SFLASH_DIE_Y_REG) & ((uint32)CYBLE_SFLASH_DIE_Y_MASK))
 685              		.loc 1 1690 0
 686 00ac A94B     		ldr	r3, .L66+16
 687 00ae 1B78     		ldrb	r3, [r3]
 688 00b0 9901     		lsls	r1, r3, #6
 689 00b2 FC23     		movs	r3, #252
 690 00b4 1B01     		lsls	r3, r3, #4
 691 00b6 0B40     		ands	r3, r1
1689:Generated_Source\PSoC4/CYBLE_eventHandler.c ****                     ((uint32)(((uint32)CYBLE_SFLASH_DIE_Y_REG) & ((uint32)CYBLE_SFLASH_DIE_Y_MASK))
 692              		.loc 1 1689 0
 693 00b8 1A43     		orrs	r2, r3
1691:Generated_Source\PSoC4/CYBLE_eventHandler.c ****                         CYBLE_SFLASH_DIE_X_BITS) |
1692:Generated_Source\PSoC4/CYBLE_eventHandler.c ****                     ((uint32)(((uint32)CYBLE_SFLASH_DIE_WAFER_REG) & ((uint32)CYBLE_SFLASH_DIE_WAFE
 694              		.loc 1 1692 0
 695 00ba A74B     		ldr	r3, .L66+20
 696 00bc 1B78     		ldrb	r3, [r3]
 697 00be 1903     		lsls	r1, r3, #12
 698 00c0 F823     		movs	r3, #248
ARM GAS  C:\Users\LIAMSA~1\AppData\Local\Temp\cc7Yswwd.s 			page 43


 699 00c2 5B02     		lsls	r3, r3, #9
 700 00c4 0B40     		ands	r3, r1
1691:Generated_Source\PSoC4/CYBLE_eventHandler.c ****                         CYBLE_SFLASH_DIE_X_BITS) |
 701              		.loc 1 1691 0
 702 00c6 1A43     		orrs	r2, r3
1693:Generated_Source\PSoC4/CYBLE_eventHandler.c ****                         CYBLE_SFLASH_DIE_XY_BITS) |
1694:Generated_Source\PSoC4/CYBLE_eventHandler.c ****                     ((uint32)(((uint32)CYBLE_SFLASH_DIE_LOT_REG) & ((uint32)CYBLE_SFLASH_DIE_LOT_MA
 703              		.loc 1 1694 0
 704 00c8 A44B     		ldr	r3, .L66+24
 705 00ca 1B78     		ldrb	r3, [r3]
 706 00cc 5904     		lsls	r1, r3, #17
 707 00ce FE23     		movs	r3, #254
 708 00d0 1B04     		lsls	r3, r3, #16
 709 00d2 0B40     		ands	r3, r1
1689:Generated_Source\PSoC4/CYBLE_eventHandler.c ****                     ((uint32)(((uint32)CYBLE_SFLASH_DIE_Y_REG) & ((uint32)CYBLE_SFLASH_DIE_Y_MASK))
 710              		.loc 1 1689 0
 711 00d4 1343     		orrs	r3, r2
 712 00d6 BB61     		str	r3, [r7, #24]
1695:Generated_Source\PSoC4/CYBLE_eventHandler.c ****                         CYBLE_SFLASH_DIE_XYWAFER_BITS);
1696:Generated_Source\PSoC4/CYBLE_eventHandler.c ****                             
1697:Generated_Source\PSoC4/CYBLE_eventHandler.c ****                 cyBle_deviceAddress.bdAddr[0] = (uint8)bdAddrLoc;
 713              		.loc 1 1697 0
 714 00d8 BB69     		ldr	r3, [r7, #24]
 715 00da DAB2     		uxtb	r2, r3
 716 00dc A04B     		ldr	r3, .L66+28
 717 00de 1A70     		strb	r2, [r3]
1698:Generated_Source\PSoC4/CYBLE_eventHandler.c ****                 cyBle_deviceAddress.bdAddr[1] = (uint8)(bdAddrLoc >> 8u);
 718              		.loc 1 1698 0
 719 00e0 BB69     		ldr	r3, [r7, #24]
 720 00e2 1B0A     		lsrs	r3, r3, #8
 721 00e4 DAB2     		uxtb	r2, r3
 722 00e6 9E4B     		ldr	r3, .L66+28
 723 00e8 5A70     		strb	r2, [r3, #1]
1699:Generated_Source\PSoC4/CYBLE_eventHandler.c ****                 cyBle_deviceAddress.bdAddr[2] = (uint8)(bdAddrLoc >> 16u);
 724              		.loc 1 1699 0
 725 00ea BB69     		ldr	r3, [r7, #24]
 726 00ec 1B0C     		lsrs	r3, r3, #16
 727 00ee DAB2     		uxtb	r2, r3
 728 00f0 9B4B     		ldr	r3, .L66+28
 729 00f2 9A70     		strb	r2, [r3, #2]
 730              	.LBE4:
1700:Generated_Source\PSoC4/CYBLE_eventHandler.c ****             }
1701:Generated_Source\PSoC4/CYBLE_eventHandler.c ****             #endif /* SILICON_GENERATED_DEVICE_ADDRESS != 0u */
1702:Generated_Source\PSoC4/CYBLE_eventHandler.c ****                 (void) CyBle_SetDeviceAddress(&cyBle_deviceAddress);
 731              		.loc 1 1702 0
 732 00f4 9A4B     		ldr	r3, .L66+28
 733 00f6 1800     		movs	r0, r3
 734 00f8 FFF7FEFF 		bl	CyBle_SetDeviceAddress
1703:Generated_Source\PSoC4/CYBLE_eventHandler.c ****                 #if(CYBLE_GAP_ROLE_PERIPHERAL || CYBLE_GAP_ROLE_BROADCASTER)
1704:Generated_Source\PSoC4/CYBLE_eventHandler.c ****                     CyBle_ChangeAdDeviceAddress(&cyBle_deviceAddress, 0u);
 735              		.loc 1 1704 0
 736 00fc 984B     		ldr	r3, .L66+28
 737 00fe 0021     		movs	r1, #0
 738 0100 1800     		movs	r0, r3
 739 0102 FFF7FEFF 		bl	CyBle_ChangeAdDeviceAddress
1705:Generated_Source\PSoC4/CYBLE_eventHandler.c ****                     CyBle_ChangeAdDeviceAddress(&cyBle_deviceAddress, 1u);
 740              		.loc 1 1705 0
ARM GAS  C:\Users\LIAMSA~1\AppData\Local\Temp\cc7Yswwd.s 			page 44


 741 0106 964B     		ldr	r3, .L66+28
 742 0108 0121     		movs	r1, #1
 743 010a 1800     		movs	r0, r3
 744 010c FFF7FEFF 		bl	CyBle_ChangeAdDeviceAddress
 745              	.L48:
1706:Generated_Source\PSoC4/CYBLE_eventHandler.c ****                 #endif /* CYBLE_GAP_ROLE_PERIPHERAL || CYBLE_GAP_ROLE_BROADCASTER */    
1707:Generated_Source\PSoC4/CYBLE_eventHandler.c ****             }
1708:Generated_Source\PSoC4/CYBLE_eventHandler.c ****             /* Set device IO Capability  */
1709:Generated_Source\PSoC4/CYBLE_eventHandler.c ****             (void) CyBle_GapSetIoCap(CYBLE_IO_CAPABILITY);    
 746              		.loc 1 1709 0
 747 0110 0320     		movs	r0, #3
 748 0112 FFF7FEFF 		bl	CyBle_GapSetIoCap
 749              	.LBB5:
1710:Generated_Source\PSoC4/CYBLE_eventHandler.c ****             {
1711:Generated_Source\PSoC4/CYBLE_eventHandler.c ****                 /* Enable all 4.1 events and configured 4.2 events */
1712:Generated_Source\PSoC4/CYBLE_eventHandler.c ****                 uint8 leMask[CYBLE_LE_MASK_LENGTH] = {LO8(CYBLE_LE_MASK), HI8(CYBLE_LE_MASK)};
 750              		.loc 1 1712 0
 751 0116 0C23     		movs	r3, #12
 752 0118 FB18     		adds	r3, r7, r3
 753 011a 3F22     		movs	r2, #63
 754 011c 1A70     		strb	r2, [r3]
 755 011e 0C23     		movs	r3, #12
 756 0120 FB18     		adds	r3, r7, r3
 757 0122 0022     		movs	r2, #0
 758 0124 5A70     		strb	r2, [r3, #1]
1713:Generated_Source\PSoC4/CYBLE_eventHandler.c ****                 (void) CyBle_GapSetLeEventMask(leMask);
 759              		.loc 1 1713 0
 760 0126 0C23     		movs	r3, #12
 761 0128 FB18     		adds	r3, r7, r3
 762 012a 1800     		movs	r0, r3
 763 012c FFF7FEFF 		bl	CyBle_GapSetLeEventMask
 764              	.LBE5:
1714:Generated_Source\PSoC4/CYBLE_eventHandler.c ****             }
1715:Generated_Source\PSoC4/CYBLE_eventHandler.c ****         #if(CYBLE_DLE_FEATURE_ENABLED)
1716:Generated_Source\PSoC4/CYBLE_eventHandler.c ****         {
1717:Generated_Source\PSoC4/CYBLE_eventHandler.c ****             /* Set maximum suggested TX payload size */
1718:Generated_Source\PSoC4/CYBLE_eventHandler.c ****             uint16 payloadTime = CYBLE_LL_MAX_TX_TIME;
1719:Generated_Source\PSoC4/CYBLE_eventHandler.c ****             (void) CyBle_GapConvertOctetToTime(CYBLE_GAP_PHY_1MBPS, CYBLE_LL_MAX_TX_PAYLOAD_SIZE, &
1720:Generated_Source\PSoC4/CYBLE_eventHandler.c ****             (void) CyBle_GapSetSuggestedDataLength(CYBLE_LL_MAX_TX_PAYLOAD_SIZE, payloadTime); 
1721:Generated_Source\PSoC4/CYBLE_eventHandler.c ****         }
1722:Generated_Source\PSoC4/CYBLE_eventHandler.c ****         #endif /* CYBLE_DLE_FEATURE != 0u */
1723:Generated_Source\PSoC4/CYBLE_eventHandler.c ****         
1724:Generated_Source\PSoC4/CYBLE_eventHandler.c ****         #endif /* CYBLE_GATT_ROLE_SERVER || CYBLE_GATT_ROLE_CLIENT */
1725:Generated_Source\PSoC4/CYBLE_eventHandler.c ****             CyBle_SetState(CYBLE_STATE_DISCONNECTED);
 765              		.loc 1 1725 0
 766 0130 8C4B     		ldr	r3, .L66+32
 767 0132 0422     		movs	r2, #4
 768 0134 1A70     		strb	r2, [r3]
1726:Generated_Source\PSoC4/CYBLE_eventHandler.c ****             break;
 769              		.loc 1 1726 0
 770 0136 EAE0     		b	.L49
 771              	.L27:
1727:Generated_Source\PSoC4/CYBLE_eventHandler.c ****         case CYBLE_EVT_TIMEOUT:
1728:Generated_Source\PSoC4/CYBLE_eventHandler.c ****             CyBle_TimeOutEventHandler((CYBLE_TO_REASON_CODE_T *)eventParam);
 772              		.loc 1 1728 0
 773 0138 3B68     		ldr	r3, [r7]
 774 013a 1800     		movs	r0, r3
ARM GAS  C:\Users\LIAMSA~1\AppData\Local\Temp\cc7Yswwd.s 			page 45


 775 013c FFF7FEFF 		bl	CyBle_TimeOutEventHandler
1729:Generated_Source\PSoC4/CYBLE_eventHandler.c ****             break;
 776              		.loc 1 1729 0
 777 0140 E5E0     		b	.L49
 778              	.L28:
1730:Generated_Source\PSoC4/CYBLE_eventHandler.c ****     	case CYBLE_EVT_STACK_BUSY_STATUS:
1731:Generated_Source\PSoC4/CYBLE_eventHandler.c ****             cyBle_busyStatus = *(uint8 *)eventParam;
 779              		.loc 1 1731 0
 780 0142 3B68     		ldr	r3, [r7]
 781 0144 1A78     		ldrb	r2, [r3]
 782 0146 884B     		ldr	r3, .L66+36
 783 0148 1A70     		strb	r2, [r3]
1732:Generated_Source\PSoC4/CYBLE_eventHandler.c ****             break;
 784              		.loc 1 1732 0
 785 014a E0E0     		b	.L49
 786              	.L29:
 787              	.LBB6:
1733:Generated_Source\PSoC4/CYBLE_eventHandler.c ****     	case CYBLE_EVT_MEMORY_REQUEST:
1734:Generated_Source\PSoC4/CYBLE_eventHandler.c ****         #if(CYBLE_MODE_PROFILE)
1735:Generated_Source\PSoC4/CYBLE_eventHandler.c ****         {
1736:Generated_Source\PSoC4/CYBLE_eventHandler.c ****             CYBLE_MEMORY_REQUEST_T *memReq = (CYBLE_MEMORY_REQUEST_T *)eventParam;
 788              		.loc 1 1736 0
 789 014c 3B68     		ldr	r3, [r7]
 790 014e 7B61     		str	r3, [r7, #20]
1737:Generated_Source\PSoC4/CYBLE_eventHandler.c ****             if(memReq->request == CYBLE_PREPARED_WRITE_REQUEST)
 791              		.loc 1 1737 0
 792 0150 7B69     		ldr	r3, [r7, #20]
 793 0152 1B78     		ldrb	r3, [r3]
 794 0154 002B     		cmp	r3, #0
 795 0156 00D0     		beq	.LCB545
 796 0158 D4E0     		b	.L62	@long jump
 797              	.LCB545:
1738:Generated_Source\PSoC4/CYBLE_eventHandler.c ****             {  
1739:Generated_Source\PSoC4/CYBLE_eventHandler.c ****             #if(CYBLE_GATT_ENABLE_EXTERNAL_PREP_WRITE_BUFF == 0u)
1740:Generated_Source\PSoC4/CYBLE_eventHandler.c ****                 /* Stack requests to provide memory to process remote request */
1741:Generated_Source\PSoC4/CYBLE_eventHandler.c ****                 if(memReq->allocFree == CYBLE_ALLOC_MEMORY)
 798              		.loc 1 1741 0
 799 015a 7B69     		ldr	r3, [r7, #20]
 800 015c 5B78     		ldrb	r3, [r3, #1]
 801 015e 002B     		cmp	r3, #0
 802 0160 0BD1     		bne	.L51
 803              	.LBB7:
1742:Generated_Source\PSoC4/CYBLE_eventHandler.c ****                 {
1743:Generated_Source\PSoC4/CYBLE_eventHandler.c ****                     static CYBLE_PREPARE_WRITE_REQUEST_MEMORY_T gPrepWriteReqMem;
1744:Generated_Source\PSoC4/CYBLE_eventHandler.c ****                     
1745:Generated_Source\PSoC4/CYBLE_eventHandler.c ****                     /* Configure and return statically allocated buffer at the end of cyBle_stackMe
1746:Generated_Source\PSoC4/CYBLE_eventHandler.c ****                     gPrepWriteReqMem.prepareWriteQueueSize = CYBLE_GATT_MAX_PREPARE_BUFF_COUNT;
 804              		.loc 1 1746 0
 805 0162 824B     		ldr	r3, .L66+40
 806 0164 0022     		movs	r2, #0
 807 0166 DA80     		strh	r2, [r3, #6]
1747:Generated_Source\PSoC4/CYBLE_eventHandler.c ****                     gPrepWriteReqMem.totalAttrValueLength = CYBLE_GATT_PREPARE_LENGTH_ALIGN;
 808              		.loc 1 1747 0
 809 0168 804B     		ldr	r3, .L66+40
 810 016a 0022     		movs	r2, #0
 811 016c 9A80     		strh	r2, [r3, #4]
1748:Generated_Source\PSoC4/CYBLE_eventHandler.c ****                     gPrepWriteReqMem.queueBuffer = &cyBle_stackMemoryRam[CYBLE_STACK_RAM_SIZE - 
ARM GAS  C:\Users\LIAMSA~1\AppData\Local\Temp\cc7Yswwd.s 			page 46


 812              		.loc 1 1748 0
 813 016e 7F4B     		ldr	r3, .L66+40
 814 0170 7F4A     		ldr	r2, .L66+44
 815 0172 1A60     		str	r2, [r3]
1749:Generated_Source\PSoC4/CYBLE_eventHandler.c ****                                                                          CYBLE_GATT_PREPARE_WRITE_B
1750:Generated_Source\PSoC4/CYBLE_eventHandler.c ****                     memReq->configMemory = &gPrepWriteReqMem;  
 816              		.loc 1 1750 0
 817 0174 7B69     		ldr	r3, [r7, #20]
 818 0176 7D4A     		ldr	r2, .L66+40
 819 0178 5A60     		str	r2, [r3, #4]
 820              	.L51:
 821              	.LBE7:
1751:Generated_Source\PSoC4/CYBLE_eventHandler.c ****                 }                
1752:Generated_Source\PSoC4/CYBLE_eventHandler.c ****                 /* Clear CYBLE_CALLBACK flag not to provide handled event to application */
1753:Generated_Source\PSoC4/CYBLE_eventHandler.c ****                 cyBle_eventHandlerFlag &= (uint8)~CYBLE_CALLBACK;
 822              		.loc 1 1753 0
 823 017a 724B     		ldr	r3, .L66
 824 017c 1B78     		ldrb	r3, [r3]
 825 017e DBB2     		uxtb	r3, r3
 826 0180 0122     		movs	r2, #1
 827 0182 9343     		bics	r3, r2
 828 0184 DAB2     		uxtb	r2, r3
 829 0186 6F4B     		ldr	r3, .L66
 830 0188 1A70     		strb	r2, [r3]
 831              	.LBE6:
1754:Generated_Source\PSoC4/CYBLE_eventHandler.c ****             #endif  /* CYBLE_GATT_ENABLE_EXTERNAL_PREP_WRITE_BUFF == 0u */
1755:Generated_Source\PSoC4/CYBLE_eventHandler.c ****             }
1756:Generated_Source\PSoC4/CYBLE_eventHandler.c ****         }
1757:Generated_Source\PSoC4/CYBLE_eventHandler.c ****         #endif /* CYBLE_MODE_PROFILE */
1758:Generated_Source\PSoC4/CYBLE_eventHandler.c ****             break;
 832              		.loc 1 1758 0
 833 018a BBE0     		b	.L62
 834              	.L30:
1759:Generated_Source\PSoC4/CYBLE_eventHandler.c ****         /**********************************************************
1760:Generated_Source\PSoC4/CYBLE_eventHandler.c ****         * GAP events
1761:Generated_Source\PSoC4/CYBLE_eventHandler.c ****         ************************************************************/
1762:Generated_Source\PSoC4/CYBLE_eventHandler.c ****         case CYBLE_EVT_GAP_AUTH_REQ:
1763:Generated_Source\PSoC4/CYBLE_eventHandler.c ****         #if(CYBLE_MODE_PROFILE)
1764:Generated_Source\PSoC4/CYBLE_eventHandler.c ****             if((cyBle_eventHandlerFlag & CYBLE_DISABLE_AUTOMATIC_AUTH) == 0u)
 835              		.loc 1 1764 0
 836 018c 6D4B     		ldr	r3, .L66
 837 018e 1B78     		ldrb	r3, [r3]
 838 0190 DBB2     		uxtb	r3, r3
 839 0192 1A00     		movs	r2, r3
 840 0194 2023     		movs	r3, #32
 841 0196 1340     		ands	r3, r2
 842 0198 00D0     		beq	.LCB586
 843 019a B5E0     		b	.L63	@long jump
 844              	.LCB586:
1765:Generated_Source\PSoC4/CYBLE_eventHandler.c ****             {
1766:Generated_Source\PSoC4/CYBLE_eventHandler.c ****                 /* If the responding device does not support pairing then the responding 
1767:Generated_Source\PSoC4/CYBLE_eventHandler.c ****                    device shall respond using the Pairing Failed message with the error 
1768:Generated_Source\PSoC4/CYBLE_eventHandler.c ****                    code "Pairing Not Supported" otherwise it responds with a Pairing 
1769:Generated_Source\PSoC4/CYBLE_eventHandler.c ****                    Response message.
1770:Generated_Source\PSoC4/CYBLE_eventHandler.c ****                 */
1771:Generated_Source\PSoC4/CYBLE_eventHandler.c ****                 if(cyBle_authInfo.security == (CYBLE_GAP_SEC_MODE_1 | CYBLE_GAP_SEC_LEVEL_1))
 845              		.loc 1 1771 0
ARM GAS  C:\Users\LIAMSA~1\AppData\Local\Temp\cc7Yswwd.s 			page 47


 846 019c 754B     		ldr	r3, .L66+48
 847 019e 1B78     		ldrb	r3, [r3]
 848 01a0 102B     		cmp	r3, #16
 849 01a2 02D1     		bne	.L53
1772:Generated_Source\PSoC4/CYBLE_eventHandler.c ****                 {
1773:Generated_Source\PSoC4/CYBLE_eventHandler.c ****                     cyBle_authInfo.authErr = CYBLE_GAP_AUTH_ERROR_PAIRING_NOT_SUPPORTED;
 850              		.loc 1 1773 0
 851 01a4 734B     		ldr	r3, .L66+48
 852 01a6 0522     		movs	r2, #5
 853 01a8 DA70     		strb	r2, [r3, #3]
 854              	.L53:
 855              	.LBB8:
1774:Generated_Source\PSoC4/CYBLE_eventHandler.c ****                 }    
1775:Generated_Source\PSoC4/CYBLE_eventHandler.c ****             #if(CYBLE_GAP_ROLE_PERIPHERAL)
1776:Generated_Source\PSoC4/CYBLE_eventHandler.c ****                 {
1777:Generated_Source\PSoC4/CYBLE_eventHandler.c ****                     CYBLE_API_RESULT_T apiResult;
1778:Generated_Source\PSoC4/CYBLE_eventHandler.c ****                     
1779:Generated_Source\PSoC4/CYBLE_eventHandler.c ****                     apiResult = CyBle_GappAuthReqReply(cyBle_connHandle.bdHandle, &cyBle_authInfo);
 856              		.loc 1 1779 0
 857 01aa 734B     		ldr	r3, .L66+52
 858 01ac 1B78     		ldrb	r3, [r3]
 859 01ae 714A     		ldr	r2, .L66+48
 860 01b0 1100     		movs	r1, r2
 861 01b2 1800     		movs	r0, r3
 862 01b4 FFF7FEFF 		bl	CyBle_GappAuthReqReply
 863 01b8 0300     		movs	r3, r0
 864 01ba 1A00     		movs	r2, r3
 865 01bc 0A23     		movs	r3, #10
 866 01be FB18     		adds	r3, r7, r3
 867 01c0 1A80     		strh	r2, [r3]
1780:Generated_Source\PSoC4/CYBLE_eventHandler.c ****                     /* Setting callback flag again as CyBle_GappAuthReqReply() will generate
1781:Generated_Source\PSoC4/CYBLE_eventHandler.c ****                     * CYBLE_EVT_GAP_SMP_NEGOTIATED_AUTH_INFO event which will clear the callback
1782:Generated_Source\PSoC4/CYBLE_eventHandler.c ****                     * flag.
1783:Generated_Source\PSoC4/CYBLE_eventHandler.c ****                     */
1784:Generated_Source\PSoC4/CYBLE_eventHandler.c ****                     if (apiResult != CYBLE_ERROR_OK)
 868              		.loc 1 1784 0
 869 01c2 0A23     		movs	r3, #10
 870 01c4 FB18     		adds	r3, r7, r3
 871 01c6 1B88     		ldrh	r3, [r3]
 872 01c8 002B     		cmp	r3, #0
 873 01ca 06D0     		beq	.L54
1785:Generated_Source\PSoC4/CYBLE_eventHandler.c ****                     {   
1786:Generated_Source\PSoC4/CYBLE_eventHandler.c ****                         CyBle_ApplCallback(CYBLE_EVT_GAP_AUTH_REQ_REPLY_ERR , &apiResult);
 874              		.loc 1 1786 0
 875 01cc 6B4B     		ldr	r3, .L66+56
 876 01ce 1B68     		ldr	r3, [r3]
 877 01d0 0A22     		movs	r2, #10
 878 01d2 BA18     		adds	r2, r7, r2
 879 01d4 1100     		movs	r1, r2
 880 01d6 3620     		movs	r0, #54
 881 01d8 9847     		blx	r3
 882              	.L54:
1787:Generated_Source\PSoC4/CYBLE_eventHandler.c ****                     }
1788:Generated_Source\PSoC4/CYBLE_eventHandler.c ****                     cyBle_eventHandlerFlag |= CYBLE_CALLBACK;
 883              		.loc 1 1788 0
 884 01da 5A4B     		ldr	r3, .L66
 885 01dc 1B78     		ldrb	r3, [r3]
ARM GAS  C:\Users\LIAMSA~1\AppData\Local\Temp\cc7Yswwd.s 			page 48


 886 01de DBB2     		uxtb	r3, r3
 887 01e0 0122     		movs	r2, #1
 888 01e2 1343     		orrs	r3, r2
 889 01e4 DAB2     		uxtb	r2, r3
 890 01e6 574B     		ldr	r3, .L66
 891 01e8 1A70     		strb	r2, [r3]
 892              	.LBE8:
1789:Generated_Source\PSoC4/CYBLE_eventHandler.c ****                 }
1790:Generated_Source\PSoC4/CYBLE_eventHandler.c ****             #endif /* CYBLE_GAP_ROLE_PERIPHERAL */
1791:Generated_Source\PSoC4/CYBLE_eventHandler.c ****             #if (CYBLE_GAP_ROLE_CENTRAL)
1792:Generated_Source\PSoC4/CYBLE_eventHandler.c ****                 (void)CyBle_GapAuthReq(cyBle_connHandle.bdHandle, &cyBle_authInfo);
1793:Generated_Source\PSoC4/CYBLE_eventHandler.c ****             #endif /* CYBLE_GAP_ROLE_CENTRAL */
1794:Generated_Source\PSoC4/CYBLE_eventHandler.c ****             }
1795:Generated_Source\PSoC4/CYBLE_eventHandler.c ****         #endif /* CYBLE_MODE_PROFILE */
1796:Generated_Source\PSoC4/CYBLE_eventHandler.c ****             break;
 893              		.loc 1 1796 0
 894 01ea 8DE0     		b	.L63
 895              	.L35:
1797:Generated_Source\PSoC4/CYBLE_eventHandler.c ****         
1798:Generated_Source\PSoC4/CYBLE_eventHandler.c ****         case CYBLE_EVT_GAP_AUTH_COMPLETE:
1799:Generated_Source\PSoC4/CYBLE_eventHandler.c ****         #if((CYBLE_GAP_ROLE_PERIPHERAL || CYBLE_GAP_ROLE_CENTRAL) && (CYBLE_BONDING_REQUIREMENT == 
1800:Generated_Source\PSoC4/CYBLE_eventHandler.c ****             cyBle_peerBonding = ((CYBLE_GAP_AUTH_INFO_T *)eventParam)->bonding;
1801:Generated_Source\PSoC4/CYBLE_eventHandler.c ****         #endif  /* CYBLE_BONDING_REQUIREMENT == CYBLE_BONDING_YES */
1802:Generated_Source\PSoC4/CYBLE_eventHandler.c ****             break;
1803:Generated_Source\PSoC4/CYBLE_eventHandler.c ****         
1804:Generated_Source\PSoC4/CYBLE_eventHandler.c ****         case CYBLE_EVT_GAP_CONNECTION_UPDATE_COMPLETE:
1805:Generated_Source\PSoC4/CYBLE_eventHandler.c ****             CyBle_GapConnUpdateCompleteEventHandler((const CYBLE_GAP_CONN_PARAM_UPDATED_IN_CONTROLL
 896              		.loc 1 1805 0
 897 01ec 3B68     		ldr	r3, [r7]
 898 01ee 1800     		movs	r0, r3
 899 01f0 FFF7FEFF 		bl	CyBle_GapConnUpdateCompleteEventHandler
1806:Generated_Source\PSoC4/CYBLE_eventHandler.c ****             break;
 900              		.loc 1 1806 0
 901 01f4 8BE0     		b	.L49
 902              	.L33:
1807:Generated_Source\PSoC4/CYBLE_eventHandler.c ****             
1808:Generated_Source\PSoC4/CYBLE_eventHandler.c ****     #if(CYBLE_LL_PRIVACY_FEATURE != 0u)        
1809:Generated_Source\PSoC4/CYBLE_eventHandler.c ****         case CYBLE_EVT_GAP_ENHANCE_CONN_COMPLETE:
1810:Generated_Source\PSoC4/CYBLE_eventHandler.c ****         {
1811:Generated_Source\PSoC4/CYBLE_eventHandler.c ****             CYBLE_GAP_CONN_PARAM_UPDATED_IN_CONTROLLER_T  connCParam;
1812:Generated_Source\PSoC4/CYBLE_eventHandler.c ****             CYBLE_GAP_ENHANCE_CONN_COMPLETE_T *connEnhanceParam;
1813:Generated_Source\PSoC4/CYBLE_eventHandler.c ****             
1814:Generated_Source\PSoC4/CYBLE_eventHandler.c ****             connEnhanceParam = (CYBLE_GAP_ENHANCE_CONN_COMPLETE_T *)eventParam;
1815:Generated_Source\PSoC4/CYBLE_eventHandler.c ****             connCParam.status = connEnhanceParam->status;
1816:Generated_Source\PSoC4/CYBLE_eventHandler.c ****             connCParam.connIntv = connEnhanceParam->connIntv;
1817:Generated_Source\PSoC4/CYBLE_eventHandler.c ****             connCParam.connLatency = connEnhanceParam->connLatency;
1818:Generated_Source\PSoC4/CYBLE_eventHandler.c ****             connCParam.supervisionTO = connEnhanceParam->supervisionTo;
1819:Generated_Source\PSoC4/CYBLE_eventHandler.c ****             CyBle_GapConnUpdateCompleteEventHandler((const CYBLE_GAP_CONN_PARAM_UPDATED_IN_CONTROLL
1820:Generated_Source\PSoC4/CYBLE_eventHandler.c ****             
1821:Generated_Source\PSoC4/CYBLE_eventHandler.c ****             #if(CYBLE_GAP_ROLE_CENTRAL)
1822:Generated_Source\PSoC4/CYBLE_eventHandler.c ****                 if(cyBle_connectingTimeout != 0u)
1823:Generated_Source\PSoC4/CYBLE_eventHandler.c ****                 {
1824:Generated_Source\PSoC4/CYBLE_eventHandler.c ****                    (void)CyBle_StopTimer();
1825:Generated_Source\PSoC4/CYBLE_eventHandler.c ****                 }
1826:Generated_Source\PSoC4/CYBLE_eventHandler.c ****             #endif /* CYBLE_GAP_ROLE_CENTRAL */
1827:Generated_Source\PSoC4/CYBLE_eventHandler.c ****             CyBle_SetState(CYBLE_STATE_CONNECTED);
1828:Generated_Source\PSoC4/CYBLE_eventHandler.c ****         }
ARM GAS  C:\Users\LIAMSA~1\AppData\Local\Temp\cc7Yswwd.s 			page 49


1829:Generated_Source\PSoC4/CYBLE_eventHandler.c ****             break;
1830:Generated_Source\PSoC4/CYBLE_eventHandler.c ****     #endif /* CYBLE_LL_PRIVACY_FEATURE != 0u */      
1831:Generated_Source\PSoC4/CYBLE_eventHandler.c ****             
1832:Generated_Source\PSoC4/CYBLE_eventHandler.c ****         case CYBLE_EVT_GAP_DEVICE_CONNECTED:
1833:Generated_Source\PSoC4/CYBLE_eventHandler.c ****             CyBle_GapConnUpdateCompleteEventHandler((const CYBLE_GAP_CONN_PARAM_UPDATED_IN_CONTROLL
 903              		.loc 1 1833 0
 904 01f6 3B68     		ldr	r3, [r7]
 905 01f8 1800     		movs	r0, r3
 906 01fa FFF7FEFF 		bl	CyBle_GapConnUpdateCompleteEventHandler
1834:Generated_Source\PSoC4/CYBLE_eventHandler.c ****             #if(CYBLE_GAP_ROLE_CENTRAL)
1835:Generated_Source\PSoC4/CYBLE_eventHandler.c ****                 if(cyBle_connectingTimeout != 0u)
1836:Generated_Source\PSoC4/CYBLE_eventHandler.c ****                 {
1837:Generated_Source\PSoC4/CYBLE_eventHandler.c ****                    (void)CyBle_StopTimer();
1838:Generated_Source\PSoC4/CYBLE_eventHandler.c ****                 }
1839:Generated_Source\PSoC4/CYBLE_eventHandler.c ****             #endif /* CYBLE_GAP_ROLE_CENTRAL */
1840:Generated_Source\PSoC4/CYBLE_eventHandler.c ****             CyBle_SetState(CYBLE_STATE_CONNECTED);
 907              		.loc 1 1840 0
 908 01fe 594B     		ldr	r3, .L66+32
 909 0200 0222     		movs	r2, #2
 910 0202 1A70     		strb	r2, [r3]
1841:Generated_Source\PSoC4/CYBLE_eventHandler.c ****             break;
 911              		.loc 1 1841 0
 912 0204 83E0     		b	.L49
 913              	.L34:
1842:Generated_Source\PSoC4/CYBLE_eventHandler.c **** 
1843:Generated_Source\PSoC4/CYBLE_eventHandler.c ****         case CYBLE_EVT_GAP_DEVICE_DISCONNECTED:
1844:Generated_Source\PSoC4/CYBLE_eventHandler.c ****             CyBle_SetState(CYBLE_STATE_DISCONNECTED);
 914              		.loc 1 1844 0
 915 0206 574B     		ldr	r3, .L66+32
 916 0208 0422     		movs	r2, #4
 917 020a 1A70     		strb	r2, [r3]
1845:Generated_Source\PSoC4/CYBLE_eventHandler.c ****             break;
 918              		.loc 1 1845 0
 919 020c 7FE0     		b	.L49
 920              	.L32:
1846:Generated_Source\PSoC4/CYBLE_eventHandler.c ****         #if(CYBLE_GAP_ROLE_PERIPHERAL || CYBLE_GAP_ROLE_BROADCASTER)
1847:Generated_Source\PSoC4/CYBLE_eventHandler.c ****             
1848:Generated_Source\PSoC4/CYBLE_eventHandler.c ****         case CYBLE_EVT_GAPP_ADVERTISEMENT_START_STOP:
1849:Generated_Source\PSoC4/CYBLE_eventHandler.c ****             #ifdef CYBLE_CPS_SERVER
1850:Generated_Source\PSoC4/CYBLE_eventHandler.c ****                 #if(CYBLE_GAP_ROLE_BROADCASTER)
1851:Generated_Source\PSoC4/CYBLE_eventHandler.c ****                     CyBle_CpssAdvertisementStartStopEventHandler();
1852:Generated_Source\PSoC4/CYBLE_eventHandler.c ****                 #endif /* CYBLE_GAP_ROLE_BROADCASTER */
1853:Generated_Source\PSoC4/CYBLE_eventHandler.c ****             #endif /* CYBLE_CPS_SERVER */
1854:Generated_Source\PSoC4/CYBLE_eventHandler.c ****             
1855:Generated_Source\PSoC4/CYBLE_eventHandler.c ****             if((CYBLE_STATE_CONNECTED != CyBle_GetState()) && ((cyBle_eventHandlerFlag & CYBLE_CALL
 921              		.loc 1 1855 0
 922 020e 554B     		ldr	r3, .L66+32
 923 0210 1B78     		ldrb	r3, [r3]
 924 0212 022B     		cmp	r3, #2
 925 0214 00D1     		bne	.LCB662
 926 0216 79E0     		b	.L64	@long jump
 927              	.LCB662:
 928              		.loc 1 1855 0 is_stmt 0 discriminator 1
 929 0218 4A4B     		ldr	r3, .L66
 930 021a 1B78     		ldrb	r3, [r3]
 931 021c DBB2     		uxtb	r3, r3
 932 021e 1A00     		movs	r2, r3
ARM GAS  C:\Users\LIAMSA~1\AppData\Local\Temp\cc7Yswwd.s 			page 50


 933 0220 0123     		movs	r3, #1
 934 0222 1340     		ands	r3, r2
 935 0224 00D1     		bne	.LCB670
 936 0226 71E0     		b	.L64	@long jump
 937              	.LCB670:
1856:Generated_Source\PSoC4/CYBLE_eventHandler.c ****             {
1857:Generated_Source\PSoC4/CYBLE_eventHandler.c ****                 /* After CyBle_GappStartAdvertisement first event indicates that advertising has be
1858:Generated_Source\PSoC4/CYBLE_eventHandler.c ****                 if(0u != (cyBle_eventHandlerFlag & CYBLE_START_FLAG))
 938              		.loc 1 1858 0 is_stmt 1
 939 0228 464B     		ldr	r3, .L66
 940 022a 1B78     		ldrb	r3, [r3]
 941 022c DBB2     		uxtb	r3, r3
 942 022e 1A00     		movs	r2, r3
 943 0230 0423     		movs	r3, #4
 944 0232 1340     		ands	r3, r2
 945 0234 0BD0     		beq	.L56
1859:Generated_Source\PSoC4/CYBLE_eventHandler.c ****                 {
1860:Generated_Source\PSoC4/CYBLE_eventHandler.c ****                     CyBle_SetState(CYBLE_STATE_ADVERTISING);
 946              		.loc 1 1860 0
 947 0236 4B4B     		ldr	r3, .L66+32
 948 0238 0322     		movs	r2, #3
 949 023a 1A70     		strb	r2, [r3]
1861:Generated_Source\PSoC4/CYBLE_eventHandler.c ****                     cyBle_eventHandlerFlag &= (uint8)~CYBLE_START_FLAG;
 950              		.loc 1 1861 0
 951 023c 414B     		ldr	r3, .L66
 952 023e 1B78     		ldrb	r3, [r3]
 953 0240 DBB2     		uxtb	r3, r3
 954 0242 0422     		movs	r2, #4
 955 0244 9343     		bics	r3, r2
 956 0246 DAB2     		uxtb	r2, r3
 957 0248 3E4B     		ldr	r3, .L66
 958 024a 1A70     		strb	r2, [r3]
1862:Generated_Source\PSoC4/CYBLE_eventHandler.c ****                 }
1863:Generated_Source\PSoC4/CYBLE_eventHandler.c ****                 /* When application initiated stop advertisement */
1864:Generated_Source\PSoC4/CYBLE_eventHandler.c ****                 else if(0u != (cyBle_eventHandlerFlag & CYBLE_STOP_FLAG))
1865:Generated_Source\PSoC4/CYBLE_eventHandler.c ****                 {
1866:Generated_Source\PSoC4/CYBLE_eventHandler.c ****                     CyBle_SetState(CYBLE_STATE_DISCONNECTED);  
1867:Generated_Source\PSoC4/CYBLE_eventHandler.c ****                     cyBle_eventHandlerFlag &= (uint8)~CYBLE_STOP_FLAG;
1868:Generated_Source\PSoC4/CYBLE_eventHandler.c ****                 }
1869:Generated_Source\PSoC4/CYBLE_eventHandler.c ****                 else /* Following event indicates that advertising has been stopped */
1870:Generated_Source\PSoC4/CYBLE_eventHandler.c ****                 {
1871:Generated_Source\PSoC4/CYBLE_eventHandler.c ****                     if(CyBle_GetState() == CYBLE_STATE_ADVERTISING)
1872:Generated_Source\PSoC4/CYBLE_eventHandler.c ****                     {
1873:Generated_Source\PSoC4/CYBLE_eventHandler.c ****                         CyBle_SetState(CYBLE_STATE_DISCONNECTED);
1874:Generated_Source\PSoC4/CYBLE_eventHandler.c ****                     #if ((CYBLE_SLOW_ADV_ENABLED != 0u) && (CYBLE_FAST_ADV_TIMEOUT != 0u))
1875:Generated_Source\PSoC4/CYBLE_eventHandler.c ****                         if(cyBle_advertisingIntervalType == CYBLE_ADVERTISING_FAST)
1876:Generated_Source\PSoC4/CYBLE_eventHandler.c ****                         {
1877:Generated_Source\PSoC4/CYBLE_eventHandler.c ****                             /* When fast advertising time out occur: Start slow advertising */
1878:Generated_Source\PSoC4/CYBLE_eventHandler.c ****                             if(CyBle_GappStartAdvertisement(CYBLE_ADVERTISING_SLOW) == CYBLE_ERROR_
1879:Generated_Source\PSoC4/CYBLE_eventHandler.c ****                             {
1880:Generated_Source\PSoC4/CYBLE_eventHandler.c ****                                 CyBle_SetState(CYBLE_STATE_ADVERTISING);
1881:Generated_Source\PSoC4/CYBLE_eventHandler.c ****                             }
1882:Generated_Source\PSoC4/CYBLE_eventHandler.c ****                         }
1883:Generated_Source\PSoC4/CYBLE_eventHandler.c ****                     #endif /* CYBLE_SLOW_ADV_ENABLED */
1884:Generated_Source\PSoC4/CYBLE_eventHandler.c ****                     }
1885:Generated_Source\PSoC4/CYBLE_eventHandler.c ****                 }
1886:Generated_Source\PSoC4/CYBLE_eventHandler.c ****             }
ARM GAS  C:\Users\LIAMSA~1\AppData\Local\Temp\cc7Yswwd.s 			page 51


1887:Generated_Source\PSoC4/CYBLE_eventHandler.c ****             break;
 959              		.loc 1 1887 0
 960 024c 5EE0     		b	.L64
 961              	.L56:
1864:Generated_Source\PSoC4/CYBLE_eventHandler.c ****                 {
 962              		.loc 1 1864 0
 963 024e 3D4B     		ldr	r3, .L66
 964 0250 1B78     		ldrb	r3, [r3]
 965 0252 DBB2     		uxtb	r3, r3
 966 0254 1A00     		movs	r2, r3
 967 0256 0823     		movs	r3, #8
 968 0258 1340     		ands	r3, r2
 969 025a 0BD0     		beq	.L57
1866:Generated_Source\PSoC4/CYBLE_eventHandler.c ****                     cyBle_eventHandlerFlag &= (uint8)~CYBLE_STOP_FLAG;
 970              		.loc 1 1866 0
 971 025c 414B     		ldr	r3, .L66+32
 972 025e 0422     		movs	r2, #4
 973 0260 1A70     		strb	r2, [r3]
1867:Generated_Source\PSoC4/CYBLE_eventHandler.c ****                 }
 974              		.loc 1 1867 0
 975 0262 384B     		ldr	r3, .L66
 976 0264 1B78     		ldrb	r3, [r3]
 977 0266 DBB2     		uxtb	r3, r3
 978 0268 0822     		movs	r2, #8
 979 026a 9343     		bics	r3, r2
 980 026c DAB2     		uxtb	r2, r3
 981 026e 354B     		ldr	r3, .L66
 982 0270 1A70     		strb	r2, [r3]
 983              		.loc 1 1887 0
 984 0272 4BE0     		b	.L64
 985              	.L57:
1871:Generated_Source\PSoC4/CYBLE_eventHandler.c ****                     {
 986              		.loc 1 1871 0
 987 0274 3B4B     		ldr	r3, .L66+32
 988 0276 1B78     		ldrb	r3, [r3]
 989 0278 032B     		cmp	r3, #3
 990 027a 47D1     		bne	.L64
1873:Generated_Source\PSoC4/CYBLE_eventHandler.c ****                     #if ((CYBLE_SLOW_ADV_ENABLED != 0u) && (CYBLE_FAST_ADV_TIMEOUT != 0u))
 991              		.loc 1 1873 0
 992 027c 394B     		ldr	r3, .L66+32
 993 027e 0422     		movs	r2, #4
 994 0280 1A70     		strb	r2, [r3]
 995              		.loc 1 1887 0
 996 0282 43E0     		b	.L64
 997              	.L45:
1888:Generated_Source\PSoC4/CYBLE_eventHandler.c ****         #endif /* CYBLE_GAP_ROLE_PERIPHERAL || CYBLE_GAP_ROLE_BROADCASTER */
1889:Generated_Source\PSoC4/CYBLE_eventHandler.c ****         
1890:Generated_Source\PSoC4/CYBLE_eventHandler.c ****         #if(CYBLE_GAP_ROLE_CENTRAL || CYBLE_GAP_ROLE_OBSERVER)    
1891:Generated_Source\PSoC4/CYBLE_eventHandler.c ****         case CYBLE_EVT_GAPC_SCAN_START_STOP:
1892:Generated_Source\PSoC4/CYBLE_eventHandler.c ****             #ifdef CYBLE_CPS_CLIENT
1893:Generated_Source\PSoC4/CYBLE_eventHandler.c ****                 CyBle_CpscScanStartStopEventHandler();
1894:Generated_Source\PSoC4/CYBLE_eventHandler.c ****             #endif /* CYBLE_CPS_CLIENT */
1895:Generated_Source\PSoC4/CYBLE_eventHandler.c ****             
1896:Generated_Source\PSoC4/CYBLE_eventHandler.c ****             if((CYBLE_STATE_CONNECTED != CyBle_GetState()) && ((cyBle_eventHandlerFlag & CYBLE_CALL
1897:Generated_Source\PSoC4/CYBLE_eventHandler.c ****             {
1898:Generated_Source\PSoC4/CYBLE_eventHandler.c ****                 /* After CyBle_GapcStartScan first event indicates that scanning has been started *
1899:Generated_Source\PSoC4/CYBLE_eventHandler.c ****                 if(0u != (cyBle_eventHandlerFlag & CYBLE_START_FLAG))
ARM GAS  C:\Users\LIAMSA~1\AppData\Local\Temp\cc7Yswwd.s 			page 52


1900:Generated_Source\PSoC4/CYBLE_eventHandler.c ****                 {
1901:Generated_Source\PSoC4/CYBLE_eventHandler.c ****                     CyBle_SetState(CYBLE_STATE_SCANNING);
1902:Generated_Source\PSoC4/CYBLE_eventHandler.c ****                     cyBle_eventHandlerFlag &= (uint8)~CYBLE_START_FLAG;
1903:Generated_Source\PSoC4/CYBLE_eventHandler.c ****                 }
1904:Generated_Source\PSoC4/CYBLE_eventHandler.c ****                 /* When application initiated stop scanning */
1905:Generated_Source\PSoC4/CYBLE_eventHandler.c ****                 else if(0u != (cyBle_eventHandlerFlag & CYBLE_STOP_FLAG))
1906:Generated_Source\PSoC4/CYBLE_eventHandler.c ****                 {
1907:Generated_Source\PSoC4/CYBLE_eventHandler.c ****                     CyBle_SetState(CYBLE_STATE_DISCONNECTED);  
1908:Generated_Source\PSoC4/CYBLE_eventHandler.c ****                     cyBle_eventHandlerFlag &= (uint8)~CYBLE_STOP_FLAG;
1909:Generated_Source\PSoC4/CYBLE_eventHandler.c ****                 }
1910:Generated_Source\PSoC4/CYBLE_eventHandler.c ****                 else /* Following event indicates that scanning has been stopped by stack */
1911:Generated_Source\PSoC4/CYBLE_eventHandler.c ****                 {
1912:Generated_Source\PSoC4/CYBLE_eventHandler.c ****                     if(CyBle_GetState() == CYBLE_STATE_SCANNING)
1913:Generated_Source\PSoC4/CYBLE_eventHandler.c ****                     {
1914:Generated_Source\PSoC4/CYBLE_eventHandler.c ****                         CyBle_SetState(CYBLE_STATE_DISCONNECTED);  
1915:Generated_Source\PSoC4/CYBLE_eventHandler.c ****                     #if ((CYBLE_SLOW_SCAN_ENABLED != 0u) && (CYBLE_FAST_SCAN_TIMEOUT != 0u))
1916:Generated_Source\PSoC4/CYBLE_eventHandler.c ****                         if(cyBle_scanningIntervalType == CYBLE_SCANNING_FAST)
1917:Generated_Source\PSoC4/CYBLE_eventHandler.c ****                         {
1918:Generated_Source\PSoC4/CYBLE_eventHandler.c ****                             /* When fast scanning time out occur: Start slow scanning */
1919:Generated_Source\PSoC4/CYBLE_eventHandler.c ****                             if(CyBle_GapcStartScan(CYBLE_SCANNING_SLOW) == CYBLE_ERROR_OK)
1920:Generated_Source\PSoC4/CYBLE_eventHandler.c ****                             {
1921:Generated_Source\PSoC4/CYBLE_eventHandler.c ****                                 CyBle_SetState(CYBLE_STATE_SCANNING);
1922:Generated_Source\PSoC4/CYBLE_eventHandler.c ****                             }
1923:Generated_Source\PSoC4/CYBLE_eventHandler.c ****                         }
1924:Generated_Source\PSoC4/CYBLE_eventHandler.c ****                     #endif /* CYBLE_SLOW_SCAN_ENABLED */
1925:Generated_Source\PSoC4/CYBLE_eventHandler.c ****                     }
1926:Generated_Source\PSoC4/CYBLE_eventHandler.c ****                 }
1927:Generated_Source\PSoC4/CYBLE_eventHandler.c ****             }
1928:Generated_Source\PSoC4/CYBLE_eventHandler.c ****             break;
1929:Generated_Source\PSoC4/CYBLE_eventHandler.c ****         #endif /* CYBLE_GAP_ROLE_CENTRAL || CYBLE_GAP_ROLE_OBSERVER */
1930:Generated_Source\PSoC4/CYBLE_eventHandler.c **** 
1931:Generated_Source\PSoC4/CYBLE_eventHandler.c ****         /**********************************************************
1932:Generated_Source\PSoC4/CYBLE_eventHandler.c ****         * L2AP events 
1933:Generated_Source\PSoC4/CYBLE_eventHandler.c ****         ************************************************************/
1934:Generated_Source\PSoC4/CYBLE_eventHandler.c ****         case CYBLE_EVT_L2CAP_CONN_PARAM_UPDATE_RSP:
1935:Generated_Source\PSoC4/CYBLE_eventHandler.c ****             CyBle_L2Cap_ConnParamUpdateRspEventHandler(*(uint16 *)eventParam);
 998              		.loc 1 1935 0
 999 0284 3B68     		ldr	r3, [r7]
 1000 0286 1B88     		ldrh	r3, [r3]
 1001 0288 1800     		movs	r0, r3
 1002 028a FFF7FEFF 		bl	CyBle_L2Cap_ConnParamUpdateRspEventHandler
1936:Generated_Source\PSoC4/CYBLE_eventHandler.c ****             break;
 1003              		.loc 1 1936 0
 1004 028e 3EE0     		b	.L49
 1005              	.L36:
1937:Generated_Source\PSoC4/CYBLE_eventHandler.c ****         
1938:Generated_Source\PSoC4/CYBLE_eventHandler.c ****         /**********************************************************
1939:Generated_Source\PSoC4/CYBLE_eventHandler.c ****         * GATT events
1940:Generated_Source\PSoC4/CYBLE_eventHandler.c ****         ************************************************************/        
1941:Generated_Source\PSoC4/CYBLE_eventHandler.c ****         case CYBLE_EVT_GATT_CONNECT_IND:
1942:Generated_Source\PSoC4/CYBLE_eventHandler.c ****             cyBle_connHandle = *(CYBLE_CONN_HANDLE_T *)eventParam;
 1006              		.loc 1 1942 0
 1007 0290 394A     		ldr	r2, .L66+52
 1008 0292 3B68     		ldr	r3, [r7]
 1009 0294 1000     		movs	r0, r2
 1010 0296 1900     		movs	r1, r3
 1011 0298 0223     		movs	r3, #2
ARM GAS  C:\Users\LIAMSA~1\AppData\Local\Temp\cc7Yswwd.s 			page 53


 1012 029a 1A00     		movs	r2, r3
 1013 029c FFF7FEFF 		bl	memcpy
1943:Generated_Source\PSoC4/CYBLE_eventHandler.c ****             cyBle_busyStatus = CYBLE_STACK_STATE_FREE;
 1014              		.loc 1 1943 0
 1015 02a0 314B     		ldr	r3, .L66+36
 1016 02a2 0022     		movs	r2, #0
 1017 02a4 1A70     		strb	r2, [r3]
1944:Generated_Source\PSoC4/CYBLE_eventHandler.c ****             
1945:Generated_Source\PSoC4/CYBLE_eventHandler.c ****         #if((CYBLE_GATT_ROLE_SERVER) && (CYBLE_GATT_DB_CCCD_COUNT != 0u) && \
1946:Generated_Source\PSoC4/CYBLE_eventHandler.c ****             (CYBLE_BONDING_REQUIREMENT == CYBLE_BONDING_YES))
1947:Generated_Source\PSoC4/CYBLE_eventHandler.c ****             /* Init CCCD values in RAM when bonding is enabled */
1948:Generated_Source\PSoC4/CYBLE_eventHandler.c ****         	(void) memcpy (cyBle_attValuesCCCD, cyBle_flashStorage.attValuesCCCDFlashMemory[cyBle_conn
1949:Generated_Source\PSoC4/CYBLE_eventHandler.c ****                             CYBLE_GATT_DB_CCCD_COUNT);
1950:Generated_Source\PSoC4/CYBLE_eventHandler.c ****         #endif /* CYBLE_GATT_ROLE_SERVER && (CYBLE_BONDING_REQUIREMENT == CYBLE_BONDING_YES) */
1951:Generated_Source\PSoC4/CYBLE_eventHandler.c ****         
1952:Generated_Source\PSoC4/CYBLE_eventHandler.c ****         #if (CYBLE_GATT_ROLE_CLIENT)
1953:Generated_Source\PSoC4/CYBLE_eventHandler.c ****             CyBle_SetClientState(CYBLE_CLIENT_STATE_CONNECTED);
1954:Generated_Source\PSoC4/CYBLE_eventHandler.c ****         #endif /* CYBLE_GATT_ROLE_CLIENT */
1955:Generated_Source\PSoC4/CYBLE_eventHandler.c ****         
1956:Generated_Source\PSoC4/CYBLE_eventHandler.c ****             CyBle_GattConnectReqHandler();
 1018              		.loc 1 1956 0
 1019 02a6 FFF7FEFF 		bl	CyBle_GattConnectReqHandler
1957:Generated_Source\PSoC4/CYBLE_eventHandler.c ****             break;
 1020              		.loc 1 1957 0
 1021 02aa 30E0     		b	.L49
 1022              	.L37:
1958:Generated_Source\PSoC4/CYBLE_eventHandler.c **** 
1959:Generated_Source\PSoC4/CYBLE_eventHandler.c ****         case CYBLE_EVT_GATT_DISCONNECT_IND:
1960:Generated_Source\PSoC4/CYBLE_eventHandler.c ****             CyBle_GattDisconnectEventHandler();
 1023              		.loc 1 1960 0
 1024 02ac FFF7FEFF 		bl	CyBle_GattDisconnectEventHandler
1961:Generated_Source\PSoC4/CYBLE_eventHandler.c ****             break;
 1025              		.loc 1 1961 0
 1026 02b0 2DE0     		b	.L49
 1027              	.L38:
 1028              	.LBB9:
1962:Generated_Source\PSoC4/CYBLE_eventHandler.c **** 
1963:Generated_Source\PSoC4/CYBLE_eventHandler.c ****     #if((CYBLE_GATT_ROLE_SERVER) || (CYBLE_GATT_ROLE_CLIENT))
1964:Generated_Source\PSoC4/CYBLE_eventHandler.c ****         case CYBLE_EVT_GATTS_XCNHG_MTU_REQ:
1965:Generated_Source\PSoC4/CYBLE_eventHandler.c ****             {
1966:Generated_Source\PSoC4/CYBLE_eventHandler.c ****                 uint16 cyBle_mtuSize;
1967:Generated_Source\PSoC4/CYBLE_eventHandler.c ****                 if(CYBLE_GATT_MTU > ((CYBLE_GATT_XCHG_MTU_PARAM_T *)eventParam)->mtu)
 1029              		.loc 1 1967 0
 1030 02b2 3B68     		ldr	r3, [r7]
 1031 02b4 5B88     		ldrh	r3, [r3, #2]
 1032 02b6 162B     		cmp	r3, #22
 1033 02b8 05D8     		bhi	.L58
1968:Generated_Source\PSoC4/CYBLE_eventHandler.c ****                 {
1969:Generated_Source\PSoC4/CYBLE_eventHandler.c ****                     cyBle_mtuSize = ((CYBLE_GATT_XCHG_MTU_PARAM_T *)eventParam)->mtu;
 1034              		.loc 1 1969 0
 1035 02ba 1E23     		movs	r3, #30
 1036 02bc FB18     		adds	r3, r7, r3
 1037 02be 3A68     		ldr	r2, [r7]
 1038 02c0 5288     		ldrh	r2, [r2, #2]
 1039 02c2 1A80     		strh	r2, [r3]
 1040 02c4 03E0     		b	.L59
 1041              	.L58:
ARM GAS  C:\Users\LIAMSA~1\AppData\Local\Temp\cc7Yswwd.s 			page 54


1970:Generated_Source\PSoC4/CYBLE_eventHandler.c ****                 }
1971:Generated_Source\PSoC4/CYBLE_eventHandler.c ****                 else
1972:Generated_Source\PSoC4/CYBLE_eventHandler.c ****                 {
1973:Generated_Source\PSoC4/CYBLE_eventHandler.c ****                     cyBle_mtuSize = CYBLE_GATT_MTU;
 1042              		.loc 1 1973 0
 1043 02c6 1E23     		movs	r3, #30
 1044 02c8 FB18     		adds	r3, r7, r3
 1045 02ca 1722     		movs	r2, #23
 1046 02cc 1A80     		strh	r2, [r3]
 1047              	.L59:
1974:Generated_Source\PSoC4/CYBLE_eventHandler.c ****                 }
1975:Generated_Source\PSoC4/CYBLE_eventHandler.c ****                 (void)CyBle_GattsExchangeMtuRsp(((CYBLE_GATT_XCHG_MTU_PARAM_T *)eventParam)->connHa
 1048              		.loc 1 1975 0
 1049 02ce 1E23     		movs	r3, #30
 1050 02d0 FB18     		adds	r3, r7, r3
 1051 02d2 1988     		ldrh	r1, [r3]
 1052 02d4 3B68     		ldr	r3, [r7]
 1053 02d6 1A88     		ldrh	r2, [r3]
 1054 02d8 0023     		movs	r3, #0
 1055 02da 1204     		lsls	r2, r2, #16
 1056 02dc 120C     		lsrs	r2, r2, #16
 1057 02de 1B0C     		lsrs	r3, r3, #16
 1058 02e0 1B04     		lsls	r3, r3, #16
 1059 02e2 1343     		orrs	r3, r2
 1060 02e4 1800     		movs	r0, r3
 1061 02e6 FFF7FEFF 		bl	CyBle_GattsExchangeMtuRsp
 1062              	.LBE9:
1976:Generated_Source\PSoC4/CYBLE_eventHandler.c ****             }
1977:Generated_Source\PSoC4/CYBLE_eventHandler.c ****             break;
 1063              		.loc 1 1977 0
 1064 02ea 10E0     		b	.L49
 1065              	.L39:
1978:Generated_Source\PSoC4/CYBLE_eventHandler.c ****     #endif /* CYBLE_GATT_ROLE_SERVER || CYBLE_GATT_ROLE_CLIENT */
1979:Generated_Source\PSoC4/CYBLE_eventHandler.c ****     
1980:Generated_Source\PSoC4/CYBLE_eventHandler.c ****     #if (CYBLE_GATT_ROLE_CLIENT)
1981:Generated_Source\PSoC4/CYBLE_eventHandler.c ****         case CYBLE_EVT_GAPC_SCAN_PROGRESS_RESULT:
1982:Generated_Source\PSoC4/CYBLE_eventHandler.c ****         #ifdef CYBLE_CPS_CLIENT
1983:Generated_Source\PSoC4/CYBLE_eventHandler.c ****             CyBle_CpscScanProcessEventHandler((CYBLE_GAPC_ADV_REPORT_T *)eventParam);
1984:Generated_Source\PSoC4/CYBLE_eventHandler.c ****         #endif /* CYBLE_CPS_CLIENT */
1985:Generated_Source\PSoC4/CYBLE_eventHandler.c ****             break;
1986:Generated_Source\PSoC4/CYBLE_eventHandler.c ****     #endif /* CYBLE_GATT_ROLE_CLIENT */
1987:Generated_Source\PSoC4/CYBLE_eventHandler.c **** 
1988:Generated_Source\PSoC4/CYBLE_eventHandler.c ****     #if(CYBLE_GATT_ROLE_SERVER)
1989:Generated_Source\PSoC4/CYBLE_eventHandler.c ****         case CYBLE_EVT_GATTS_WRITE_REQ:
1990:Generated_Source\PSoC4/CYBLE_eventHandler.c ****             CyBle_WriteReqHandler((CYBLE_GATTS_WRITE_REQ_PARAM_T *)eventParam);
 1066              		.loc 1 1990 0
 1067 02ec 3B68     		ldr	r3, [r7]
 1068 02ee 1800     		movs	r0, r3
 1069 02f0 FFF7FEFF 		bl	CyBle_WriteReqHandler
1991:Generated_Source\PSoC4/CYBLE_eventHandler.c ****             break;
 1070              		.loc 1 1991 0
 1071 02f4 0BE0     		b	.L49
 1072              	.L43:
1992:Generated_Source\PSoC4/CYBLE_eventHandler.c **** 
1993:Generated_Source\PSoC4/CYBLE_eventHandler.c ****         case CYBLE_EVT_GATTS_WRITE_CMD_REQ:
1994:Generated_Source\PSoC4/CYBLE_eventHandler.c ****         #ifdef CYBLE_AIOS_SERVER
1995:Generated_Source\PSoC4/CYBLE_eventHandler.c ****             if((cyBle_eventHandlerFlag & CYBLE_CALLBACK) != 0u)
ARM GAS  C:\Users\LIAMSA~1\AppData\Local\Temp\cc7Yswwd.s 			page 55


1996:Generated_Source\PSoC4/CYBLE_eventHandler.c ****             {
1997:Generated_Source\PSoC4/CYBLE_eventHandler.c ****                 (void)CyBle_AiossWriteEventHandler((CYBLE_GATTS_WRITE_REQ_PARAM_T *)eventParam);
1998:Generated_Source\PSoC4/CYBLE_eventHandler.c ****             }
1999:Generated_Source\PSoC4/CYBLE_eventHandler.c ****         #endif /* CYBLE_AIOS_SERVER */
2000:Generated_Source\PSoC4/CYBLE_eventHandler.c ****         #ifdef CYBLE_IAS_SERVER
2001:Generated_Source\PSoC4/CYBLE_eventHandler.c ****             if((cyBle_eventHandlerFlag & CYBLE_CALLBACK) != 0u)
2002:Generated_Source\PSoC4/CYBLE_eventHandler.c ****             {
2003:Generated_Source\PSoC4/CYBLE_eventHandler.c ****                 (void)CyBle_IassWriteCmdEventHandler((CYBLE_GATTS_WRITE_REQ_PARAM_T *)eventParam);
2004:Generated_Source\PSoC4/CYBLE_eventHandler.c ****             }
2005:Generated_Source\PSoC4/CYBLE_eventHandler.c ****         #endif /* CYBLE_IAS_SERVER */
2006:Generated_Source\PSoC4/CYBLE_eventHandler.c ****         #ifdef CYBLE_IPS_SERVER
2007:Generated_Source\PSoC4/CYBLE_eventHandler.c ****             if((cyBle_eventHandlerFlag & CYBLE_CALLBACK) != 0u)
2008:Generated_Source\PSoC4/CYBLE_eventHandler.c ****             {
2009:Generated_Source\PSoC4/CYBLE_eventHandler.c ****                 (void)CyBle_IpssWriteCmdEventHandler((CYBLE_GATTS_WRITE_REQ_PARAM_T *)eventParam);
2010:Generated_Source\PSoC4/CYBLE_eventHandler.c ****             }
2011:Generated_Source\PSoC4/CYBLE_eventHandler.c ****         #endif /* CYBLE_IPS_SERVER */
2012:Generated_Source\PSoC4/CYBLE_eventHandler.c ****         #ifdef CYBLE_HIDS_SERVER
2013:Generated_Source\PSoC4/CYBLE_eventHandler.c ****             if((cyBle_eventHandlerFlag & CYBLE_CALLBACK) != 0u)
2014:Generated_Source\PSoC4/CYBLE_eventHandler.c ****             {
2015:Generated_Source\PSoC4/CYBLE_eventHandler.c ****                 (void)CyBle_HidssWriteEventHandler((CYBLE_GATTS_WRITE_REQ_PARAM_T *)eventParam);
2016:Generated_Source\PSoC4/CYBLE_eventHandler.c ****             }
2017:Generated_Source\PSoC4/CYBLE_eventHandler.c ****         #endif /* CYBLE_HIDS_SERVER */
2018:Generated_Source\PSoC4/CYBLE_eventHandler.c ****         #ifdef CYBLE_PASS_SERVER
2019:Generated_Source\PSoC4/CYBLE_eventHandler.c ****             if((cyBle_eventHandlerFlag & CYBLE_CALLBACK) != 0u)
2020:Generated_Source\PSoC4/CYBLE_eventHandler.c ****             {
2021:Generated_Source\PSoC4/CYBLE_eventHandler.c ****                 (void)CyBle_PasssWriteCmdEventHandler((CYBLE_GATTS_WRITE_REQ_PARAM_T *)eventParam);
2022:Generated_Source\PSoC4/CYBLE_eventHandler.c ****             }
2023:Generated_Source\PSoC4/CYBLE_eventHandler.c ****         #endif /* CYBLE_PASS_SERVER */
2024:Generated_Source\PSoC4/CYBLE_eventHandler.c ****         #ifdef CYBLE_RTUS_SERVER
2025:Generated_Source\PSoC4/CYBLE_eventHandler.c ****             if((cyBle_eventHandlerFlag & CYBLE_CALLBACK) != 0u)
2026:Generated_Source\PSoC4/CYBLE_eventHandler.c ****             {
2027:Generated_Source\PSoC4/CYBLE_eventHandler.c ****                 (void)CyBle_RtussWriteCmdEventHandler((CYBLE_GATTS_WRITE_REQ_PARAM_T *)eventParam);
2028:Generated_Source\PSoC4/CYBLE_eventHandler.c ****             }
2029:Generated_Source\PSoC4/CYBLE_eventHandler.c ****         #endif /* CYBLE_RTUS_SERVER */
2030:Generated_Source\PSoC4/CYBLE_eventHandler.c ****         #ifdef CYBLE_SCPS_SERVER
2031:Generated_Source\PSoC4/CYBLE_eventHandler.c ****             if((cyBle_eventHandlerFlag & CYBLE_CALLBACK) != 0u)
2032:Generated_Source\PSoC4/CYBLE_eventHandler.c ****             {
2033:Generated_Source\PSoC4/CYBLE_eventHandler.c ****                 (void)CyBle_ScpssWriteEventHandler((CYBLE_GATTS_WRITE_REQ_PARAM_T *)eventParam);
2034:Generated_Source\PSoC4/CYBLE_eventHandler.c ****             }
2035:Generated_Source\PSoC4/CYBLE_eventHandler.c ****         #endif /* CYBLE_SCPS_SERVER */
2036:Generated_Source\PSoC4/CYBLE_eventHandler.c ****             break;
2037:Generated_Source\PSoC4/CYBLE_eventHandler.c ****         
2038:Generated_Source\PSoC4/CYBLE_eventHandler.c ****         case CYBLE_EVT_GATTS_PREP_WRITE_REQ:
2039:Generated_Source\PSoC4/CYBLE_eventHandler.c ****         #ifdef CYBLE_BMS_SERVER
2040:Generated_Source\PSoC4/CYBLE_eventHandler.c ****             CyBle_BmssPrepareWriteRequestEventHandler((CYBLE_GATTS_PREP_WRITE_REQ_PARAM_T *)eventPa
2041:Generated_Source\PSoC4/CYBLE_eventHandler.c ****         #endif /* CYBLE_BMS_SERVER */
2042:Generated_Source\PSoC4/CYBLE_eventHandler.c ****         #ifdef CYBLE_BTS_SERVER
2043:Generated_Source\PSoC4/CYBLE_eventHandler.c ****             if((cyBle_eventHandlerFlag & CYBLE_CALLBACK) != 0u)
2044:Generated_Source\PSoC4/CYBLE_eventHandler.c ****             {
2045:Generated_Source\PSoC4/CYBLE_eventHandler.c ****                 CyBle_BtssPrepareWriteRequestEventHandler((CYBLE_GATTS_PREP_WRITE_REQ_PARAM_T *)eve
2046:Generated_Source\PSoC4/CYBLE_eventHandler.c ****             }
2047:Generated_Source\PSoC4/CYBLE_eventHandler.c ****         #endif /* CYBLE_BTS_SERVER */
2048:Generated_Source\PSoC4/CYBLE_eventHandler.c ****         #ifdef CYBLE_ESS_SERVER
2049:Generated_Source\PSoC4/CYBLE_eventHandler.c ****             if((cyBle_eventHandlerFlag & CYBLE_CALLBACK) != 0u)
2050:Generated_Source\PSoC4/CYBLE_eventHandler.c ****             {
2051:Generated_Source\PSoC4/CYBLE_eventHandler.c ****                 CyBle_EsssPrepareWriteRequestEventHandler((CYBLE_GATTS_PREP_WRITE_REQ_PARAM_T *)eve
2052:Generated_Source\PSoC4/CYBLE_eventHandler.c ****             }
ARM GAS  C:\Users\LIAMSA~1\AppData\Local\Temp\cc7Yswwd.s 			page 56


2053:Generated_Source\PSoC4/CYBLE_eventHandler.c ****         #endif /* CYBLE_ESS_SERVER */
2054:Generated_Source\PSoC4/CYBLE_eventHandler.c ****         #ifdef CYBLE_HPS_SERVER
2055:Generated_Source\PSoC4/CYBLE_eventHandler.c ****             if((cyBle_eventHandlerFlag & CYBLE_CALLBACK) != 0u)
2056:Generated_Source\PSoC4/CYBLE_eventHandler.c ****             {
2057:Generated_Source\PSoC4/CYBLE_eventHandler.c ****                 CyBle_HpssPrepareWriteRequestEventHandler((CYBLE_GATTS_PREP_WRITE_REQ_PARAM_T *)eve
2058:Generated_Source\PSoC4/CYBLE_eventHandler.c ****             }
2059:Generated_Source\PSoC4/CYBLE_eventHandler.c ****         #endif /* CYBLE_HPS_SERVER */
2060:Generated_Source\PSoC4/CYBLE_eventHandler.c ****         #ifdef CYBLE_IPS_SERVER
2061:Generated_Source\PSoC4/CYBLE_eventHandler.c ****             if((cyBle_eventHandlerFlag & CYBLE_CALLBACK) != 0u)
2062:Generated_Source\PSoC4/CYBLE_eventHandler.c ****             {
2063:Generated_Source\PSoC4/CYBLE_eventHandler.c ****                 CyBle_IpssPrepareWriteRequestEventHandler((CYBLE_GATTS_PREP_WRITE_REQ_PARAM_T *)eve
2064:Generated_Source\PSoC4/CYBLE_eventHandler.c ****             }
2065:Generated_Source\PSoC4/CYBLE_eventHandler.c ****         #endif /* CYBLE_IPS_SERVER */
2066:Generated_Source\PSoC4/CYBLE_eventHandler.c ****         #ifdef CYBLE_OTS_SERVER
2067:Generated_Source\PSoC4/CYBLE_eventHandler.c ****             if((cyBle_eventHandlerFlag & CYBLE_CALLBACK) != 0u)
2068:Generated_Source\PSoC4/CYBLE_eventHandler.c ****             {
2069:Generated_Source\PSoC4/CYBLE_eventHandler.c ****                 CyBle_OtssPrepareWriteRequestEventHandler((CYBLE_GATTS_PREP_WRITE_REQ_PARAM_T *)eve
2070:Generated_Source\PSoC4/CYBLE_eventHandler.c ****             }
2071:Generated_Source\PSoC4/CYBLE_eventHandler.c ****         #endif /* CYBLE_OTS_SERVER */
2072:Generated_Source\PSoC4/CYBLE_eventHandler.c ****         #ifdef CYBLE_UDS_SERVER
2073:Generated_Source\PSoC4/CYBLE_eventHandler.c ****             if((cyBle_eventHandlerFlag & CYBLE_CALLBACK) != 0u)
2074:Generated_Source\PSoC4/CYBLE_eventHandler.c ****             {
2075:Generated_Source\PSoC4/CYBLE_eventHandler.c ****                 CyBle_UdssPrepareWriteRequestEventHandler((CYBLE_GATTS_PREP_WRITE_REQ_PARAM_T *)eve
2076:Generated_Source\PSoC4/CYBLE_eventHandler.c ****             }
2077:Generated_Source\PSoC4/CYBLE_eventHandler.c ****         #endif /* CYBLE_UDS_SERVER */
2078:Generated_Source\PSoC4/CYBLE_eventHandler.c ****             break;
2079:Generated_Source\PSoC4/CYBLE_eventHandler.c **** 
2080:Generated_Source\PSoC4/CYBLE_eventHandler.c ****         case CYBLE_EVT_GATTS_EXEC_WRITE_REQ:
2081:Generated_Source\PSoC4/CYBLE_eventHandler.c ****         #ifdef CYBLE_BMS_SERVER
2082:Generated_Source\PSoC4/CYBLE_eventHandler.c ****             CyBle_BmssExecuteWriteRequestEventHandler((CYBLE_GATTS_EXEC_WRITE_REQ_T *)eventParam);
2083:Generated_Source\PSoC4/CYBLE_eventHandler.c ****         #endif /* CYBLE_BMS_SERVER */
2084:Generated_Source\PSoC4/CYBLE_eventHandler.c ****         #ifdef CYBLE_BTS_SERVER
2085:Generated_Source\PSoC4/CYBLE_eventHandler.c ****             CyBle_BtssExecuteWriteRequestEventHandler((CYBLE_GATTS_EXEC_WRITE_REQ_T *)eventParam);
2086:Generated_Source\PSoC4/CYBLE_eventHandler.c ****         #endif /* CYBLE_BTS_SERVER */
2087:Generated_Source\PSoC4/CYBLE_eventHandler.c ****         #ifdef CYBLE_ESS_SERVER
2088:Generated_Source\PSoC4/CYBLE_eventHandler.c ****             CyBle_EsssExecuteWriteRequestEventHandler((CYBLE_GATTS_EXEC_WRITE_REQ_T *)eventParam);
2089:Generated_Source\PSoC4/CYBLE_eventHandler.c ****         #endif /* CYBLE_ESS_SERVER */
2090:Generated_Source\PSoC4/CYBLE_eventHandler.c ****         #ifdef CYBLE_HPS_SERVER
2091:Generated_Source\PSoC4/CYBLE_eventHandler.c ****             CyBle_HpssExecuteWriteRequestEventHandler((CYBLE_GATTS_EXEC_WRITE_REQ_T *)eventParam);
2092:Generated_Source\PSoC4/CYBLE_eventHandler.c ****         #endif /* CYBLE_HPS_SERVER */
2093:Generated_Source\PSoC4/CYBLE_eventHandler.c ****         #ifdef CYBLE_IPS_SERVER
2094:Generated_Source\PSoC4/CYBLE_eventHandler.c ****             CyBle_IpssExecuteWriteRequestEventHandler((CYBLE_GATTS_EXEC_WRITE_REQ_T *)eventParam);
2095:Generated_Source\PSoC4/CYBLE_eventHandler.c ****         #endif /* CYBLE_IPS_SERVER */
2096:Generated_Source\PSoC4/CYBLE_eventHandler.c ****         #ifdef CYBLE_OTS_SERVER
2097:Generated_Source\PSoC4/CYBLE_eventHandler.c ****             CyBle_OtssExecuteWriteRequestEventHandler((CYBLE_GATTS_EXEC_WRITE_REQ_T *)eventParam);
2098:Generated_Source\PSoC4/CYBLE_eventHandler.c ****         #endif /* CYBLE_OTS_SERVER */
2099:Generated_Source\PSoC4/CYBLE_eventHandler.c **** 		#ifdef CYBLE_UDS_SERVER
2100:Generated_Source\PSoC4/CYBLE_eventHandler.c ****             CyBle_UdssExecuteWriteRequestEventHandler((CYBLE_GATTS_EXEC_WRITE_REQ_T *)eventParam);
2101:Generated_Source\PSoC4/CYBLE_eventHandler.c ****         #endif /* CYBLE_UDS_SERVER */
2102:Generated_Source\PSoC4/CYBLE_eventHandler.c ****             break;
2103:Generated_Source\PSoC4/CYBLE_eventHandler.c ****         
2104:Generated_Source\PSoC4/CYBLE_eventHandler.c ****         case CYBLE_EVT_GATTS_HANDLE_VALUE_CNF:
2105:Generated_Source\PSoC4/CYBLE_eventHandler.c ****             CyBle_ValueConfirmation((CYBLE_CONN_HANDLE_T *)eventParam);
 1073              		.loc 1 2105 0
 1074 02f6 3B68     		ldr	r3, [r7]
 1075 02f8 1800     		movs	r0, r3
 1076 02fa FFF7FEFF 		bl	CyBle_ValueConfirmation
ARM GAS  C:\Users\LIAMSA~1\AppData\Local\Temp\cc7Yswwd.s 			page 57


2106:Generated_Source\PSoC4/CYBLE_eventHandler.c ****             break;
 1077              		.loc 1 2106 0
 1078 02fe 06E0     		b	.L49
 1079              	.L61:
2107:Generated_Source\PSoC4/CYBLE_eventHandler.c ****             
2108:Generated_Source\PSoC4/CYBLE_eventHandler.c ****         case CYBLE_EVT_GATTS_READ_CHAR_VAL_ACCESS_REQ:
2109:Generated_Source\PSoC4/CYBLE_eventHandler.c ****         #ifdef CYBLE_UDS_SERVER
2110:Generated_Source\PSoC4/CYBLE_eventHandler.c ****             CyBle_UdssReadRequestEventHandler((CYBLE_GATTS_CHAR_VAL_READ_REQ_T *)eventParam);
2111:Generated_Source\PSoC4/CYBLE_eventHandler.c ****         #endif /* CYBLE_UDS_SERVER */
2112:Generated_Source\PSoC4/CYBLE_eventHandler.c ****             break;
2113:Generated_Source\PSoC4/CYBLE_eventHandler.c ****             
2114:Generated_Source\PSoC4/CYBLE_eventHandler.c ****     #endif /* CYBLE_GATT_ROLE_SERVER */
2115:Generated_Source\PSoC4/CYBLE_eventHandler.c **** 
2116:Generated_Source\PSoC4/CYBLE_eventHandler.c ****     #if (CYBLE_GATT_ROLE_CLIENT)
2117:Generated_Source\PSoC4/CYBLE_eventHandler.c ****         
2118:Generated_Source\PSoC4/CYBLE_eventHandler.c ****         case CYBLE_EVT_GATTC_READ_BY_GROUP_TYPE_RSP:
2119:Generated_Source\PSoC4/CYBLE_eventHandler.c ****             CyBle_ReadByGroupEventHandler((CYBLE_GATTC_READ_BY_GRP_RSP_PARAM_T *)eventParam);
2120:Generated_Source\PSoC4/CYBLE_eventHandler.c ****             break;
2121:Generated_Source\PSoC4/CYBLE_eventHandler.c **** 
2122:Generated_Source\PSoC4/CYBLE_eventHandler.c ****         case CYBLE_EVT_GATTC_READ_BY_TYPE_RSP:
2123:Generated_Source\PSoC4/CYBLE_eventHandler.c ****             CyBle_ReadByTypeEventHandler((CYBLE_GATTC_READ_BY_TYPE_RSP_PARAM_T *)eventParam);
2124:Generated_Source\PSoC4/CYBLE_eventHandler.c ****             break;
2125:Generated_Source\PSoC4/CYBLE_eventHandler.c **** 
2126:Generated_Source\PSoC4/CYBLE_eventHandler.c ****         case CYBLE_EVT_GATTC_READ_BLOB_RSP:
2127:Generated_Source\PSoC4/CYBLE_eventHandler.c ****         #ifdef CYBLE_ESS_CLIENT
2128:Generated_Source\PSoC4/CYBLE_eventHandler.c ****             CyBle_EsscReadLongRespEventHandler((CYBLE_GATTC_READ_RSP_PARAM_T *)eventParam);
2129:Generated_Source\PSoC4/CYBLE_eventHandler.c ****         #endif /* CYBLE_ESS_CLIENT */
2130:Generated_Source\PSoC4/CYBLE_eventHandler.c ****         #ifdef CYBLE_HPS_CLIENT
2131:Generated_Source\PSoC4/CYBLE_eventHandler.c ****             CyBle_HpscReadLongRespEventHandler((CYBLE_GATTC_READ_RSP_PARAM_T *)eventParam);
2132:Generated_Source\PSoC4/CYBLE_eventHandler.c ****         #endif /* CYBLE_HPS_CLIENT */
2133:Generated_Source\PSoC4/CYBLE_eventHandler.c **** 		#ifdef CYBLE_IPS_CLIENT
2134:Generated_Source\PSoC4/CYBLE_eventHandler.c ****             CyBle_IpscReadLongRespEventHandler((CYBLE_GATTC_READ_RSP_PARAM_T *)eventParam);
2135:Generated_Source\PSoC4/CYBLE_eventHandler.c ****         #endif /* CYBLE_IPS_CLIENT */
2136:Generated_Source\PSoC4/CYBLE_eventHandler.c ****         #ifdef CYBLE_OTS_CLIENT
2137:Generated_Source\PSoC4/CYBLE_eventHandler.c ****             CyBle_OtscReadLongRespEventHandler((CYBLE_GATTC_READ_RSP_PARAM_T *)eventParam);
2138:Generated_Source\PSoC4/CYBLE_eventHandler.c ****         #endif /* CYBLE_OTS_CLIENT */
2139:Generated_Source\PSoC4/CYBLE_eventHandler.c ****         #ifdef CYBLE_UDS_CLIENT
2140:Generated_Source\PSoC4/CYBLE_eventHandler.c ****             if((cyBle_eventHandlerFlag & CYBLE_CALLBACK) != 0u)
2141:Generated_Source\PSoC4/CYBLE_eventHandler.c ****             {
2142:Generated_Source\PSoC4/CYBLE_eventHandler.c ****                 CyBle_UdscReadLongRespEventHandler((CYBLE_GATTC_READ_RSP_PARAM_T *)eventParam);
2143:Generated_Source\PSoC4/CYBLE_eventHandler.c ****             }
2144:Generated_Source\PSoC4/CYBLE_eventHandler.c ****         #endif /* CYBLE_UDS_CLIENT */
2145:Generated_Source\PSoC4/CYBLE_eventHandler.c ****             break;
2146:Generated_Source\PSoC4/CYBLE_eventHandler.c ****         
2147:Generated_Source\PSoC4/CYBLE_eventHandler.c ****         case CYBLE_EVT_GATTC_LONG_PROCEDURE_END:
2148:Generated_Source\PSoC4/CYBLE_eventHandler.c ****             CyBle_LongProcedureEndEventHandler();
2149:Generated_Source\PSoC4/CYBLE_eventHandler.c ****             break;
2150:Generated_Source\PSoC4/CYBLE_eventHandler.c ****         
2151:Generated_Source\PSoC4/CYBLE_eventHandler.c ****         case CYBLE_EVT_GATTC_FIND_INFO_RSP:
2152:Generated_Source\PSoC4/CYBLE_eventHandler.c ****             CyBle_FindInfoEventHandler((CYBLE_GATTC_FIND_INFO_RSP_PARAM_T *)eventParam);
2153:Generated_Source\PSoC4/CYBLE_eventHandler.c ****             break;
2154:Generated_Source\PSoC4/CYBLE_eventHandler.c **** 
2155:Generated_Source\PSoC4/CYBLE_eventHandler.c ****         case CYBLE_EVT_GATTC_ERROR_RSP:
2156:Generated_Source\PSoC4/CYBLE_eventHandler.c ****             CyBle_ErrorResponseEventHandler((CYBLE_GATTC_ERR_RSP_PARAM_T *)eventParam);
2157:Generated_Source\PSoC4/CYBLE_eventHandler.c ****             break;
2158:Generated_Source\PSoC4/CYBLE_eventHandler.c **** 
2159:Generated_Source\PSoC4/CYBLE_eventHandler.c ****         case CYBLE_EVT_GATTC_HANDLE_VALUE_NTF:
ARM GAS  C:\Users\LIAMSA~1\AppData\Local\Temp\cc7Yswwd.s 			page 58


2160:Generated_Source\PSoC4/CYBLE_eventHandler.c ****             CyBle_NotificationEventHandler((CYBLE_GATTC_HANDLE_VALUE_NTF_PARAM_T *)eventParam);
2161:Generated_Source\PSoC4/CYBLE_eventHandler.c ****             break;
2162:Generated_Source\PSoC4/CYBLE_eventHandler.c **** 
2163:Generated_Source\PSoC4/CYBLE_eventHandler.c ****         case CYBLE_EVT_GATTC_HANDLE_VALUE_IND:
2164:Generated_Source\PSoC4/CYBLE_eventHandler.c ****             CyBle_GattcIndicationEventHandler((CYBLE_GATTC_HANDLE_VALUE_IND_PARAM_T *)eventParam);
2165:Generated_Source\PSoC4/CYBLE_eventHandler.c ****             CyBle_IndicationEventHandler((CYBLE_GATTC_HANDLE_VALUE_IND_PARAM_T *)eventParam);
2166:Generated_Source\PSoC4/CYBLE_eventHandler.c ****         
2167:Generated_Source\PSoC4/CYBLE_eventHandler.c ****             /* Respond with a Handle Value Confirmation when request handled */
2168:Generated_Source\PSoC4/CYBLE_eventHandler.c ****             if((cyBle_eventHandlerFlag & CYBLE_CALLBACK) == 0u)
2169:Generated_Source\PSoC4/CYBLE_eventHandler.c ****             {
2170:Generated_Source\PSoC4/CYBLE_eventHandler.c ****                 (void)CyBle_GattcConfirmation(((CYBLE_GATTC_HANDLE_VALUE_IND_PARAM_T *)eventParam)-
2171:Generated_Source\PSoC4/CYBLE_eventHandler.c ****             }
2172:Generated_Source\PSoC4/CYBLE_eventHandler.c ****             break;
2173:Generated_Source\PSoC4/CYBLE_eventHandler.c ****         
2174:Generated_Source\PSoC4/CYBLE_eventHandler.c ****         case CYBLE_EVT_GATTC_READ_RSP:
2175:Generated_Source\PSoC4/CYBLE_eventHandler.c ****             CyBle_ReadResponseEventHandler((CYBLE_GATTC_READ_RSP_PARAM_T *)eventParam);
2176:Generated_Source\PSoC4/CYBLE_eventHandler.c ****             break;
2177:Generated_Source\PSoC4/CYBLE_eventHandler.c ****         
2178:Generated_Source\PSoC4/CYBLE_eventHandler.c ****         case CYBLE_EVT_GATTC_READ_MULTI_RSP:
2179:Generated_Source\PSoC4/CYBLE_eventHandler.c ****             CyBle_ReadMultipleResponseEventHandler((CYBLE_GATTC_READ_RSP_PARAM_T *)eventParam);
2180:Generated_Source\PSoC4/CYBLE_eventHandler.c ****             break;
2181:Generated_Source\PSoC4/CYBLE_eventHandler.c ****             
2182:Generated_Source\PSoC4/CYBLE_eventHandler.c ****         case CYBLE_EVT_GATTC_WRITE_RSP:
2183:Generated_Source\PSoC4/CYBLE_eventHandler.c ****             CyBle_GattcWriteResponseEventHandler((CYBLE_CONN_HANDLE_T *)eventParam);
2184:Generated_Source\PSoC4/CYBLE_eventHandler.c ****             break;
2185:Generated_Source\PSoC4/CYBLE_eventHandler.c ****             
2186:Generated_Source\PSoC4/CYBLE_eventHandler.c ****         case CYBLE_EVT_GATTC_EXEC_WRITE_RSP:
2187:Generated_Source\PSoC4/CYBLE_eventHandler.c ****         #ifdef CYBLE_BMS_CLIENT
2188:Generated_Source\PSoC4/CYBLE_eventHandler.c ****             CyBle_BmscExecuteWriteResponseEventHandler((CYBLE_GATTC_EXEC_WRITE_RSP_T *)eventParam);
2189:Generated_Source\PSoC4/CYBLE_eventHandler.c ****         #endif /* CYBLE_BMS_CLIENT */
2190:Generated_Source\PSoC4/CYBLE_eventHandler.c ****         #ifdef CYBLE_ESS_CLIENT
2191:Generated_Source\PSoC4/CYBLE_eventHandler.c ****             if((cyBle_eventHandlerFlag & CYBLE_CALLBACK) != 0u)
2192:Generated_Source\PSoC4/CYBLE_eventHandler.c ****             {
2193:Generated_Source\PSoC4/CYBLE_eventHandler.c ****                 CyBle_EsscExecuteWriteResponseEventHandler((CYBLE_GATTC_EXEC_WRITE_RSP_T *)eventPar
2194:Generated_Source\PSoC4/CYBLE_eventHandler.c ****             }
2195:Generated_Source\PSoC4/CYBLE_eventHandler.c ****         #endif /* CYBLE_ESS_CLIENT */
2196:Generated_Source\PSoC4/CYBLE_eventHandler.c ****         #ifdef CYBLE_HPS_CLIENT
2197:Generated_Source\PSoC4/CYBLE_eventHandler.c ****             if((cyBle_eventHandlerFlag & CYBLE_CALLBACK) != 0u)
2198:Generated_Source\PSoC4/CYBLE_eventHandler.c ****             {
2199:Generated_Source\PSoC4/CYBLE_eventHandler.c ****                 CyBle_HpscExecuteWriteResponseEventHandler((CYBLE_GATTC_EXEC_WRITE_RSP_T *)eventPar
2200:Generated_Source\PSoC4/CYBLE_eventHandler.c ****             }
2201:Generated_Source\PSoC4/CYBLE_eventHandler.c ****         #endif /* CYBLE_HPS_CLIENT */
2202:Generated_Source\PSoC4/CYBLE_eventHandler.c ****         #ifdef CYBLE_IPS_CLIENT
2203:Generated_Source\PSoC4/CYBLE_eventHandler.c ****             if((cyBle_eventHandlerFlag & CYBLE_CALLBACK) != 0u)
2204:Generated_Source\PSoC4/CYBLE_eventHandler.c ****             {
2205:Generated_Source\PSoC4/CYBLE_eventHandler.c ****                 CyBle_IpscExecuteWriteResponseEventHandler((CYBLE_GATTC_EXEC_WRITE_RSP_T *)eventPar
2206:Generated_Source\PSoC4/CYBLE_eventHandler.c ****             }
2207:Generated_Source\PSoC4/CYBLE_eventHandler.c ****         #endif /* CYBLE_IPS_CLIENT */
2208:Generated_Source\PSoC4/CYBLE_eventHandler.c ****         #ifdef CYBLE_OTS_CLIENT
2209:Generated_Source\PSoC4/CYBLE_eventHandler.c ****             if((cyBle_eventHandlerFlag & CYBLE_CALLBACK) != 0u)
2210:Generated_Source\PSoC4/CYBLE_eventHandler.c ****             {
2211:Generated_Source\PSoC4/CYBLE_eventHandler.c ****                 CyBle_OtscExecuteWriteResponseEventHandler((CYBLE_GATTC_EXEC_WRITE_RSP_T *)eventPar
2212:Generated_Source\PSoC4/CYBLE_eventHandler.c ****             }
2213:Generated_Source\PSoC4/CYBLE_eventHandler.c ****         #endif /* CYBLE_OTS_CLIENT */
2214:Generated_Source\PSoC4/CYBLE_eventHandler.c ****         #ifdef CYBLE_UDS_CLIENT
2215:Generated_Source\PSoC4/CYBLE_eventHandler.c ****             if((cyBle_eventHandlerFlag & CYBLE_CALLBACK) != 0u)
2216:Generated_Source\PSoC4/CYBLE_eventHandler.c ****             {
ARM GAS  C:\Users\LIAMSA~1\AppData\Local\Temp\cc7Yswwd.s 			page 59


2217:Generated_Source\PSoC4/CYBLE_eventHandler.c ****                 CyBle_UdscExecuteWriteResponseEventHandler((CYBLE_GATTC_EXEC_WRITE_RSP_T *)eventPar
2218:Generated_Source\PSoC4/CYBLE_eventHandler.c ****             }
2219:Generated_Source\PSoC4/CYBLE_eventHandler.c ****         #endif /* CYBLE_UDS_CLIENT */
2220:Generated_Source\PSoC4/CYBLE_eventHandler.c ****             break;
2221:Generated_Source\PSoC4/CYBLE_eventHandler.c ****             
2222:Generated_Source\PSoC4/CYBLE_eventHandler.c ****     #endif /* CYBLE_GATT_ROLE_CLIENT */
2223:Generated_Source\PSoC4/CYBLE_eventHandler.c **** 
2224:Generated_Source\PSoC4/CYBLE_eventHandler.c ****     #if((CYBLE_GAP_ROLE_PERIPHERAL || CYBLE_GAP_ROLE_CENTRAL) && (CYBLE_BONDING_REQUIREMENT == CYBL
2225:Generated_Source\PSoC4/CYBLE_eventHandler.c **** 
2226:Generated_Source\PSoC4/CYBLE_eventHandler.c ****         case CYBLE_EVT_PENDING_FLASH_WRITE:
2227:Generated_Source\PSoC4/CYBLE_eventHandler.c ****             cyBle_pendingFlashWrite |= CYBLE_PENDING_STACK_FLASH_WRITE_BIT;
2228:Generated_Source\PSoC4/CYBLE_eventHandler.c ****             break;
2229:Generated_Source\PSoC4/CYBLE_eventHandler.c ****         
2230:Generated_Source\PSoC4/CYBLE_eventHandler.c ****     #endif  /* (CYBLE_BONDING_REQUIREMENT == CYBLE_BONDING_YES) */
2231:Generated_Source\PSoC4/CYBLE_eventHandler.c ****     
2232:Generated_Source\PSoC4/CYBLE_eventHandler.c ****         default:
2233:Generated_Source\PSoC4/CYBLE_eventHandler.c ****             break;
 1080              		.loc 1 2233 0
 1081 0300 C046     		nop
 1082 0302 04E0     		b	.L49
 1083              	.L62:
1758:Generated_Source\PSoC4/CYBLE_eventHandler.c ****         /**********************************************************
 1084              		.loc 1 1758 0
 1085 0304 C046     		nop
 1086 0306 02E0     		b	.L49
 1087              	.L63:
1796:Generated_Source\PSoC4/CYBLE_eventHandler.c ****         
 1088              		.loc 1 1796 0
 1089 0308 C046     		nop
 1090 030a 00E0     		b	.L49
 1091              	.L64:
1887:Generated_Source\PSoC4/CYBLE_eventHandler.c ****         #endif /* CYBLE_GAP_ROLE_PERIPHERAL || CYBLE_GAP_ROLE_BROADCASTER */
 1092              		.loc 1 1887 0
 1093 030c C046     		nop
 1094              	.L49:
2234:Generated_Source\PSoC4/CYBLE_eventHandler.c ****     }
2235:Generated_Source\PSoC4/CYBLE_eventHandler.c **** 
2236:Generated_Source\PSoC4/CYBLE_eventHandler.c ****     if(0u != (cyBle_eventHandlerFlag & (CYBLE_CALLBACK | CYBLE_ENABLE_ALL_EVENTS))) 
 1095              		.loc 1 2236 0
 1096 030e 0D4B     		ldr	r3, .L66
 1097 0310 1B78     		ldrb	r3, [r3]
 1098 0312 DBB2     		uxtb	r3, r3
 1099 0314 1A00     		movs	r2, r3
 1100 0316 1123     		movs	r3, #17
 1101 0318 1340     		ands	r3, r2
 1102 031a 0ED0     		beq	.L65
2237:Generated_Source\PSoC4/CYBLE_eventHandler.c ****     {
2238:Generated_Source\PSoC4/CYBLE_eventHandler.c ****         cyBle_eventHandlerFlag &= (uint8)~CYBLE_CALLBACK;
 1103              		.loc 1 2238 0
 1104 031c 094B     		ldr	r3, .L66
 1105 031e 1B78     		ldrb	r3, [r3]
 1106 0320 DBB2     		uxtb	r3, r3
 1107 0322 0122     		movs	r2, #1
 1108 0324 9343     		bics	r3, r2
 1109 0326 DAB2     		uxtb	r2, r3
 1110 0328 064B     		ldr	r3, .L66
 1111 032a 1A70     		strb	r2, [r3]
ARM GAS  C:\Users\LIAMSA~1\AppData\Local\Temp\cc7Yswwd.s 			page 60


2239:Generated_Source\PSoC4/CYBLE_eventHandler.c ****         CyBle_ApplCallback((uint32)eventCode, eventParam);
 1112              		.loc 1 2239 0
 1113 032c 134B     		ldr	r3, .L66+56
 1114 032e 1B68     		ldr	r3, [r3]
 1115 0330 FA1D     		adds	r2, r7, #7
 1116 0332 1278     		ldrb	r2, [r2]
 1117 0334 3968     		ldr	r1, [r7]
 1118 0336 1000     		movs	r0, r2
 1119 0338 9847     		blx	r3
 1120              	.L65:
2240:Generated_Source\PSoC4/CYBLE_eventHandler.c ****     }
2241:Generated_Source\PSoC4/CYBLE_eventHandler.c **** }
 1121              		.loc 1 2241 0
 1122 033a C046     		nop
 1123 033c BD46     		mov	sp, r7
 1124 033e 08B0     		add	sp, sp, #32
 1125              		@ sp needed
 1126 0340 80BD     		pop	{r7, pc}
 1127              	.L67:
 1128 0342 C046     		.align	2
 1129              	.L66:
 1130 0344 00000000 		.word	cyBle_eventHandlerFlag
 1131 0348 0C000000 		.word	.L26
 1132 034c 00000000 		.word	cyBle_sflashDeviceAddress
 1133 0350 7CF2FF0F 		.word	268431996
 1134 0354 7DF2FF0F 		.word	268431997
 1135 0358 7BF2FF0F 		.word	268431995
 1136 035c 78F2FF0F 		.word	268431992
 1137 0360 00000000 		.word	cyBle_deviceAddress
 1138 0364 00000000 		.word	cyBle_state
 1139 0368 00000000 		.word	cyBle_busyStatus
 1140 036c 00000000 		.word	gPrepWriteReqMem.6745
 1141 0370 E00A0000 		.word	cyBle_stackMemoryRam+2784
 1142 0374 00000000 		.word	cyBle_authInfo
 1143 0378 00000000 		.word	cyBle_connHandle
 1144 037c 00000000 		.word	CyBle_ApplCallback
 1145              		.cfi_endproc
 1146              	.LFE10:
