ARM GAS  C:\Users\LIAMSA~1\AppData\Local\Temp\ccUb2vYG.s 			page 1


   1              		.syntax unified
   2              		.cpu cortex-m0
   3              		.fpu softvfp
   4              		.eabi_attribute 20, 1
   5              		.eabi_attribute 21, 1
   6              		.eabi_attribute 23, 3
   7              		.eabi_attribute 24, 1
   8              		.eabi_attribute 25, 1
   9              		.eabi_attribute 26, 1
  10              		.eabi_attribute 30, 6
  11              		.eabi_attribute 34, 0
  12              		.eabi_attribute 18, 4
  13              		.thumb
  14              		.syntax unified
  15              		.file	"lls.c"
  16              		.text
  17              	.Ltext0:
  18              		.cfi_sections	.debug_frame
  19              		.comm	llsAlertTOCounter,1,1
  20              		.comm	alertLevel,1,1
  21              		.section	.rodata
  22              		.align	2
  23              	.LC0:
  24 0000 57726974 		.ascii	"Write LLS Alert Level request received \015\000"
  24      65204C4C 
  24      5320416C 
  24      65727420 
  24      4C657665 
  25 0029 000000   		.align	2
  26              	.LC3:
  27 002c 416C6572 		.ascii	"Alert Level for LLS is set to \"No Alert\" \015\000"
  27      74204C65 
  27      76656C20 
  27      666F7220 
  27      4C4C5320 
  28 0057 00       		.align	2
  29              	.LC5:
  30 0058 416C6572 		.ascii	"Alert Level for LLS is set to \"Mild Alert\" \015\000"
  30      74204C65 
  30      76656C20 
  30      666F7220 
  30      4C4C5320 
  31 0085 000000   		.align	2
  32              	.LC7:
  33 0088 416C6572 		.ascii	"Alert Level for LLS is set to \"High Alert\" \015\000"
  33      74204C65 
  33      76656C20 
  33      666F7220 
  33      4C4C5320 
  34 00b5 000000   		.align	2
  35              	.LC9:
  36 00b8 496E636F 		.ascii	"Incorrect value of Alert Level for LLS was received"
  36      72726563 
  36      74207661 
  36      6C756520 
  36      6F662041 
  37 00eb 0D00     		.ascii	"\015\000"
ARM GAS  C:\Users\LIAMSA~1\AppData\Local\Temp\ccUb2vYG.s 			page 2


  38              		.section	.text.LlsServiceAppEventHandler,"ax",%progbits
  39              		.align	2
  40              		.global	LlsServiceAppEventHandler
  41              		.code	16
  42              		.thumb_func
  43              		.type	LlsServiceAppEventHandler, %function
  44              	LlsServiceAppEventHandler:
  45              	.LFB36:
  46              		.file 1 "lls.c"
   1:lls.c         **** /*******************************************************************************
   2:lls.c         **** * File Name: lls.c
   3:lls.c         **** *
   4:lls.c         **** * Description:
   5:lls.c         **** *  This file contains Link Loss Service callback handler function.
   6:lls.c         **** * 
   7:lls.c         **** ********************************************************************************
   8:lls.c         **** * Copyright 2015, Cypress Semiconductor Corporation.  All rights reserved.
   9:lls.c         **** * You may use this file only in accordance with the license, terms, conditions,
  10:lls.c         **** * disclaimers, and limitations in the end user license agreement accompanying
  11:lls.c         **** * the software package with which this file was provided.
  12:lls.c         **** *******************************************************************************/
  13:lls.c         **** 
  14:lls.c         **** #include <common.h>
  15:lls.c         **** #include "lls.h"
  16:lls.c         **** 
  17:lls.c         **** 
  18:lls.c         **** /***************************************
  19:lls.c         **** *        Global Variables
  20:lls.c         **** ***************************************/
  21:lls.c         **** uint8                llsAlertTOCounter;
  22:lls.c         **** uint8                alertLevel;
  23:lls.c         **** 
  24:lls.c         **** 
  25:lls.c         **** /*******************************************************************************
  26:lls.c         **** * Function Name: LlsServiceAppEventHandler
  27:lls.c         **** ********************************************************************************
  28:lls.c         **** *
  29:lls.c         **** * Summary:
  30:lls.c         **** *  This is an event callback function to receive events from the BLE Component,
  31:lls.c         **** *  which are specific to Link Loss Service.
  32:lls.c         **** *
  33:lls.c         **** * Parameters:
  34:lls.c         **** *  uint8 event:       Write Request event from the CYBLE component.
  35:lls.c         **** *  void* eventParams: A structure instance of CYBLE_LLS_CHAR_VALUE_T type.
  36:lls.c         **** *
  37:lls.c         **** * Return:
  38:lls.c         **** *  None
  39:lls.c         **** *
  40:lls.c         **** *******************************************************************************/
  41:lls.c         **** void LlsServiceAppEventHandler(uint32 event, void *eventParam)
  42:lls.c         **** {
  47              		.loc 1 42 0
  48              		.cfi_startproc
  49              		@ args = 0, pretend = 0, frame = 16
  50              		@ frame_needed = 1, uses_anonymous_args = 0
  51 0000 80B5     		push	{r7, lr}
  52              		.cfi_def_cfa_offset 8
ARM GAS  C:\Users\LIAMSA~1\AppData\Local\Temp\ccUb2vYG.s 			page 3


  53              		.cfi_offset 7, -8
  54              		.cfi_offset 14, -4
  55 0002 84B0     		sub	sp, sp, #16
  56              		.cfi_def_cfa_offset 24
  57 0004 00AF     		add	r7, sp, #0
  58              		.cfi_def_cfa_register 7
  59 0006 7860     		str	r0, [r7, #4]
  60 0008 3960     		str	r1, [r7]
  43:lls.c         ****     CYBLE_LLS_CHAR_VALUE_T * llsWrReqValueParam;
  44:lls.c         ****     
  45:lls.c         ****     /* There is only one event present in Link Loss Service for Server GATT role.
  46:lls.c         ****     *  'CYBLE_EVT_LLSS_WRITE_CHAR_REQ' - write request to set new alert level. 
  47:lls.c         ****     */
  48:lls.c         ****     if (event == CYBLE_EVT_LLSS_WRITE_CHAR_REQ)
  61              		.loc 1 48 0
  62 000a 7A68     		ldr	r2, [r7, #4]
  63 000c E323     		movs	r3, #227
  64 000e 5B00     		lsls	r3, r3, #1
  65 0010 9A42     		cmp	r2, r3
  66 0012 2CD1     		bne	.L8
  49:lls.c         ****     {
  50:lls.c         ****         printf("Write LLS Alert Level request received \r\n");
  67              		.loc 1 50 0
  68 0014 184B     		ldr	r3, .L9
  69 0016 1800     		movs	r0, r3
  70 0018 FFF7FEFF 		bl	puts
  51:lls.c         **** 
  52:lls.c         ****         llsWrReqValueParam = (CYBLE_LLS_CHAR_VALUE_T *) eventParam;
  71              		.loc 1 52 0
  72 001c 3B68     		ldr	r3, [r7]
  73 001e FB60     		str	r3, [r7, #12]
  53:lls.c         **** 
  54:lls.c         ****         if(CYBLE_LLS_ALERT_LEVEL_SIZE == llsWrReqValueParam->value->len)
  74              		.loc 1 54 0
  75 0020 FB68     		ldr	r3, [r7, #12]
  76 0022 5B68     		ldr	r3, [r3, #4]
  77 0024 9B88     		ldrh	r3, [r3, #4]
  78 0026 012B     		cmp	r3, #1
  79 0028 21D1     		bne	.L8
  55:lls.c         ****         {
  56:lls.c         ****             alertLevel = llsWrReqValueParam->value->val[0u];
  80              		.loc 1 56 0
  81 002a FB68     		ldr	r3, [r7, #12]
  82 002c 5B68     		ldr	r3, [r3, #4]
  83 002e 1B68     		ldr	r3, [r3]
  84 0030 1A78     		ldrb	r2, [r3]
  85 0032 124B     		ldr	r3, .L9+4
  86 0034 1A70     		strb	r2, [r3]
  57:lls.c         **** 
  58:lls.c         ****             switch (alertLevel)
  87              		.loc 1 58 0
  88 0036 114B     		ldr	r3, .L9+4
  89 0038 1B78     		ldrb	r3, [r3]
  90 003a 012B     		cmp	r3, #1
  91 003c 08D0     		beq	.L4
  92 003e 022B     		cmp	r3, #2
  93 0040 0BD0     		beq	.L5
ARM GAS  C:\Users\LIAMSA~1\AppData\Local\Temp\ccUb2vYG.s 			page 4


  94 0042 002B     		cmp	r3, #0
  95 0044 0ED1     		bne	.L7
  59:lls.c         ****             {
  60:lls.c         ****             case CYBLE_NO_ALERT:
  61:lls.c         ****                 printf("Alert Level for LLS is set to \"No Alert\" \r\n");
  96              		.loc 1 61 0
  97 0046 0E4B     		ldr	r3, .L9+8
  98 0048 1800     		movs	r0, r3
  99 004a FFF7FEFF 		bl	puts
  62:lls.c         ****                 break;
 100              		.loc 1 62 0
 101 004e 0EE0     		b	.L2
 102              	.L4:
  63:lls.c         **** 
  64:lls.c         ****             case CYBLE_MILD_ALERT:
  65:lls.c         ****                 printf("Alert Level for LLS is set to \"Mild Alert\" \r\n");
 103              		.loc 1 65 0
 104 0050 0C4B     		ldr	r3, .L9+12
 105 0052 1800     		movs	r0, r3
 106 0054 FFF7FEFF 		bl	puts
  66:lls.c         ****                 break;
 107              		.loc 1 66 0
 108 0058 09E0     		b	.L2
 109              	.L5:
  67:lls.c         **** 
  68:lls.c         ****             case CYBLE_HIGH_ALERT:
  69:lls.c         ****                 printf("Alert Level for LLS is set to \"High Alert\" \r\n");
 110              		.loc 1 69 0
 111 005a 0B4B     		ldr	r3, .L9+16
 112 005c 1800     		movs	r0, r3
 113 005e FFF7FEFF 		bl	puts
  70:lls.c         ****                 break;
 114              		.loc 1 70 0
 115 0062 04E0     		b	.L2
 116              	.L7:
  71:lls.c         **** 
  72:lls.c         ****             default:
  73:lls.c         ****                 printf("Incorrect value of Alert Level for LLS was received\r\n");
 117              		.loc 1 73 0
 118 0064 094B     		ldr	r3, .L9+20
 119 0066 1800     		movs	r0, r3
 120 0068 FFF7FEFF 		bl	puts
  74:lls.c         ****                 break;
 121              		.loc 1 74 0
 122 006c C046     		nop
 123              	.L2:
 124              	.L8:
  75:lls.c         ****             }
  76:lls.c         ****         }
  77:lls.c         ****     }
  78:lls.c         **** }
 125              		.loc 1 78 0
 126 006e C046     		nop
 127 0070 BD46     		mov	sp, r7
 128 0072 04B0     		add	sp, sp, #16
 129              		@ sp needed
 130 0074 80BD     		pop	{r7, pc}
ARM GAS  C:\Users\LIAMSA~1\AppData\Local\Temp\ccUb2vYG.s 			page 5


 131              	.L10:
 132 0076 C046     		.align	2
 133              	.L9:
 134 0078 00000000 		.word	.LC0
 135 007c 00000000 		.word	alertLevel
 136 0080 2C000000 		.word	.LC3
 137 0084 58000000 		.word	.LC5
 138 0088 88000000 		.word	.LC7
 139 008c B8000000 		.word	.LC9
 140              		.cfi_endproc
 141              	.LFE36:
 142              		.size	LlsServiceAppEventHandler, .-LlsServiceAppEventHandler
 143              		.text
 144              	.Letext0:
 145              		.file 2 "Generated_Source\\PSoC4/cytypes.h"
 146              		.file 3 "Generated_Source\\PSoC4/CYBLE_StackGatt.h"
 147              		.file 4 "Generated_Source\\PSoC4/CYBLE_Stack.h"
 148              		.file 5 "Generated_Source\\PSoC4/CYBLE_lls.h"
 149              		.file 6 "Generated_Source\\PSoC4/CYBLE_eventHandler.h"