ARM GAS  C:\Users\LIAMSA~1\AppData\Local\Temp\ccGWPySn.s 			page 1


   1              		.syntax unified
   2              		.cpu cortex-m0
   3              		.fpu softvfp
   4              		.eabi_attribute 20, 1
   5              		.eabi_attribute 21, 1
   6              		.eabi_attribute 23, 3
   7              		.eabi_attribute 24, 1
   8              		.eabi_attribute 25, 1
   9              		.eabi_attribute 26, 1
  10              		.eabi_attribute 30, 6
  11              		.eabi_attribute 34, 0
  12              		.eabi_attribute 18, 4
  13              		.thumb
  14              		.syntax unified
  15              		.file	"main.c"
  16              		.text
  17              	.Ltext0:
  18              		.cfi_sections	.debug_frame
  19              		.comm	connectionHandle,2,4
  20              		.global	ledState
  21              		.data
  22              		.type	ledState, %object
  23              		.size	ledState, 1
  24              	ledState:
  25 0000 01       		.byte	1
  26              		.global	advLedState
  27              		.type	advLedState, %object
  28              		.size	advLedState, 1
  29              	advLedState:
  30 0001 01       		.byte	1
  31              		.global	alertLedState
  32              		.type	alertLedState, %object
  33              		.size	alertLedState, 1
  34              	alertLedState:
  35 0002 01       		.byte	1
  36              		.global	state
  37              		.bss
  38              		.type	state, %object
  39              		.size	state, 1
  40              	state:
  41 0000 00       		.space	1
  42              		.comm	alertBlinkDelayCount,2,2
  43              		.comm	advBlinkDelayCount,2,2
  44              		.global	displayAlertMessage
  45              		.data
  46              		.type	displayAlertMessage, %object
  47              		.size	displayAlertMessage, 1
  48              	displayAlertMessage:
  49 0003 01       		.byte	1
  50              		.global	buttonState
  51              		.bss
  52              		.type	buttonState, %object
  53              		.size	buttonState, 1
  54              	buttonState:
  55 0001 00       		.space	1
  56              		.section	.rodata
  57              		.align	2
ARM GAS  C:\Users\LIAMSA~1\AppData\Local\Temp\ccGWPySn.s 			page 2


  58              	.LC0:
  59 0000 426C7565 		.ascii	"Bluetooth On. Device address is: \000"
  59      746F6F74 
  59      68204F6E 
  59      2E204465 
  59      76696365 
  60 0022 0000     		.align	2
  61              	.LC2:
  62 0024 25322E32 		.ascii	"%2.2x\000"
  62      7800
  63 002a 0000     		.align	2
  64              	.LC4:
  65 002c 0D00     		.ascii	"\015\000"
  66 002e 0000     		.align	2
  67              	.LC6:
  68 0030 53746172 		.ascii	"StartAdvertisement API Error: %d \015\012\000"
  68      74416476 
  68      65727469 
  68      73656D65 
  68      6E742041 
  69              		.align	2
  70              	.LC8:
  71 0054 41647665 		.ascii	"Advertisement timeout occurred. Advertisement will "
  71      72746973 
  71      656D656E 
  71      74207469 
  71      6D656F75 
  72 0087 62652064 		.ascii	"be disabled.\015\000"
  72      69736162 
  72      6C65642E 
  72      0D00
  73 0095 000000   		.align	2
  74              	.LC10:
  75 0098 54696D65 		.ascii	"Timeout occurred.\015\000"
  75      6F757420 
  75      6F636375 
  75      72726564 
  75      2E0D00
  76 00ab 00       		.align	2
  77              	.LC12:
  78 00ac 48617264 		.ascii	"Hardware Error \015\000"
  78      77617265 
  78      20457272 
  78      6F72200D 
  78      00
  79 00bd 000000   		.align	2
  80              	.LC14:
  81 00c0 48434920 		.ascii	"HCI Error. Error code is %x.\015\012\000"
  81      4572726F 
  81      722E2045 
  81      72726F72 
  81      20636F64 
  82 00df 00       		.align	2
  83              	.LC18:
  84 00e0 41647665 		.ascii	"Advertisement is disabled \015\000"
  84      72746973 
  84      656D656E 
ARM GAS  C:\Users\LIAMSA~1\AppData\Local\Temp\ccGWPySn.s 			page 3


  84      74206973 
  84      20646973 
  85              		.align	2
  86              	.LC20:
  87 00fc 41647665 		.ascii	"Advertisement is enabled \015\000"
  87      72746973 
  87      656D656E 
  87      74206973 
  87      20656E61 
  88 0117 00       		.align	2
  89              	.LC22:
  90 0118 4661696C 		.ascii	"Failed to stop advertising \015\000"
  90      65642074 
  90      6F207374 
  90      6F702061 
  90      64766572 
  91 0135 000000   		.align	2
  92              	.LC24:
  93 0138 4661696C 		.ascii	"Failed to start advertising \015\000"
  93      65642074 
  93      6F207374 
  93      61727420 
  93      61647665 
  94 0156 0000     		.align	2
  95              	.LC26:
  96 0158 4359424C 		.ascii	"CYBLE_EVT_GAP_DEVICE_CONNECTED: %d \015\012\000"
  96      455F4556 
  96      545F4741 
  96      505F4445 
  96      56494345 
  97 017e 0000     		.align	2
  98              	.LC28:
  99 0180 4359424C 		.ascii	"CYBLE_EVT_GAP_DEVICE_DISCONNECTED\015\000"
  99      455F4556 
  99      545F4741 
  99      505F4445 
  99      56494345 
 100 01a3 00       		.align	2
 101              	.LC30:
 102 01a4 53746172 		.ascii	"StartAdvertisement API Error: %d\015\012\000"
 102      74416476 
 102      65727469 
 102      73656D65 
 102      6E742041 
 103 01c7 00       		.align	2
 104              	.LC32:
 105 01c8 4359424C 		.ascii	"CYBLE_EVT_GATT_CONNECT_IND: %x\015\012\000"
 105      455F4556 
 105      545F4741 
 105      54545F43 
 105      4F4E4E45 
 106 01e9 000000   		.align	2
 107              	.LC34:
 108 01ec 4359424C 		.ascii	"CYBLE_EVT_GATT_DISCONNECT_IND:\015\000"
 108      455F4556 
 108      545F4741 
 108      54545F44 
ARM GAS  C:\Users\LIAMSA~1\AppData\Local\Temp\ccGWPySn.s 			page 4


 108      4953434F 
 109              		.section	.text.GenericAppEventHandler,"ax",%progbits
 110              		.align	2
 111              		.global	GenericAppEventHandler
 112              		.code	16
 113              		.thumb_func
 114              		.type	GenericAppEventHandler, %function
 115              	GenericAppEventHandler:
 116              	.LFB36:
 117              		.file 1 "main.c"
   1:main.c        **** /*******************************************************************************
   2:main.c        **** * File Name: main.c
   3:main.c        **** *
   4:main.c        **** * Version: 1.0
   5:main.c        **** *
   6:main.c        **** * Description:
   7:main.c        **** *  This is source code for the CYBLE Proximity Profile example project. In this
   8:main.c        **** *  example project the CYBLE component is configured for Proximity Reporter
   9:main.c        **** *  profile role.
  10:main.c        **** *
  11:main.c        **** ********************************************************************************
  12:main.c        **** * Copyright 2015, Cypress Semiconductor Corporation.  All rights reserved.
  13:main.c        **** * You may use this file only in accordance with the license, terms, conditions,
  14:main.c        **** * disclaimers, and limitations in the end user license agreement accompanying
  15:main.c        **** * the software package with which this file was provided.
  16:main.c        **** *******************************************************************************/
  17:main.c        **** 
  18:main.c        **** #include "common.h"
  19:main.c        **** 
  20:main.c        **** 
  21:main.c        **** /***************************************
  22:main.c        **** *          API Constants
  23:main.c        **** ***************************************/
  24:main.c        **** #define DISCONNECTED                        (0u)
  25:main.c        **** #define ADVERTISING                         (1u)
  26:main.c        **** #define CONNECTED                           (2u)
  27:main.c        **** 
  28:main.c        **** #define ALERT_TO                            (20u)
  29:main.c        **** #define BLINK_DELAY                         (15u)
  30:main.c        **** 
  31:main.c        **** 
  32:main.c        **** /***************************************
  33:main.c        **** *        Global Variables
  34:main.c        **** ***************************************/
  35:main.c        **** CYBLE_CONN_HANDLE_T  	connectionHandle;
  36:main.c        **** uint8                	ledState = LED_OFF;
  37:main.c        **** uint8                	advLedState = LED_OFF;
  38:main.c        **** uint8                	alertLedState = LED_OFF;
  39:main.c        **** uint8                	state = DISCONNECTED;
  40:main.c        **** uint16               	alertBlinkDelayCount;
  41:main.c        **** uint16               	advBlinkDelayCount;
  42:main.c        **** uint8                	displayAlertMessage = YES;
  43:main.c        **** uint8                	buttonState = BUTTON_IS_NOT_PRESSED;
  44:main.c        **** extern volatile uint8 	tps_notification_enabled;
  45:main.c        **** 
  46:main.c        **** /*******************************************************************************
  47:main.c        **** * Function Name: GenericAppEventHandler
ARM GAS  C:\Users\LIAMSA~1\AppData\Local\Temp\ccGWPySn.s 			page 5


  48:main.c        **** ********************************************************************************
  49:main.c        **** *
  50:main.c        **** * Summary:
  51:main.c        **** *  This is an event callback function to receive events from the CYBLE Component.
  52:main.c        **** *
  53:main.c        **** * Parameters:
  54:main.c        **** *  uint8 event:       Event from the CYBLE component.
  55:main.c        **** *  void* eventParams: A structure instance for corresponding event type. The
  56:main.c        **** *                     list of events structure is described in the component
  57:main.c        **** *                     datasheet.
  58:main.c        **** *
  59:main.c        **** * Return:
  60:main.c        **** *  None
  61:main.c        **** *
  62:main.c        **** *******************************************************************************/
  63:main.c        **** void GenericAppEventHandler(uint32 event, void *eventParam)
  64:main.c        **** {
 118              		.loc 1 64 0
 119              		.cfi_startproc
 120              		@ args = 0, pretend = 0, frame = 24
 121              		@ frame_needed = 1, uses_anonymous_args = 0
 122 0000 90B5     		push	{r4, r7, lr}
 123              		.cfi_def_cfa_offset 12
 124              		.cfi_offset 4, -12
 125              		.cfi_offset 7, -8
 126              		.cfi_offset 14, -4
 127 0002 87B0     		sub	sp, sp, #28
 128              		.cfi_def_cfa_offset 40
 129 0004 00AF     		add	r7, sp, #0
 130              		.cfi_def_cfa_register 7
 131 0006 7860     		str	r0, [r7, #4]
 132 0008 3960     		str	r1, [r7]
  65:main.c        ****     CYBLE_API_RESULT_T apiResult;
  66:main.c        ****     CYBLE_GAP_BD_ADDR_T localAddr;
  67:main.c        ****     uint8 i;
  68:main.c        **** 
  69:main.c        ****     switch(event)
 133              		.loc 1 69 0
 134 000a 7B68     		ldr	r3, [r7, #4]
 135 000c 272B     		cmp	r3, #39
 136 000e 00D1     		bne	.LCB17
 137 0010 A7E0     		b	.L3	@long jump
 138              	.LCB17:
 139 0012 0FD8     		bhi	.L4
 140 0014 032B     		cmp	r3, #3
 141 0016 00D1     		bne	.LCB21
 142 0018 6FE0     		b	.L5	@long jump
 143              	.LCB21:
 144 001a 04D8     		bhi	.L6
 145 001c 012B     		cmp	r3, #1
 146 001e 1DD0     		beq	.L7
 147 0020 022B     		cmp	r3, #2
 148 0022 5CD0     		beq	.L8
  70:main.c        ****     {
  71:main.c        ****     /**********************************************************
  72:main.c        ****     *                       General Events
  73:main.c        ****     ***********************************************************/
ARM GAS  C:\Users\LIAMSA~1\AppData\Local\Temp\ccGWPySn.s 			page 6


  74:main.c        ****     case CYBLE_EVT_STACK_ON: /* This event is received when the component is Started */
  75:main.c        ****         printf("Bluetooth On. Device address is: ");
  76:main.c        ****         CyBle_GetDeviceAddress(&localAddr);
  77:main.c        ****         for(i = CYBLE_GAP_BD_ADDR_SIZE; i > 0u; i--)
  78:main.c        ****         {
  79:main.c        ****             printf("%2.2x", localAddr.bdAddr[i-1]);
  80:main.c        ****         }
  81:main.c        ****         printf("\r\n");
  82:main.c        **** 
  83:main.c        ****         /* Enter discoverable mode so that the remote Client could find the device. */
  84:main.c        ****         apiResult = CyBle_GappStartAdvertisement(CYBLE_ADVERTISING_FAST);
  85:main.c        **** 
  86:main.c        ****         if(apiResult != CYBLE_ERROR_OK)
  87:main.c        ****         {
  88:main.c        ****             printf("StartAdvertisement API Error: %d \r\n", apiResult);
  89:main.c        ****         }
  90:main.c        ****         break;
  91:main.c        **** 
  92:main.c        ****     case CYBLE_EVT_TIMEOUT:
  93:main.c        ****         /* Possible timeout event parameter values:
  94:main.c        ****         * CYBLE_GAP_ADV_MODE_TO -> GAP limited discoverable mode timeout;
  95:main.c        ****         * CYBLE_GAP_AUTH_TO -> GAP pairing process timeout.
  96:main.c        ****         */
  97:main.c        ****         if(CYBLE_GAP_ADV_MODE_TO == *(uint8 *) eventParam)
  98:main.c        ****         {
  99:main.c        ****             printf("Advertisement timeout occurred. Advertisement will be disabled.\r\n");
 100:main.c        ****         }
 101:main.c        ****         else
 102:main.c        ****         {
 103:main.c        ****             printf("Timeout occurred.\r\n");
 104:main.c        ****         }
 105:main.c        ****         break;
 106:main.c        **** 
 107:main.c        ****     case CYBLE_EVT_HARDWARE_ERROR:    /* This event indicates that some internal HW error has occur
 108:main.c        ****         printf("Hardware Error \r\n");
 109:main.c        ****         break;
 110:main.c        **** 
 111:main.c        ****     case CYBLE_EVT_HCI_STATUS:
 112:main.c        ****         printf("HCI Error. Error code is %x.\r\n", *(uint8 *) eventParam);
 113:main.c        ****         break;
 114:main.c        **** 
 115:main.c        ****     /**********************************************************
 116:main.c        ****     *                       GAP Events
 117:main.c        ****     ***********************************************************/
 118:main.c        ****     case CYBLE_EVT_GAPP_ADVERTISEMENT_START_STOP:
 119:main.c        ****         if(0u == connectionHandle.attId)
 120:main.c        ****         {
 121:main.c        ****             if(ADVERTISING == state)
 122:main.c        ****             {
 123:main.c        ****                 printf("Advertisement is disabled \r\n");
 124:main.c        ****                 state = DISCONNECTED;
 125:main.c        ****             }
 126:main.c        ****             else
 127:main.c        ****             {
 128:main.c        ****                 printf("Advertisement is enabled \r\n");
 129:main.c        ****                 /* Device now is in Advertising state */
 130:main.c        ****                 state = ADVERTISING;
ARM GAS  C:\Users\LIAMSA~1\AppData\Local\Temp\ccGWPySn.s 			page 7


 131:main.c        ****             }
 132:main.c        ****         }
 133:main.c        ****         else
 134:main.c        ****         {
 135:main.c        ****             /* Error occurred in the BLE Stack */
 136:main.c        ****             if(ADVERTISING == state)
 137:main.c        ****             {
 138:main.c        ****                 printf("Failed to stop advertising \r\n");
 139:main.c        ****             }
 140:main.c        ****             else
 141:main.c        ****             {
 142:main.c        ****                 printf("Failed to start advertising \r\n");
 143:main.c        ****             }
 144:main.c        ****         }
 145:main.c        ****         break;
 146:main.c        **** 
 147:main.c        ****     case CYBLE_EVT_GAP_DEVICE_CONNECTED:
 148:main.c        ****         printf("CYBLE_EVT_GAP_DEVICE_CONNECTED: %d \r\n", connectionHandle.bdHandle);
 149:main.c        ****         state = CONNECTED;
 150:main.c        ****         break;
 151:main.c        **** 
 152:main.c        ****     case CYBLE_EVT_GAP_DEVICE_DISCONNECTED:
 153:main.c        ****         printf("CYBLE_EVT_GAP_DEVICE_DISCONNECTED\r\n");
 154:main.c        ****         /* Enter discoverable mode so that remote Client could find the device. */
 155:main.c        ****         apiResult = CyBle_GappStartAdvertisement(CYBLE_ADVERTISING_FAST);
 156:main.c        ****         connectionHandle.bdHandle = 0u;
 157:main.c        ****         if(apiResult != CYBLE_ERROR_OK)
 158:main.c        ****         {
 159:main.c        ****             printf("StartAdvertisement API Error: %d\r\n", apiResult);
 160:main.c        ****         }
 161:main.c        ****         break;
 162:main.c        **** 
 163:main.c        ****     /**********************************************************
 164:main.c        ****     *                       GATT Events
 165:main.c        ****     ***********************************************************/
 166:main.c        ****     case CYBLE_EVT_GATT_CONNECT_IND:
 167:main.c        ****         /* GATT connection was established */
 168:main.c        ****         connectionHandle = *(CYBLE_CONN_HANDLE_T *) eventParam;
 169:main.c        ****         printf("CYBLE_EVT_GATT_CONNECT_IND: %x\r\n", connectionHandle.attId);
 170:main.c        ****         break;
 171:main.c        **** 
 172:main.c        ****     case CYBLE_EVT_GATT_DISCONNECT_IND:
 173:main.c        ****         /* GATT connection was disabled */
 174:main.c        ****         printf("CYBLE_EVT_GATT_DISCONNECT_IND:\r\n");
 175:main.c        ****         connectionHandle.attId = 0u;
 176:main.c        **** 
 177:main.c        **** 		tps_notification_enabled = 0;
 178:main.c        ****         /* Get the LLS Alert Level from the GATT database */
 179:main.c        ****         (void) CyBle_LlssGetCharacteristicValue(CYBLE_LLS_ALERT_LEVEL, CYBLE_LLS_ALERT_LEVEL_SIZE, 
 180:main.c        ****         break;
 181:main.c        **** 
 182:main.c        ****     case CYBLE_EVT_GATTS_XCNHG_MTU_REQ:
 183:main.c        ****         break;
 184:main.c        **** 
 185:main.c        ****     case CYBLE_EVT_GATTS_INDICATION_ENABLED:
 186:main.c        ****         break;
 187:main.c        **** 
ARM GAS  C:\Users\LIAMSA~1\AppData\Local\Temp\ccGWPySn.s 			page 8


 188:main.c        ****     default:
 189:main.c        ****     #if (0)
 190:main.c        ****         printf("Other event - %x \r\n", LO16(event));
 191:main.c        ****     #endif
 192:main.c        ****         break;
 149              		.loc 1 192 0
 150 0024 EEE0     		b	.L20
 151              	.L6:
  69:main.c        ****     {
 152              		.loc 1 69 0
 153 0026 042B     		cmp	r3, #4
 154 0028 00D1     		bne	.LCB33
 155 002a 6BE0     		b	.L9	@long jump
 156              	.LCB33:
 157 002c 262B     		cmp	r3, #38
 158 002e 00D1     		bne	.LCB35
 159 0030 71E0     		b	.L10	@long jump
 160              	.LCB35:
 161              		.loc 1 192 0
 162 0032 E7E0     		b	.L20
 163              	.L4:
  69:main.c        ****     {
 164              		.loc 1 69 0
 165 0034 422B     		cmp	r3, #66
 166 0036 00D1     		bne	.LCB41
 167 0038 CCE0     		b	.L11	@long jump
 168              	.LCB41:
 169 003a 06D8     		bhi	.L12
 170 003c 282B     		cmp	r3, #40
 171 003e 00D1     		bne	.LCB45
 172 0040 9BE0     		b	.L13	@long jump
 173              	.LCB45:
 174 0042 412B     		cmp	r3, #65
 175 0044 00D1     		bne	.LCB47
 176 0046 B4E0     		b	.L14	@long jump
 177              	.LCB47:
 178              		.loc 1 192 0
 179 0048 DCE0     		b	.L20
 180              	.L12:
  69:main.c        ****     {
 181              		.loc 1 69 0
 182 004a 432B     		cmp	r3, #67
 183 004c 00D1     		bne	.LCB53
 184 004e D2E0     		b	.L29	@long jump
 185              	.LCB53:
 186 0050 8222     		movs	r2, #130
 187 0052 5200     		lsls	r2, r2, #1
 188 0054 9342     		cmp	r3, r2
 189 0056 00D1     		bne	.LCB57
 190 0058 CFE0     		b	.L30	@long jump
 191              	.LCB57:
 192              		.loc 1 192 0
 193 005a D3E0     		b	.L20
 194              	.L7:
  75:main.c        ****         CyBle_GetDeviceAddress(&localAddr);
 195              		.loc 1 75 0
 196 005c 6B4B     		ldr	r3, .L33
ARM GAS  C:\Users\LIAMSA~1\AppData\Local\Temp\ccGWPySn.s 			page 9


 197 005e 1800     		movs	r0, r3
 198 0060 FFF7FEFF 		bl	printf
  76:main.c        ****         for(i = CYBLE_GAP_BD_ADDR_SIZE; i > 0u; i--)
 199              		.loc 1 76 0
 200 0064 0C23     		movs	r3, #12
 201 0066 FB18     		adds	r3, r7, r3
 202 0068 1800     		movs	r0, r3
 203 006a FFF7FEFF 		bl	CyBle_GetDeviceAddress
  77:main.c        ****         {
 204              		.loc 1 77 0
 205 006e 1723     		movs	r3, #23
 206 0070 FB18     		adds	r3, r7, r3
 207 0072 0622     		movs	r2, #6
 208 0074 1A70     		strb	r2, [r3]
 209 0076 13E0     		b	.L17
 210              	.L18:
  79:main.c        ****         }
 211              		.loc 1 79 0 discriminator 3
 212 0078 1723     		movs	r3, #23
 213 007a FB18     		adds	r3, r7, r3
 214 007c 1B78     		ldrb	r3, [r3]
 215 007e 013B     		subs	r3, r3, #1
 216 0080 0C22     		movs	r2, #12
 217 0082 BA18     		adds	r2, r7, r2
 218 0084 D35C     		ldrb	r3, [r2, r3]
 219 0086 1A00     		movs	r2, r3
 220 0088 614B     		ldr	r3, .L33+4
 221 008a 1100     		movs	r1, r2
 222 008c 1800     		movs	r0, r3
 223 008e FFF7FEFF 		bl	printf
  77:main.c        ****         {
 224              		.loc 1 77 0 discriminator 3
 225 0092 1723     		movs	r3, #23
 226 0094 FB18     		adds	r3, r7, r3
 227 0096 1A78     		ldrb	r2, [r3]
 228 0098 1723     		movs	r3, #23
 229 009a FB18     		adds	r3, r7, r3
 230 009c 013A     		subs	r2, r2, #1
 231 009e 1A70     		strb	r2, [r3]
 232              	.L17:
  77:main.c        ****         {
 233              		.loc 1 77 0 is_stmt 0 discriminator 1
 234 00a0 1723     		movs	r3, #23
 235 00a2 FB18     		adds	r3, r7, r3
 236 00a4 1B78     		ldrb	r3, [r3]
 237 00a6 002B     		cmp	r3, #0
 238 00a8 E6D1     		bne	.L18
  81:main.c        **** 
 239              		.loc 1 81 0 is_stmt 1
 240 00aa 5A4B     		ldr	r3, .L33+8
 241 00ac 1800     		movs	r0, r3
 242 00ae FFF7FEFF 		bl	puts
  84:main.c        **** 
 243              		.loc 1 84 0
 244 00b2 1423     		movs	r3, #20
 245 00b4 FC18     		adds	r4, r7, r3
 246 00b6 0020     		movs	r0, #0
ARM GAS  C:\Users\LIAMSA~1\AppData\Local\Temp\ccGWPySn.s 			page 10


 247 00b8 FFF7FEFF 		bl	CyBle_GappStartAdvertisement
 248 00bc 0300     		movs	r3, r0
 249 00be 2380     		strh	r3, [r4]
  86:main.c        ****         {
 250              		.loc 1 86 0
 251 00c0 1423     		movs	r3, #20
 252 00c2 FB18     		adds	r3, r7, r3
 253 00c4 1B88     		ldrh	r3, [r3]
 254 00c6 002B     		cmp	r3, #0
 255 00c8 00D1     		bne	.LCB116
 256 00ca 98E0     		b	.L31	@long jump
 257              	.LCB116:
  88:main.c        ****         }
 258              		.loc 1 88 0
 259 00cc 1423     		movs	r3, #20
 260 00ce FB18     		adds	r3, r7, r3
 261 00d0 1A88     		ldrh	r2, [r3]
 262 00d2 514B     		ldr	r3, .L33+12
 263 00d4 1100     		movs	r1, r2
 264 00d6 1800     		movs	r0, r3
 265 00d8 FFF7FEFF 		bl	printf
  90:main.c        **** 
 266              		.loc 1 90 0
 267 00dc 8FE0     		b	.L31
 268              	.L8:
  97:main.c        ****         {
 269              		.loc 1 97 0
 270 00de 3B68     		ldr	r3, [r7]
 271 00e0 1B78     		ldrb	r3, [r3]
 272 00e2 012B     		cmp	r3, #1
 273 00e4 04D1     		bne	.L21
  99:main.c        ****         }
 274              		.loc 1 99 0
 275 00e6 4D4B     		ldr	r3, .L33+16
 276 00e8 1800     		movs	r0, r3
 277 00ea FFF7FEFF 		bl	puts
 105:main.c        **** 
 278              		.loc 1 105 0
 279 00ee 89E0     		b	.L20
 280              	.L21:
 103:main.c        ****         }
 281              		.loc 1 103 0
 282 00f0 4B4B     		ldr	r3, .L33+20
 283 00f2 1800     		movs	r0, r3
 284 00f4 FFF7FEFF 		bl	puts
 105:main.c        **** 
 285              		.loc 1 105 0
 286 00f8 84E0     		b	.L20
 287              	.L5:
 108:main.c        ****         break;
 288              		.loc 1 108 0
 289 00fa 4A4B     		ldr	r3, .L33+24
 290 00fc 1800     		movs	r0, r3
 291 00fe FFF7FEFF 		bl	puts
 109:main.c        **** 
 292              		.loc 1 109 0
 293 0102 7FE0     		b	.L20
ARM GAS  C:\Users\LIAMSA~1\AppData\Local\Temp\ccGWPySn.s 			page 11


 294              	.L9:
 112:main.c        ****         break;
 295              		.loc 1 112 0
 296 0104 3B68     		ldr	r3, [r7]
 297 0106 1B78     		ldrb	r3, [r3]
 298 0108 1A00     		movs	r2, r3
 299 010a 474B     		ldr	r3, .L33+28
 300 010c 1100     		movs	r1, r2
 301 010e 1800     		movs	r0, r3
 302 0110 FFF7FEFF 		bl	printf
 113:main.c        **** 
 303              		.loc 1 113 0
 304 0114 76E0     		b	.L20
 305              	.L10:
 119:main.c        ****         {
 306              		.loc 1 119 0
 307 0116 454B     		ldr	r3, .L33+32
 308 0118 5B78     		ldrb	r3, [r3, #1]
 309 011a 002B     		cmp	r3, #0
 310 011c 13D1     		bne	.L23
 121:main.c        ****             {
 311              		.loc 1 121 0
 312 011e 444B     		ldr	r3, .L33+36
 313 0120 1B78     		ldrb	r3, [r3]
 314 0122 012B     		cmp	r3, #1
 315 0124 07D1     		bne	.L24
 123:main.c        ****                 state = DISCONNECTED;
 316              		.loc 1 123 0
 317 0126 434B     		ldr	r3, .L33+40
 318 0128 1800     		movs	r0, r3
 319 012a FFF7FEFF 		bl	puts
 124:main.c        ****             }
 320              		.loc 1 124 0
 321 012e 404B     		ldr	r3, .L33+36
 322 0130 0022     		movs	r2, #0
 323 0132 1A70     		strb	r2, [r3]
 145:main.c        **** 
 324              		.loc 1 145 0
 325 0134 66E0     		b	.L20
 326              	.L24:
 128:main.c        ****                 /* Device now is in Advertising state */
 327              		.loc 1 128 0
 328 0136 404B     		ldr	r3, .L33+44
 329 0138 1800     		movs	r0, r3
 330 013a FFF7FEFF 		bl	puts
 130:main.c        ****             }
 331              		.loc 1 130 0
 332 013e 3C4B     		ldr	r3, .L33+36
 333 0140 0122     		movs	r2, #1
 334 0142 1A70     		strb	r2, [r3]
 145:main.c        **** 
 335              		.loc 1 145 0
 336 0144 5EE0     		b	.L20
 337              	.L23:
 136:main.c        ****             {
 338              		.loc 1 136 0
 339 0146 3A4B     		ldr	r3, .L33+36
ARM GAS  C:\Users\LIAMSA~1\AppData\Local\Temp\ccGWPySn.s 			page 12


 340 0148 1B78     		ldrb	r3, [r3]
 341 014a 012B     		cmp	r3, #1
 342 014c 04D1     		bne	.L27
 138:main.c        ****             }
 343              		.loc 1 138 0
 344 014e 3B4B     		ldr	r3, .L33+48
 345 0150 1800     		movs	r0, r3
 346 0152 FFF7FEFF 		bl	puts
 145:main.c        **** 
 347              		.loc 1 145 0
 348 0156 55E0     		b	.L20
 349              	.L27:
 142:main.c        ****             }
 350              		.loc 1 142 0
 351 0158 394B     		ldr	r3, .L33+52
 352 015a 1800     		movs	r0, r3
 353 015c FFF7FEFF 		bl	puts
 145:main.c        **** 
 354              		.loc 1 145 0
 355 0160 50E0     		b	.L20
 356              	.L3:
 148:main.c        ****         state = CONNECTED;
 357              		.loc 1 148 0
 358 0162 324B     		ldr	r3, .L33+32
 359 0164 1B78     		ldrb	r3, [r3]
 360 0166 1A00     		movs	r2, r3
 361 0168 364B     		ldr	r3, .L33+56
 362 016a 1100     		movs	r1, r2
 363 016c 1800     		movs	r0, r3
 364 016e FFF7FEFF 		bl	printf
 149:main.c        ****         break;
 365              		.loc 1 149 0
 366 0172 2F4B     		ldr	r3, .L33+36
 367 0174 0222     		movs	r2, #2
 368 0176 1A70     		strb	r2, [r3]
 150:main.c        **** 
 369              		.loc 1 150 0
 370 0178 44E0     		b	.L20
 371              	.L13:
 153:main.c        ****         /* Enter discoverable mode so that remote Client could find the device. */
 372              		.loc 1 153 0
 373 017a 334B     		ldr	r3, .L33+60
 374 017c 1800     		movs	r0, r3
 375 017e FFF7FEFF 		bl	puts
 155:main.c        ****         connectionHandle.bdHandle = 0u;
 376              		.loc 1 155 0
 377 0182 1423     		movs	r3, #20
 378 0184 FC18     		adds	r4, r7, r3
 379 0186 0020     		movs	r0, #0
 380 0188 FFF7FEFF 		bl	CyBle_GappStartAdvertisement
 381 018c 0300     		movs	r3, r0
 382 018e 2380     		strh	r3, [r4]
 156:main.c        ****         if(apiResult != CYBLE_ERROR_OK)
 383              		.loc 1 156 0
 384 0190 264B     		ldr	r3, .L33+32
 385 0192 0022     		movs	r2, #0
 386 0194 1A70     		strb	r2, [r3]
ARM GAS  C:\Users\LIAMSA~1\AppData\Local\Temp\ccGWPySn.s 			page 13


 157:main.c        ****         {
 387              		.loc 1 157 0
 388 0196 1423     		movs	r3, #20
 389 0198 FB18     		adds	r3, r7, r3
 390 019a 1B88     		ldrh	r3, [r3]
 391 019c 002B     		cmp	r3, #0
 392 019e 30D0     		beq	.L32
 159:main.c        ****         }
 393              		.loc 1 159 0
 394 01a0 1423     		movs	r3, #20
 395 01a2 FB18     		adds	r3, r7, r3
 396 01a4 1A88     		ldrh	r2, [r3]
 397 01a6 294B     		ldr	r3, .L33+64
 398 01a8 1100     		movs	r1, r2
 399 01aa 1800     		movs	r0, r3
 400 01ac FFF7FEFF 		bl	printf
 161:main.c        **** 
 401              		.loc 1 161 0
 402 01b0 27E0     		b	.L32
 403              	.L14:
 168:main.c        ****         printf("CYBLE_EVT_GATT_CONNECT_IND: %x\r\n", connectionHandle.attId);
 404              		.loc 1 168 0
 405 01b2 1E4A     		ldr	r2, .L33+32
 406 01b4 3B68     		ldr	r3, [r7]
 407 01b6 1000     		movs	r0, r2
 408 01b8 1900     		movs	r1, r3
 409 01ba 0223     		movs	r3, #2
 410 01bc 1A00     		movs	r2, r3
 411 01be FFF7FEFF 		bl	memcpy
 169:main.c        ****         break;
 412              		.loc 1 169 0
 413 01c2 1A4B     		ldr	r3, .L33+32
 414 01c4 5B78     		ldrb	r3, [r3, #1]
 415 01c6 1A00     		movs	r2, r3
 416 01c8 214B     		ldr	r3, .L33+68
 417 01ca 1100     		movs	r1, r2
 418 01cc 1800     		movs	r0, r3
 419 01ce FFF7FEFF 		bl	printf
 170:main.c        **** 
 420              		.loc 1 170 0
 421 01d2 17E0     		b	.L20
 422              	.L11:
 174:main.c        ****         connectionHandle.attId = 0u;
 423              		.loc 1 174 0
 424 01d4 1F4B     		ldr	r3, .L33+72
 425 01d6 1800     		movs	r0, r3
 426 01d8 FFF7FEFF 		bl	puts
 175:main.c        **** 
 427              		.loc 1 175 0
 428 01dc 134B     		ldr	r3, .L33+32
 429 01de 0022     		movs	r2, #0
 430 01e0 5A70     		strb	r2, [r3, #1]
 177:main.c        ****         /* Get the LLS Alert Level from the GATT database */
 431              		.loc 1 177 0
 432 01e2 1D4B     		ldr	r3, .L33+76
 433 01e4 0022     		movs	r2, #0
 434 01e6 1A70     		strb	r2, [r3]
ARM GAS  C:\Users\LIAMSA~1\AppData\Local\Temp\ccGWPySn.s 			page 14


 179:main.c        ****         break;
 435              		.loc 1 179 0
 436 01e8 1C4B     		ldr	r3, .L33+80
 437 01ea 1A00     		movs	r2, r3
 438 01ec 0121     		movs	r1, #1
 439 01ee 0020     		movs	r0, #0
 440 01f0 FFF7FEFF 		bl	CyBle_LlssGetCharacteristicValue
 180:main.c        **** 
 441              		.loc 1 180 0
 442 01f4 06E0     		b	.L20
 443              	.L29:
 183:main.c        **** 
 444              		.loc 1 183 0
 445 01f6 C046     		nop
 446 01f8 04E0     		b	.L20
 447              	.L30:
 186:main.c        **** 
 448              		.loc 1 186 0
 449 01fa C046     		nop
 450 01fc 02E0     		b	.L20
 451              	.L31:
  90:main.c        **** 
 452              		.loc 1 90 0
 453 01fe C046     		nop
 454 0200 00E0     		b	.L20
 455              	.L32:
 161:main.c        **** 
 456              		.loc 1 161 0
 457 0202 C046     		nop
 458              	.L20:
 193:main.c        ****     }
 194:main.c        **** }
 459              		.loc 1 194 0 discriminator 4
 460 0204 C046     		nop
 461 0206 BD46     		mov	sp, r7
 462 0208 07B0     		add	sp, sp, #28
 463              		@ sp needed
 464 020a 90BD     		pop	{r4, r7, pc}
 465              	.L34:
 466              		.align	2
 467              	.L33:
 468 020c 00000000 		.word	.LC0
 469 0210 24000000 		.word	.LC2
 470 0214 2C000000 		.word	.LC4
 471 0218 30000000 		.word	.LC6
 472 021c 54000000 		.word	.LC8
 473 0220 98000000 		.word	.LC10
 474 0224 AC000000 		.word	.LC12
 475 0228 C0000000 		.word	.LC14
 476 022c 00000000 		.word	connectionHandle
 477 0230 00000000 		.word	state
 478 0234 E0000000 		.word	.LC18
 479 0238 FC000000 		.word	.LC20
 480 023c 18010000 		.word	.LC22
 481 0240 38010000 		.word	.LC24
 482 0244 58010000 		.word	.LC26
 483 0248 80010000 		.word	.LC28
ARM GAS  C:\Users\LIAMSA~1\AppData\Local\Temp\ccGWPySn.s 			page 15


 484 024c A4010000 		.word	.LC30
 485 0250 C8010000 		.word	.LC32
 486 0254 EC010000 		.word	.LC34
 487 0258 00000000 		.word	tps_notification_enabled
 488 025c 00000000 		.word	alertLevel
 489              		.cfi_endproc
 490              	.LFE36:
 491              		.size	GenericAppEventHandler, .-GenericAppEventHandler
 492              		.section	.text.ButtonPressInt,"ax",%progbits
 493              		.align	2
 494              		.global	ButtonPressInt
 495              		.code	16
 496              		.thumb_func
 497              		.type	ButtonPressInt, %function
 498              	ButtonPressInt:
 499              	.LFB37:
 195:main.c        **** 
 196:main.c        **** 
 197:main.c        **** /*******************************************************************************
 198:main.c        **** * Function Name: SW_Interrupt
 199:main.c        **** ********************************************************************************
 200:main.c        **** *
 201:main.c        **** * Summary:
 202:main.c        **** *   Handles the mechanical button press.
 203:main.c        **** *
 204:main.c        **** * Parameters:
 205:main.c        **** *   None
 206:main.c        **** *
 207:main.c        **** * Return:
 208:main.c        **** *   None
 209:main.c        **** *
 210:main.c        **** *******************************************************************************/
 211:main.c        **** CY_ISR(ButtonPressInt)
 212:main.c        **** {
 500              		.loc 1 212 0
 501              		.cfi_startproc
 502              		@ args = 0, pretend = 0, frame = 0
 503              		@ frame_needed = 1, uses_anonymous_args = 0
 504 0000 80B5     		push	{r7, lr}
 505              		.cfi_def_cfa_offset 8
 506              		.cfi_offset 7, -8
 507              		.cfi_offset 14, -4
 508 0002 00AF     		add	r7, sp, #0
 509              		.cfi_def_cfa_register 7
 213:main.c        ****     buttonState = BUTTON_IS_PRESSED;
 510              		.loc 1 213 0
 511 0004 034B     		ldr	r3, .L36
 512 0006 0122     		movs	r2, #1
 513 0008 1A70     		strb	r2, [r3]
 214:main.c        **** 
 215:main.c        ****     SW2_ClearInterrupt();
 514              		.loc 1 215 0
 515 000a FFF7FEFF 		bl	SW2_ClearInterrupt
 216:main.c        **** }
 516              		.loc 1 216 0
 517 000e C046     		nop
 518 0010 BD46     		mov	sp, r7
ARM GAS  C:\Users\LIAMSA~1\AppData\Local\Temp\ccGWPySn.s 			page 16


 519              		@ sp needed
 520 0012 80BD     		pop	{r7, pc}
 521              	.L37:
 522              		.align	2
 523              	.L36:
 524 0014 00000000 		.word	buttonState
 525              		.cfi_endproc
 526              	.LFE37:
 527              		.size	ButtonPressInt, .-ButtonPressInt
 528              		.section	.text.WDT_Start,"ax",%progbits
 529              		.align	2
 530              		.global	WDT_Start
 531              		.code	16
 532              		.thumb_func
 533              		.type	WDT_Start, %function
 534              	WDT_Start:
 535              	.LFB38:
 217:main.c        **** 
 218:main.c        **** 
 219:main.c        **** /*******************************************************************************
 220:main.c        **** * Function Name: WDT_Start
 221:main.c        **** ********************************************************************************
 222:main.c        **** *
 223:main.c        **** * Summary:
 224:main.c        **** *  Configures and starts Watchdog timer to trigger an interrupt every second.
 225:main.c        **** *
 226:main.c        **** * Parameters:
 227:main.c        **** *   None
 228:main.c        **** *
 229:main.c        **** * Return:
 230:main.c        **** *   None
 231:main.c        **** *
 232:main.c        **** *******************************************************************************/
 233:main.c        **** void WDT_Start(void)
 234:main.c        **** {
 536              		.loc 1 234 0
 537              		.cfi_startproc
 538              		@ args = 0, pretend = 0, frame = 0
 539              		@ frame_needed = 1, uses_anonymous_args = 0
 540 0000 80B5     		push	{r7, lr}
 541              		.cfi_def_cfa_offset 8
 542              		.cfi_offset 7, -8
 543              		.cfi_offset 14, -4
 544 0002 00AF     		add	r7, sp, #0
 545              		.cfi_def_cfa_register 7
 235:main.c        ****     /* Unlock the WDT registers for modification */
 236:main.c        ****     CySysWdtUnlock();
 546              		.loc 1 236 0
 547 0004 FFF7FEFF 		bl	CySysWdtUnlock
 237:main.c        ****     /* Setup ISR callback */
 238:main.c        ****     WDT_Interrupt_StartEx(&Timer_Interrupt);
 548              		.loc 1 238 0
 549 0008 0E4B     		ldr	r3, .L39
 550 000a 1800     		movs	r0, r3
 551 000c FFF7FEFF 		bl	WDT_Interrupt_StartEx
 239:main.c        ****     /* Write the mode to generate interrupt on match */
 240:main.c        ****     CySysWdtWriteMode(WDT_COUNTER, CY_SYS_WDT_MODE_INT);
ARM GAS  C:\Users\LIAMSA~1\AppData\Local\Temp\ccGWPySn.s 			page 17


 552              		.loc 1 240 0
 553 0010 0121     		movs	r1, #1
 554 0012 0120     		movs	r0, #1
 555 0014 FFF7FEFF 		bl	CySysWdtSetMode
 241:main.c        ****     /* Configure the WDT counter clear on a match setting */
 242:main.c        ****     CySysWdtWriteClearOnMatch(WDT_COUNTER, WDT_COUNTER_ENABLE);
 556              		.loc 1 242 0
 557 0018 0121     		movs	r1, #1
 558 001a 0120     		movs	r0, #1
 559 001c FFF7FEFF 		bl	CySysWdtSetClearOnMatch
 243:main.c        ****     /* Configure the WDT counter match comparison value */
 244:main.c        ****     CySysWdtWriteMatch(WDT_COUNTER, WDT_COUNT_PERIOD);
 560              		.loc 1 244 0
 561 0020 094B     		ldr	r3, .L39+4
 562 0022 1900     		movs	r1, r3
 563 0024 0120     		movs	r0, #1
 564 0026 FFF7FEFF 		bl	CySysWdtSetMatch
 245:main.c        ****     /* Reset WDT counter */
 246:main.c        ****     CySysWdtResetCounters(WDT_COUNTER);
 565              		.loc 1 246 0
 566 002a 0120     		movs	r0, #1
 567 002c FFF7FEFF 		bl	CySysWdtResetCounters
 247:main.c        ****     /* Enable the specified WDT counter */
 248:main.c        ****     CySysWdtEnable(WDT_COUNTER_MASK);
 568              		.loc 1 248 0
 569 0030 8023     		movs	r3, #128
 570 0032 5B00     		lsls	r3, r3, #1
 571 0034 1800     		movs	r0, r3
 572 0036 FFF7FEFF 		bl	CySysWdtEnable
 249:main.c        ****     /* Lock out configuration changes to the Watchdog timer registers */
 250:main.c        ****     CySysWdtLock();
 573              		.loc 1 250 0
 574 003a FFF7FEFF 		bl	CySysWdtLock
 251:main.c        **** }
 575              		.loc 1 251 0
 576 003e C046     		nop
 577 0040 BD46     		mov	sp, r7
 578              		@ sp needed
 579 0042 80BD     		pop	{r7, pc}
 580              	.L40:
 581              		.align	2
 582              	.L39:
 583 0044 00000000 		.word	Timer_Interrupt
 584 0048 FF7F0000 		.word	32767
 585              		.cfi_endproc
 586              	.LFE38:
 587              		.size	WDT_Start, .-WDT_Start
 588              		.section	.text.Timer_Interrupt,"ax",%progbits
 589              		.align	2
 590              		.global	Timer_Interrupt
 591              		.code	16
 592              		.thumb_func
 593              		.type	Timer_Interrupt, %function
 594              	Timer_Interrupt:
 595              	.LFB39:
 252:main.c        **** 
 253:main.c        **** 
ARM GAS  C:\Users\LIAMSA~1\AppData\Local\Temp\ccGWPySn.s 			page 18


 254:main.c        **** /*******************************************************************************
 255:main.c        **** * Function Name: Timer_Interrupt
 256:main.c        **** ********************************************************************************
 257:main.c        **** *
 258:main.c        **** * Summary:
 259:main.c        **** *  Handles the Interrupt Service Routine for the WDT timer.
 260:main.c        **** *
 261:main.c        **** * Parameters:
 262:main.c        **** *   None
 263:main.c        **** *
 264:main.c        **** * Return:
 265:main.c        **** *   None
 266:main.c        **** *
 267:main.c        **** *******************************************************************************/
 268:main.c        **** CY_ISR(Timer_Interrupt)
 269:main.c        **** {
 596              		.loc 1 269 0
 597              		.cfi_startproc
 598              		@ args = 0, pretend = 0, frame = 0
 599              		@ frame_needed = 1, uses_anonymous_args = 0
 600 0000 80B5     		push	{r7, lr}
 601              		.cfi_def_cfa_offset 8
 602              		.cfi_offset 7, -8
 603              		.cfi_offset 14, -4
 604 0002 00AF     		add	r7, sp, #0
 605              		.cfi_def_cfa_register 7
 270:main.c        ****     if(CySysWdtGetInterruptSource() & WDT_INTERRUPT_SOURCE)
 606              		.loc 1 270 0
 607 0004 FFF7FEFF 		bl	CySysWdtGetInterruptSource
 608 0008 0200     		movs	r2, r0
 609 000a 8023     		movs	r3, #128
 610 000c DB00     		lsls	r3, r3, #3
 611 000e 1340     		ands	r3, r2
 612 0010 1DD0     		beq	.L45
 271:main.c        ****     {
 272:main.c        ****         if(CONNECTED != state)
 613              		.loc 1 272 0
 614 0012 104B     		ldr	r3, .L46
 615 0014 1B78     		ldrb	r3, [r3]
 616 0016 022B     		cmp	r3, #2
 617 0018 14D0     		beq	.L43
 273:main.c        ****         {
 274:main.c        ****             if((llsAlertTOCounter != ALERT_TO) && (alertLevel != CYBLE_NO_ALERT))
 618              		.loc 1 274 0
 619 001a 0F4B     		ldr	r3, .L46+4
 620 001c 1B78     		ldrb	r3, [r3]
 621 001e 142B     		cmp	r3, #20
 622 0020 0AD0     		beq	.L44
 623              		.loc 1 274 0 is_stmt 0 discriminator 1
 624 0022 0E4B     		ldr	r3, .L46+8
 625 0024 1B78     		ldrb	r3, [r3]
 626 0026 002B     		cmp	r3, #0
 627 0028 06D0     		beq	.L44
 275:main.c        ****             {
 276:main.c        ****                 /* Update alert timeout */
 277:main.c        ****                 llsAlertTOCounter++;
 628              		.loc 1 277 0 is_stmt 1
ARM GAS  C:\Users\LIAMSA~1\AppData\Local\Temp\ccGWPySn.s 			page 19


 629 002a 0B4B     		ldr	r3, .L46+4
 630 002c 1B78     		ldrb	r3, [r3]
 631 002e 0133     		adds	r3, r3, #1
 632 0030 DAB2     		uxtb	r2, r3
 633 0032 094B     		ldr	r3, .L46+4
 634 0034 1A70     		strb	r2, [r3]
 635 0036 05E0     		b	.L43
 636              	.L44:
 278:main.c        ****             }
 279:main.c        ****             else
 280:main.c        ****             {
 281:main.c        ****                 alertLevel = CYBLE_NO_ALERT;
 637              		.loc 1 281 0
 638 0038 084B     		ldr	r3, .L46+8
 639 003a 0022     		movs	r2, #0
 640 003c 1A70     		strb	r2, [r3]
 282:main.c        ****                 
 283:main.c        ****                 /* Clear alert timeout */
 284:main.c        ****                 llsAlertTOCounter = 0u;
 641              		.loc 1 284 0
 642 003e 064B     		ldr	r3, .L46+4
 643 0040 0022     		movs	r2, #0
 644 0042 1A70     		strb	r2, [r3]
 645              	.L43:
 285:main.c        ****             }
 286:main.c        ****         }
 287:main.c        ****         /* Clear interrupt request */
 288:main.c        ****         CySysWdtClearInterrupt(WDT_INTERRUPT_SOURCE);
 646              		.loc 1 288 0
 647 0044 8023     		movs	r3, #128
 648 0046 DB00     		lsls	r3, r3, #3
 649 0048 1800     		movs	r0, r3
 650 004a FFF7FEFF 		bl	CySysWdtClearInterrupt
 651              	.L45:
 289:main.c        ****     }
 290:main.c        **** }
 652              		.loc 1 290 0
 653 004e C046     		nop
 654 0050 BD46     		mov	sp, r7
 655              		@ sp needed
 656 0052 80BD     		pop	{r7, pc}
 657              	.L47:
 658              		.align	2
 659              	.L46:
 660 0054 00000000 		.word	state
 661 0058 00000000 		.word	llsAlertTOCounter
 662 005c 00000000 		.word	alertLevel
 663              		.cfi_endproc
 664              	.LFE39:
 665              		.size	Timer_Interrupt, .-Timer_Interrupt
 666              		.section	.rodata
 667              		.align	2
 668              	.LC49:
 669 020c 44657669 		.ascii	"Device started alerting with \"Mild Alert\"\015\000"
 669      63652073 
 669      74617274 
 669      65642061 
ARM GAS  C:\Users\LIAMSA~1\AppData\Local\Temp\ccGWPySn.s 			page 20


 669      6C657274 
 670 0237 00       		.align	2
 671              	.LC53:
 672 0238 44657669 		.ascii	"Device started alerting with \"High Alert\"\015\000"
 672      63652073 
 672      74617274 
 672      65642061 
 672      6C657274 
 673              		.section	.text.HandleLeds,"ax",%progbits
 674              		.align	2
 675              		.global	HandleLeds
 676              		.code	16
 677              		.thumb_func
 678              		.type	HandleLeds, %function
 679              	HandleLeds:
 680              	.LFB40:
 291:main.c        **** 
 292:main.c        **** 
 293:main.c        **** /*******************************************************************************
 294:main.c        **** * Function Name: HandleLeds
 295:main.c        **** ********************************************************************************
 296:main.c        **** *
 297:main.c        **** * Summary:
 298:main.c        **** *  Handles indications on Advertising, Disconnection and Alert LEDs. Also it
 299:main.c        **** *  implements timeout after which Alert LED is cleared if it was previously set.
 300:main.c        **** *
 301:main.c        **** * Parameters:
 302:main.c        **** *   None
 303:main.c        **** *
 304:main.c        **** * Return:
 305:main.c        **** *   None
 306:main.c        **** *
 307:main.c        **** *******************************************************************************/
 308:main.c        **** void HandleLeds(void)
 309:main.c        **** {
 681              		.loc 1 309 0
 682              		.cfi_startproc
 683              		@ args = 0, pretend = 0, frame = 0
 684              		@ frame_needed = 1, uses_anonymous_args = 0
 685 0000 80B5     		push	{r7, lr}
 686              		.cfi_def_cfa_offset 8
 687              		.cfi_offset 7, -8
 688              		.cfi_offset 14, -4
 689 0002 00AF     		add	r7, sp, #0
 690              		.cfi_def_cfa_register 7
 310:main.c        ****     /* If in disconnected state ... */
 311:main.c        ****     if(DISCONNECTED == state)
 691              		.loc 1 311 0
 692 0004 464B     		ldr	r3, .L65
 693 0006 1B78     		ldrb	r3, [r3]
 694 0008 002B     		cmp	r3, #0
 695 000a 06D1     		bne	.L49
 312:main.c        ****     {
 313:main.c        ****         /* ... turn on disconnect indication LED and turn off rest of the LEDs. */
 314:main.c        ****         Disconnect_LED_Write(LED_ON);
 696              		.loc 1 314 0
 697 000c 0020     		movs	r0, #0
ARM GAS  C:\Users\LIAMSA~1\AppData\Local\Temp\ccGWPySn.s 			page 21


 698 000e FFF7FEFF 		bl	Disconnect_LED_Write
 315:main.c        ****         Advertising_LED_Write(LED_OFF);
 699              		.loc 1 315 0
 700 0012 0120     		movs	r0, #1
 701 0014 FFF7FEFF 		bl	Advertising_LED_Write
 702 0018 2DE0     		b	.L50
 703              	.L49:
 316:main.c        ****     }
 317:main.c        ****     /* In advertising state ... */
 318:main.c        ****     else if(ADVERTISING == state)
 704              		.loc 1 318 0
 705 001a 414B     		ldr	r3, .L65
 706 001c 1B78     		ldrb	r3, [r3]
 707 001e 012B     		cmp	r3, #1
 708 0020 20D1     		bne	.L51
 319:main.c        ****     {
 320:main.c        ****         /* ... turn off disconnect indication and alert LEDs ... */
 321:main.c        ****         Disconnect_LED_Write(LED_OFF);
 709              		.loc 1 321 0
 710 0022 0120     		movs	r0, #1
 711 0024 FFF7FEFF 		bl	Disconnect_LED_Write
 322:main.c        **** 
 323:main.c        ****         /* ... and blink advertisement indication LED. */
 324:main.c        ****         if(BLINK_DELAY == advBlinkDelayCount)
 712              		.loc 1 324 0
 713 0028 3E4B     		ldr	r3, .L65+4
 714 002a 1B88     		ldrh	r3, [r3]
 715 002c 0F2B     		cmp	r3, #15
 716 002e 0DD1     		bne	.L52
 325:main.c        ****         {
 326:main.c        ****             if(LED_OFF == advLedState)
 717              		.loc 1 326 0
 718 0030 3D4B     		ldr	r3, .L65+8
 719 0032 1B78     		ldrb	r3, [r3]
 720 0034 012B     		cmp	r3, #1
 721 0036 03D1     		bne	.L53
 327:main.c        ****             {
 328:main.c        ****                 advLedState = LED_ON;
 722              		.loc 1 328 0
 723 0038 3B4B     		ldr	r3, .L65+8
 724 003a 0022     		movs	r2, #0
 725 003c 1A70     		strb	r2, [r3]
 726 003e 02E0     		b	.L54
 727              	.L53:
 329:main.c        ****             }
 330:main.c        ****             else
 331:main.c        ****             {
 332:main.c        ****                 advLedState = LED_OFF;
 728              		.loc 1 332 0
 729 0040 394B     		ldr	r3, .L65+8
 730 0042 0122     		movs	r2, #1
 731 0044 1A70     		strb	r2, [r3]
 732              	.L54:
 333:main.c        ****             }
 334:main.c        ****             advBlinkDelayCount = 0u;
 733              		.loc 1 334 0
 734 0046 374B     		ldr	r3, .L65+4
ARM GAS  C:\Users\LIAMSA~1\AppData\Local\Temp\ccGWPySn.s 			page 22


 735 0048 0022     		movs	r2, #0
 736 004a 1A80     		strh	r2, [r3]
 737              	.L52:
 335:main.c        ****         }
 336:main.c        **** 
 337:main.c        ****         advBlinkDelayCount++;
 738              		.loc 1 337 0
 739 004c 354B     		ldr	r3, .L65+4
 740 004e 1B88     		ldrh	r3, [r3]
 741 0050 0133     		adds	r3, r3, #1
 742 0052 9AB2     		uxth	r2, r3
 743 0054 334B     		ldr	r3, .L65+4
 744 0056 1A80     		strh	r2, [r3]
 338:main.c        **** 
 339:main.c        ****         Advertising_LED_Write(advLedState);
 745              		.loc 1 339 0
 746 0058 334B     		ldr	r3, .L65+8
 747 005a 1B78     		ldrb	r3, [r3]
 748 005c 1800     		movs	r0, r3
 749 005e FFF7FEFF 		bl	Advertising_LED_Write
 750 0062 08E0     		b	.L50
 751              	.L51:
 340:main.c        ****     }
 341:main.c        ****     /* In connected State ... */
 342:main.c        ****     else
 343:main.c        ****     {
 344:main.c        ****         /* ... turn off all LEDs. */
 345:main.c        ****         Disconnect_LED_Write(LED_OFF);
 752              		.loc 1 345 0
 753 0064 0120     		movs	r0, #1
 754 0066 FFF7FEFF 		bl	Disconnect_LED_Write
 346:main.c        ****         Advertising_LED_Write(LED_OFF);
 755              		.loc 1 346 0
 756 006a 0120     		movs	r0, #1
 757 006c FFF7FEFF 		bl	Advertising_LED_Write
 347:main.c        ****         Alert_LED_Write(LED_OFF);
 758              		.loc 1 347 0
 759 0070 0120     		movs	r0, #1
 760 0072 FFF7FEFF 		bl	Alert_LED_Write
 761              	.L50:
 348:main.c        ****     }
 349:main.c        **** 
 350:main.c        ****     if(CONNECTED != state)
 762              		.loc 1 350 0
 763 0076 2A4B     		ldr	r3, .L65
 764 0078 1B78     		ldrb	r3, [r3]
 765 007a 022B     		cmp	r3, #2
 766 007c 4DD0     		beq	.L64
 351:main.c        ****     {
 352:main.c        ****         /* If "Mild Alert" is set by the Client then blink alert LED */
 353:main.c        ****         if((CYBLE_MILD_ALERT == alertLevel) && (ALERT_TO != llsAlertTOCounter))
 767              		.loc 1 353 0
 768 007e 2B4B     		ldr	r3, .L65+12
 769 0080 1B78     		ldrb	r3, [r3]
 770 0082 012B     		cmp	r3, #1
 771 0084 27D1     		bne	.L56
 772              		.loc 1 353 0 is_stmt 0 discriminator 1
ARM GAS  C:\Users\LIAMSA~1\AppData\Local\Temp\ccGWPySn.s 			page 23


 773 0086 2A4B     		ldr	r3, .L65+16
 774 0088 1B78     		ldrb	r3, [r3]
 775 008a 142B     		cmp	r3, #20
 776 008c 23D0     		beq	.L56
 354:main.c        ****         {
 355:main.c        ****             if(YES == displayAlertMessage)
 777              		.loc 1 355 0 is_stmt 1
 778 008e 294B     		ldr	r3, .L65+20
 779 0090 1B78     		ldrb	r3, [r3]
 780 0092 012B     		cmp	r3, #1
 781 0094 06D1     		bne	.L57
 356:main.c        ****             {
 357:main.c        ****                 printf("Device started alerting with \"Mild Alert\"\r\n");
 782              		.loc 1 357 0
 783 0096 284B     		ldr	r3, .L65+24
 784 0098 1800     		movs	r0, r3
 785 009a FFF7FEFF 		bl	puts
 358:main.c        ****                 displayAlertMessage = NO;
 786              		.loc 1 358 0
 787 009e 254B     		ldr	r3, .L65+20
 788 00a0 0022     		movs	r2, #0
 789 00a2 1A70     		strb	r2, [r3]
 790              	.L57:
 359:main.c        ****             }
 360:main.c        **** 
 361:main.c        ****             /* Switch state of alert LED to make blinking */
 362:main.c        ****             if(BLINK_DELAY == alertBlinkDelayCount)
 791              		.loc 1 362 0
 792 00a4 254B     		ldr	r3, .L65+28
 793 00a6 1B88     		ldrh	r3, [r3]
 794 00a8 0F2B     		cmp	r3, #15
 795 00aa 0DD1     		bne	.L58
 363:main.c        ****             {
 364:main.c        ****                 if(LED_OFF == alertLedState)
 796              		.loc 1 364 0
 797 00ac 244B     		ldr	r3, .L65+32
 798 00ae 1B78     		ldrb	r3, [r3]
 799 00b0 012B     		cmp	r3, #1
 800 00b2 03D1     		bne	.L59
 365:main.c        ****                 {
 366:main.c        ****                     alertLedState = LED_ON;
 801              		.loc 1 366 0
 802 00b4 224B     		ldr	r3, .L65+32
 803 00b6 0022     		movs	r2, #0
 804 00b8 1A70     		strb	r2, [r3]
 805 00ba 02E0     		b	.L60
 806              	.L59:
 367:main.c        ****                 }
 368:main.c        ****                 else
 369:main.c        ****                 {
 370:main.c        ****                     alertLedState = LED_OFF;
 807              		.loc 1 370 0
 808 00bc 204B     		ldr	r3, .L65+32
 809 00be 0122     		movs	r2, #1
 810 00c0 1A70     		strb	r2, [r3]
 811              	.L60:
 371:main.c        ****                 }
ARM GAS  C:\Users\LIAMSA~1\AppData\Local\Temp\ccGWPySn.s 			page 24


 372:main.c        ****                 alertBlinkDelayCount = 0u;
 812              		.loc 1 372 0
 813 00c2 1E4B     		ldr	r3, .L65+28
 814 00c4 0022     		movs	r2, #0
 815 00c6 1A80     		strh	r2, [r3]
 816              	.L58:
 373:main.c        ****             }
 374:main.c        ****             alertBlinkDelayCount++;
 817              		.loc 1 374 0
 818 00c8 1C4B     		ldr	r3, .L65+28
 819 00ca 1B88     		ldrh	r3, [r3]
 820 00cc 0133     		adds	r3, r3, #1
 821 00ce 9AB2     		uxth	r2, r3
 822 00d0 1A4B     		ldr	r3, .L65+28
 823 00d2 1A80     		strh	r2, [r3]
 824 00d4 1CE0     		b	.L61
 825              	.L56:
 375:main.c        ****         }
 376:main.c        ****         /* For "High Alert" turn alert LED on */
 377:main.c        ****         else if((CYBLE_HIGH_ALERT == alertLevel) && (ALERT_TO != llsAlertTOCounter))
 826              		.loc 1 377 0
 827 00d6 154B     		ldr	r3, .L65+12
 828 00d8 1B78     		ldrb	r3, [r3]
 829 00da 022B     		cmp	r3, #2
 830 00dc 12D1     		bne	.L62
 831              		.loc 1 377 0 is_stmt 0 discriminator 1
 832 00de 144B     		ldr	r3, .L65+16
 833 00e0 1B78     		ldrb	r3, [r3]
 834 00e2 142B     		cmp	r3, #20
 835 00e4 0ED0     		beq	.L62
 378:main.c        ****         {
 379:main.c        ****             if(YES == displayAlertMessage)
 836              		.loc 1 379 0 is_stmt 1
 837 00e6 134B     		ldr	r3, .L65+20
 838 00e8 1B78     		ldrb	r3, [r3]
 839 00ea 012B     		cmp	r3, #1
 840 00ec 06D1     		bne	.L63
 380:main.c        ****             {
 381:main.c        ****                 printf("Device started alerting with \"High Alert\"\r\n");
 841              		.loc 1 381 0
 842 00ee 154B     		ldr	r3, .L65+36
 843 00f0 1800     		movs	r0, r3
 844 00f2 FFF7FEFF 		bl	puts
 382:main.c        ****                 displayAlertMessage = NO;
 845              		.loc 1 382 0
 846 00f6 0F4B     		ldr	r3, .L65+20
 847 00f8 0022     		movs	r2, #0
 848 00fa 1A70     		strb	r2, [r3]
 849              	.L63:
 383:main.c        ****             }
 384:main.c        **** 
 385:main.c        ****             alertLedState = LED_ON;
 850              		.loc 1 385 0
 851 00fc 104B     		ldr	r3, .L65+32
 852 00fe 0022     		movs	r2, #0
 853 0100 1A70     		strb	r2, [r3]
 854 0102 05E0     		b	.L61
ARM GAS  C:\Users\LIAMSA~1\AppData\Local\Temp\ccGWPySn.s 			page 25


 855              	.L62:
 386:main.c        ****         }
 387:main.c        ****         /* In case of "No Alert" turn alert LED off */
 388:main.c        ****         else
 389:main.c        ****         {
 390:main.c        ****             displayAlertMessage = YES;
 856              		.loc 1 390 0
 857 0104 0B4B     		ldr	r3, .L65+20
 858 0106 0122     		movs	r2, #1
 859 0108 1A70     		strb	r2, [r3]
 391:main.c        **** 
 392:main.c        ****             alertLedState = LED_OFF;
 860              		.loc 1 392 0
 861 010a 0D4B     		ldr	r3, .L65+32
 862 010c 0122     		movs	r2, #1
 863 010e 1A70     		strb	r2, [r3]
 864              	.L61:
 393:main.c        ****         }
 394:main.c        **** 
 395:main.c        ****         Alert_LED_Write(alertLedState);
 865              		.loc 1 395 0
 866 0110 0B4B     		ldr	r3, .L65+32
 867 0112 1B78     		ldrb	r3, [r3]
 868 0114 1800     		movs	r0, r3
 869 0116 FFF7FEFF 		bl	Alert_LED_Write
 870              	.L64:
 396:main.c        ****     }
 397:main.c        **** }
 871              		.loc 1 397 0
 872 011a C046     		nop
 873 011c BD46     		mov	sp, r7
 874              		@ sp needed
 875 011e 80BD     		pop	{r7, pc}
 876              	.L66:
 877              		.align	2
 878              	.L65:
 879 0120 00000000 		.word	state
 880 0124 00000000 		.word	advBlinkDelayCount
 881 0128 00000000 		.word	advLedState
 882 012c 00000000 		.word	alertLevel
 883 0130 00000000 		.word	llsAlertTOCounter
 884 0134 00000000 		.word	displayAlertMessage
 885 0138 0C020000 		.word	.LC49
 886 013c 00000000 		.word	alertBlinkDelayCount
 887 0140 00000000 		.word	alertLedState
 888 0144 38020000 		.word	.LC53
 889              		.cfi_endproc
 890              	.LFE40:
 891              		.size	HandleLeds, .-HandleLeds
 892              		.section	.rodata
 893 0263 00       		.align	2
 894              	.LC59:
 895 0264 54782070 		.ascii	"Tx power level is set to %d dBm\015\012\000"
 895      6F776572 
 895      206C6576 
 895      656C2069 
 895      73207365 
ARM GAS  C:\Users\LIAMSA~1\AppData\Local\Temp\ccGWPySn.s 			page 26


 896 0286 0000     		.align	2
 897              	.LC63:
 898 0288 44657669 		.ascii	"Device has entered Limited Discovery mode \015\000"
 898      63652068 
 898      61732065 
 898      6E746572 
 898      6564204C 
 899              		.section	.text.main,"ax",%progbits
 900              		.align	2
 901              		.global	main
 902              		.code	16
 903              		.thumb_func
 904              		.type	main, %function
 905              	main:
 906              	.LFB41:
 398:main.c        **** 
 399:main.c        **** 
 400:main.c        **** /*******************************************************************************
 401:main.c        **** * Function Name: main
 402:main.c        **** ********************************************************************************
 403:main.c        **** *
 404:main.c        **** * Summary:
 405:main.c        **** *  Main function.
 406:main.c        **** *
 407:main.c        **** * Parameters:
 408:main.c        **** *  None
 409:main.c        **** *
 410:main.c        **** * Return:
 411:main.c        **** *  None
 412:main.c        **** *
 413:main.c        **** *******************************************************************************/
 414:main.c        **** int main()
 415:main.c        **** {
 907              		.loc 1 415 0
 908              		.cfi_startproc
 909              		@ args = 0, pretend = 0, frame = 16
 910              		@ frame_needed = 1, uses_anonymous_args = 0
 911 0000 90B5     		push	{r4, r7, lr}
 912              		.cfi_def_cfa_offset 12
 913              		.cfi_offset 4, -12
 914              		.cfi_offset 7, -8
 915              		.cfi_offset 14, -4
 916 0002 85B0     		sub	sp, sp, #20
 917              		.cfi_def_cfa_offset 32
 918 0004 00AF     		add	r7, sp, #0
 919              		.cfi_def_cfa_register 7
 416:main.c        ****     CYBLE_API_RESULT_T apiResult;
 417:main.c        ****     CYBLE_BLESS_PWR_IN_DB_T txPower;
 418:main.c        ****     CYBLE_LP_MODE_T lpMode;
 419:main.c        ****     CYBLE_BLESS_STATE_T blessState;
 420:main.c        ****     int8 intTxPowerLevel;
 421:main.c        **** 
 422:main.c        ****     CyGlobalIntEnable;
 920              		.loc 1 422 0
 921              		.syntax divided
 922              	@ 422 "main.c" 1
 923 0006 62B6     		CPSIE   i
ARM GAS  C:\Users\LIAMSA~1\AppData\Local\Temp\ccGWPySn.s 			page 27


 924              	@ 0 "" 2
 423:main.c        **** 
 424:main.c        ****     /* Turn off all of the LEDs */
 425:main.c        ****     Disconnect_LED_Write(LED_OFF);
 925              		.loc 1 425 0
 926              		.thumb
 927              		.syntax unified
 928 0008 0120     		movs	r0, #1
 929 000a FFF7FEFF 		bl	Disconnect_LED_Write
 426:main.c        ****     Advertising_LED_Write(LED_OFF);
 930              		.loc 1 426 0
 931 000e 0120     		movs	r0, #1
 932 0010 FFF7FEFF 		bl	Advertising_LED_Write
 427:main.c        ****     Alert_LED_Write(LED_OFF);
 933              		.loc 1 427 0
 934 0014 0120     		movs	r0, #1
 935 0016 FFF7FEFF 		bl	Alert_LED_Write
 428:main.c        **** 
 429:main.c        ****     /* Start CYBLE component and register generic event handler */
 430:main.c        ****     CyBle_Start(GenericAppEventHandler);
 936              		.loc 1 430 0
 937 001a 804B     		ldr	r3, .L86
 938 001c 1800     		movs	r0, r3
 939 001e FFF7FEFF 		bl	CyBle_Start
 431:main.c        **** 
 432:main.c        ****     SW2_Interrupt_StartEx(&ButtonPressInt);
 940              		.loc 1 432 0
 941 0022 7F4B     		ldr	r3, .L86+4
 942 0024 1800     		movs	r0, r3
 943 0026 FFF7FEFF 		bl	SW2_Interrupt_StartEx
 433:main.c        **** 
 434:main.c        ****     /* Register the event handler for LLS specific events */
 435:main.c        ****     CyBle_LlsRegisterAttrCallback(LlsServiceAppEventHandler);
 944              		.loc 1 435 0
 945 002a 7E4B     		ldr	r3, .L86+8
 946 002c 1800     		movs	r0, r3
 947 002e FFF7FEFF 		bl	CyBle_LlsRegisterAttrCallback
 436:main.c        **** 
 437:main.c        ****     /* Register the event handler for TPS specific events */
 438:main.c        ****     CyBle_TpsRegisterAttrCallback(TpsServiceAppEventHandler);
 948              		.loc 1 438 0
 949 0032 7D4B     		ldr	r3, .L86+12
 950 0034 1800     		movs	r0, r3
 951 0036 FFF7FEFF 		bl	CyBle_TpsRegisterAttrCallback
 439:main.c        **** 
 440:main.c        ****     /* Set Tx power level of the radio to 0 dBm */
 441:main.c        ****     txPower.bleSsChId = CYBLE_LL_CONN_CH_TYPE;
 952              		.loc 1 441 0
 953 003a 0823     		movs	r3, #8
 954 003c FB18     		adds	r3, r7, r3
 955 003e 0122     		movs	r2, #1
 956 0040 5A70     		strb	r2, [r3, #1]
 442:main.c        ****     txPower.blePwrLevelInDbm = CYBLE_LL_PWR_LVL_0_DBM;
 957              		.loc 1 442 0
 958 0042 0823     		movs	r3, #8
 959 0044 FB18     		adds	r3, r7, r3
 960 0046 0722     		movs	r2, #7
ARM GAS  C:\Users\LIAMSA~1\AppData\Local\Temp\ccGWPySn.s 			page 28


 961 0048 1A70     		strb	r2, [r3]
 443:main.c        **** 
 444:main.c        ****     apiResult = CyBle_SetTxPowerLevel(&txPower);
 962              		.loc 1 444 0
 963 004a 0E23     		movs	r3, #14
 964 004c FC18     		adds	r4, r7, r3
 965 004e 0823     		movs	r3, #8
 966 0050 FB18     		adds	r3, r7, r3
 967 0052 1800     		movs	r0, r3
 968 0054 FFF7FEFF 		bl	CyBle_SetTxPowerLevel
 969 0058 0300     		movs	r3, r0
 970 005a 2380     		strh	r3, [r4]
 445:main.c        **** 
 446:main.c        ****     WDT_Start();
 971              		.loc 1 446 0
 972 005c FFF7FEFF 		bl	WDT_Start
 447:main.c        **** 
 448:main.c        ****     if(CYBLE_ERROR_OK == apiResult)
 973              		.loc 1 448 0
 974 0060 0E23     		movs	r3, #14
 975 0062 FB18     		adds	r3, r7, r3
 976 0064 1B88     		ldrh	r3, [r3]
 977 0066 002B     		cmp	r3, #0
 978 0068 12D1     		bne	.L68
 449:main.c        ****     {
 450:main.c        ****         /* Convert power level to numeric int8 value */
 451:main.c        ****         intTxPowerLevel = ConvertTxPowerlevelToInt8(txPower.blePwrLevelInDbm);
 979              		.loc 1 451 0
 980 006a 0823     		movs	r3, #8
 981 006c FB18     		adds	r3, r7, r3
 982 006e 1B78     		ldrb	r3, [r3]
 983 0070 1800     		movs	r0, r3
 984 0072 FFF7FEFF 		bl	ConvertTxPowerlevelToInt8
 985 0076 0300     		movs	r3, r0
 986 0078 5AB2     		sxtb	r2, r3
 987 007a FB1D     		adds	r3, r7, #7
 988 007c 1A70     		strb	r2, [r3]
 452:main.c        **** 
 453:main.c        ****         /* Display new Tx Power Level value */
 454:main.c        ****         printf("Tx power level is set to %d dBm\r\n", intTxPowerLevel);
 989              		.loc 1 454 0
 990 007e FB1D     		adds	r3, r7, #7
 991 0080 1B78     		ldrb	r3, [r3]
 992 0082 5BB2     		sxtb	r3, r3
 993 0084 1A00     		movs	r2, r3
 994 0086 694B     		ldr	r3, .L86+16
 995 0088 1100     		movs	r1, r2
 996 008a 1800     		movs	r0, r3
 997 008c FFF7FEFF 		bl	printf
 998              	.L68:
 455:main.c        ****     }
 456:main.c        **** 
 457:main.c        ****     UART_DEB_Start();
 999              		.loc 1 457 0
 1000 0090 FFF7FEFF 		bl	UART_DEB_Start
 1001              	.L85:
 458:main.c        **** 
ARM GAS  C:\Users\LIAMSA~1\AppData\Local\Temp\ccGWPySn.s 			page 29


 459:main.c        ****     while(1)
 460:main.c        ****     {
 461:main.c        ****         /* CyBle_ProcessEvents() allows BLE stack to process pending events */
 462:main.c        ****         CyBle_ProcessEvents();
 1002              		.loc 1 462 0
 1003 0094 FFF7FEFF 		bl	CyBle_ProcessEvents
 463:main.c        **** 
 464:main.c        ****         if((CyBle_GetState() != CYBLE_STATE_CONNECTED) && (CyBle_GetState() != CYBLE_STATE_ADVERTIS
 1004              		.loc 1 464 0
 1005 0098 654B     		ldr	r3, .L86+20
 1006 009a 1B78     		ldrb	r3, [r3]
 1007 009c 022B     		cmp	r3, #2
 1008 009e 15D0     		beq	.L69
 1009              		.loc 1 464 0 is_stmt 0 discriminator 1
 1010 00a0 634B     		ldr	r3, .L86+20
 1011 00a2 1B78     		ldrb	r3, [r3]
 1012 00a4 032B     		cmp	r3, #3
 1013 00a6 11D0     		beq	.L69
 465:main.c        ****         {
 466:main.c        ****             if(BUTTON_IS_PRESSED == buttonState)
 1014              		.loc 1 466 0 is_stmt 1
 1015 00a8 624B     		ldr	r3, .L86+24
 1016 00aa 1B78     		ldrb	r3, [r3]
 1017 00ac 012B     		cmp	r3, #1
 1018 00ae 00D0     		beq	.LCB772
 1019 00b0 71E0     		b	.L72	@long jump
 1020              	.LCB772:
 467:main.c        ****             {
 468:main.c        ****                 /* Start advertisement */
 469:main.c        ****                 if(CYBLE_ERROR_OK == CyBle_GappStartAdvertisement(CYBLE_ADVERTISING_FAST))
 1021              		.loc 1 469 0
 1022 00b2 0020     		movs	r0, #0
 1023 00b4 FFF7FEFF 		bl	CyBle_GappStartAdvertisement
 1024 00b8 031E     		subs	r3, r0, #0
 1025 00ba 03D1     		bne	.L71
 470:main.c        ****                 {
 471:main.c        ****                     printf("Device has entered Limited Discovery mode \r\n");
 1026              		.loc 1 471 0
 1027 00bc 5E4B     		ldr	r3, .L86+28
 1028 00be 1800     		movs	r0, r3
 1029 00c0 FFF7FEFF 		bl	puts
 1030              	.L71:
 472:main.c        ****                 }
 473:main.c        **** 
 474:main.c        ****                 /* Reset button state */
 475:main.c        ****                 buttonState = BUTTON_IS_NOT_PRESSED;
 1031              		.loc 1 475 0
 1032 00c4 5B4B     		ldr	r3, .L86+24
 1033 00c6 0022     		movs	r2, #0
 1034 00c8 1A70     		strb	r2, [r3]
 466:main.c        ****             {
 1035              		.loc 1 466 0
 1036 00ca 64E0     		b	.L72
 1037              	.L69:
 476:main.c        ****             }
 477:main.c        ****         }
 478:main.c        ****         else
ARM GAS  C:\Users\LIAMSA~1\AppData\Local\Temp\ccGWPySn.s 			page 30


 479:main.c        ****         {
 480:main.c        ****             /* Decrease Tx power level of BLE radio if button is pressed */
 481:main.c        ****             if(BUTTON_IS_PRESSED == buttonState)
 1038              		.loc 1 481 0
 1039 00cc 594B     		ldr	r3, .L86+24
 1040 00ce 1B78     		ldrb	r3, [r3]
 1041 00d0 012B     		cmp	r3, #1
 1042 00d2 60D1     		bne	.L72
 482:main.c        ****             {
 483:main.c        **** 				if(CyBle_GetState() == CYBLE_STATE_CONNECTED)
 1043              		.loc 1 483 0
 1044 00d4 564B     		ldr	r3, .L86+20
 1045 00d6 1B78     		ldrb	r3, [r3]
 1046 00d8 022B     		cmp	r3, #2
 1047 00da 04D1     		bne	.L73
 484:main.c        **** 				{
 485:main.c        **** 					/* Specify connection channel for reading Tx power level */
 486:main.c        ****                 	txPower.bleSsChId = CYBLE_LL_CONN_CH_TYPE;
 1048              		.loc 1 486 0
 1049 00dc 0823     		movs	r3, #8
 1050 00de FB18     		adds	r3, r7, r3
 1051 00e0 0122     		movs	r2, #1
 1052 00e2 5A70     		strb	r2, [r3, #1]
 1053 00e4 07E0     		b	.L74
 1054              	.L73:
 487:main.c        **** 				}
 488:main.c        **** 				else if(CyBle_GetState() == CYBLE_STATE_ADVERTISING)
 1055              		.loc 1 488 0
 1056 00e6 524B     		ldr	r3, .L86+20
 1057 00e8 1B78     		ldrb	r3, [r3]
 1058 00ea 032B     		cmp	r3, #3
 1059 00ec 03D1     		bne	.L74
 489:main.c        **** 				{
 490:main.c        **** 					/* //roit: Specify adv channel for reading Tx power level */
 491:main.c        ****                 	txPower.bleSsChId = CYBLE_LL_ADV_CH_TYPE;
 1060              		.loc 1 491 0
 1061 00ee 0823     		movs	r3, #8
 1062 00f0 FB18     		adds	r3, r7, r3
 1063 00f2 0022     		movs	r2, #0
 1064 00f4 5A70     		strb	r2, [r3, #1]
 1065              	.L74:
 492:main.c        **** 				}
 493:main.c        **** 				
 494:main.c        ****                 /* Get current Tx power level */
 495:main.c        ****                 CyBle_GetTxPowerLevel(&txPower);
 1066              		.loc 1 495 0
 1067 00f6 0823     		movs	r3, #8
 1068 00f8 FB18     		adds	r3, r7, r3
 1069 00fa 1800     		movs	r0, r3
 1070 00fc FFF7FEFF 		bl	CyBle_GetTxPowerLevel
 496:main.c        **** 
 497:main.c        ****                 /* Decrease the Tx power level by one scale */
 498:main.c        ****                 DecreaseTxPowerLevelValue(&txPower.blePwrLevelInDbm);
 1071              		.loc 1 498 0
 1072 0100 0823     		movs	r3, #8
 1073 0102 FB18     		adds	r3, r7, r3
 1074 0104 1800     		movs	r0, r3
ARM GAS  C:\Users\LIAMSA~1\AppData\Local\Temp\ccGWPySn.s 			page 31


 1075 0106 FFF7FEFF 		bl	DecreaseTxPowerLevelValue
 499:main.c        **** 
 500:main.c        ****                 /* Set the new Tx power level */
 501:main.c        ****                 apiResult = CyBle_SetTxPowerLevel(&txPower);
 1076              		.loc 1 501 0
 1077 010a 0E23     		movs	r3, #14
 1078 010c FC18     		adds	r4, r7, r3
 1079 010e 0823     		movs	r3, #8
 1080 0110 FB18     		adds	r3, r7, r3
 1081 0112 1800     		movs	r0, r3
 1082 0114 FFF7FEFF 		bl	CyBle_SetTxPowerLevel
 1083 0118 0300     		movs	r3, r0
 1084 011a 2380     		strh	r3, [r4]
 502:main.c        **** 
 503:main.c        ****                 if(CYBLE_ERROR_OK == apiResult)
 1085              		.loc 1 503 0
 1086 011c 0E23     		movs	r3, #14
 1087 011e FB18     		adds	r3, r7, r3
 1088 0120 1B88     		ldrh	r3, [r3]
 1089 0122 002B     		cmp	r3, #0
 1090 0124 34D1     		bne	.L75
 504:main.c        ****                 {
 505:main.c        **** 					/* Get current TX power */
 506:main.c        **** 					CyBle_GetTxPowerLevel(&txPower);
 1091              		.loc 1 506 0
 1092 0126 0823     		movs	r3, #8
 1093 0128 FB18     		adds	r3, r7, r3
 1094 012a 1800     		movs	r0, r3
 1095 012c FFF7FEFF 		bl	CyBle_GetTxPowerLevel
 507:main.c        **** 					
 508:main.c        ****                     /* Convert power level to numeric int8 value */
 509:main.c        ****                     intTxPowerLevel = ConvertTxPowerlevelToInt8(txPower.blePwrLevelInDbm);
 1096              		.loc 1 509 0
 1097 0130 0823     		movs	r3, #8
 1098 0132 FB18     		adds	r3, r7, r3
 1099 0134 1B78     		ldrb	r3, [r3]
 1100 0136 1800     		movs	r0, r3
 1101 0138 FFF7FEFF 		bl	ConvertTxPowerlevelToInt8
 1102 013c 0300     		movs	r3, r0
 1103 013e 5AB2     		sxtb	r2, r3
 1104 0140 FB1D     		adds	r3, r7, #7
 1105 0142 1A70     		strb	r2, [r3]
 510:main.c        **** 
 511:main.c        ****                     (void) CyBle_TpssSetCharacteristicValue(CYBLE_TPS_TX_POWER_LEVEL,
 1106              		.loc 1 511 0
 1107 0144 FB1D     		adds	r3, r7, #7
 1108 0146 1A00     		movs	r2, r3
 1109 0148 0121     		movs	r1, #1
 1110 014a 0020     		movs	r0, #0
 1111 014c FFF7FEFF 		bl	CyBle_TpssSetCharacteristicValue
 512:main.c        ****                                                             CYBLE_TPS_TX_POWER_LEVEL_SIZE,
 513:main.c        ****                                                             &intTxPowerLevel);
 514:main.c        **** 					
 515:main.c        **** 					if(tps_notification_enabled)
 1112              		.loc 1 515 0
 1113 0150 3A4B     		ldr	r3, .L86+32
 1114 0152 1B78     		ldrb	r3, [r3]
ARM GAS  C:\Users\LIAMSA~1\AppData\Local\Temp\ccGWPySn.s 			page 32


 1115 0154 DBB2     		uxtb	r3, r3
 1116 0156 002B     		cmp	r3, #0
 1117 0158 11D0     		beq	.L76
 516:main.c        **** 					{
 517:main.c        **** 						/* If notifications have been enabled, send notification data */
 518:main.c        **** 						(void) CyBle_TpssSendNotification(cyBle_connHandle, 
 1118              		.loc 1 518 0
 1119 015a F91D     		adds	r1, r7, #7
 1120 015c 384B     		ldr	r3, .L86+36
 1121 015e 1A78     		ldrb	r2, [r3]
 1122 0160 5B78     		ldrb	r3, [r3, #1]
 1123 0162 1B02     		lsls	r3, r3, #8
 1124 0164 1343     		orrs	r3, r2
 1125 0166 0020     		movs	r0, #0
 1126 0168 1B04     		lsls	r3, r3, #16
 1127 016a 1B0C     		lsrs	r3, r3, #16
 1128 016c 020C     		lsrs	r2, r0, #16
 1129 016e 1204     		lsls	r2, r2, #16
 1130 0170 1343     		orrs	r3, r2
 1131 0172 1800     		movs	r0, r3
 1132 0174 0B00     		movs	r3, r1
 1133 0176 0122     		movs	r2, #1
 1134 0178 0021     		movs	r1, #0
 1135 017a FFF7FEFF 		bl	CyBle_TpssSendNotification
 1136              	.L76:
 519:main.c        **** 															CYBLE_TPS_TX_POWER_LEVEL,
 520:main.c        **** 															CYBLE_TPS_TX_POWER_LEVEL_SIZE,
 521:main.c        ****                                                             &intTxPowerLevel);
 522:main.c        **** 					}
 523:main.c        **** 
 524:main.c        ****                     /* Display new Tx Power Level value */
 525:main.c        ****                     printf("Tx power level is set to %d dBm\r\n", intTxPowerLevel);
 1137              		.loc 1 525 0
 1138 017e FB1D     		adds	r3, r7, #7
 1139 0180 1B78     		ldrb	r3, [r3]
 1140 0182 5BB2     		sxtb	r3, r3
 1141 0184 1A00     		movs	r2, r3
 1142 0186 294B     		ldr	r3, .L86+16
 1143 0188 1100     		movs	r1, r2
 1144 018a 1800     		movs	r0, r3
 1145 018c FFF7FEFF 		bl	printf
 1146              	.L75:
 526:main.c        ****                 }
 527:main.c        ****             
 528:main.c        ****                 /* Reset button state */
 529:main.c        ****                 buttonState = BUTTON_IS_NOT_PRESSED;
 1147              		.loc 1 529 0
 1148 0190 284B     		ldr	r3, .L86+24
 1149 0192 0022     		movs	r2, #0
 1150 0194 1A70     		strb	r2, [r3]
 1151              	.L72:
 530:main.c        ****             }
 531:main.c        ****         }
 532:main.c        **** 
 533:main.c        ****         HandleLeds();
 1152              		.loc 1 533 0
 1153 0196 FFF7FEFF 		bl	HandleLeds
ARM GAS  C:\Users\LIAMSA~1\AppData\Local\Temp\ccGWPySn.s 			page 33


 534:main.c        ****         
 535:main.c        ****         if(CyBle_GetState() != CYBLE_STATE_INITIALIZING)
 1154              		.loc 1 535 0
 1155 019a 254B     		ldr	r3, .L86+20
 1156 019c 1B78     		ldrb	r3, [r3]
 1157 019e 012B     		cmp	r3, #1
 1158 01a0 00D1     		bne	.LCB898
 1159 01a2 77E7     		b	.L85	@long jump
 1160              	.LCB898:
 536:main.c        ****         {
 537:main.c        ****             /* Enter DeepSleep mode between connection intervals */
 538:main.c        ****             lpMode = CyBle_EnterLPM(CYBLE_BLESS_DEEPSLEEP);
 1161              		.loc 1 538 0
 1162 01a4 0D23     		movs	r3, #13
 1163 01a6 FC18     		adds	r4, r7, r3
 1164 01a8 0320     		movs	r0, #3
 1165 01aa FFF7FEFF 		bl	CyBle_EnterLPM
 1166 01ae 0300     		movs	r3, r0
 1167 01b0 2370     		strb	r3, [r4]
 539:main.c        ****             CyGlobalIntDisable;
 1168              		.loc 1 539 0
 1169              		.syntax divided
 1170              	@ 539 "main.c" 1
 1171 01b2 72B6     		CPSID   i
 1172              	@ 0 "" 2
 540:main.c        ****             blessState = CyBle_GetBleSsState();
 1173              		.loc 1 540 0
 1174              		.thumb
 1175              		.syntax unified
 1176 01b4 0C23     		movs	r3, #12
 1177 01b6 FC18     		adds	r4, r7, r3
 1178 01b8 FFF7FEFF 		bl	CyBle_GetBleSsState
 1179 01bc 0300     		movs	r3, r0
 1180 01be 2370     		strb	r3, [r4]
 541:main.c        **** 
 542:main.c        ****             if(lpMode == CYBLE_BLESS_DEEPSLEEP) 
 1181              		.loc 1 542 0
 1182 01c0 0D23     		movs	r3, #13
 1183 01c2 FB18     		adds	r3, r7, r3
 1184 01c4 1B78     		ldrb	r3, [r3]
 1185 01c6 032B     		cmp	r3, #3
 1186 01c8 1ED1     		bne	.L78
 543:main.c        ****             {   
 544:main.c        ****                 if(blessState == CYBLE_BLESS_STATE_ECO_ON || blessState == CYBLE_BLESS_STATE_DEEPSL
 1187              		.loc 1 544 0
 1188 01ca 0C23     		movs	r3, #12
 1189 01cc FB18     		adds	r3, r7, r3
 1190 01ce 1B78     		ldrb	r3, [r3]
 1191 01d0 042B     		cmp	r3, #4
 1192 01d2 04D0     		beq	.L79
 1193              		.loc 1 544 0 is_stmt 0 discriminator 1
 1194 01d4 0C23     		movs	r3, #12
 1195 01d6 FB18     		adds	r3, r7, r3
 1196 01d8 1B78     		ldrb	r3, [r3]
 1197 01da 062B     		cmp	r3, #6
 1198 01dc 1BD1     		bne	.L84
 1199              	.L79:
ARM GAS  C:\Users\LIAMSA~1\AppData\Local\Temp\ccGWPySn.s 			page 34


 545:main.c        ****                 {
 546:main.c        ****                     /* Put the device into the Deep Sleep mode only when all debug information has 
 547:main.c        ****                    if((UART_DEB_SpiUartGetTxBufferSize() + UART_DEB_GET_TX_FIFO_SR_VALID) == 0u)
 1200              		.loc 1 547 0 is_stmt 1
 1201 01de FFF7FEFF 		bl	UART_DEB_SpiUartGetTxBufferSize
 1202 01e2 0100     		movs	r1, r0
 1203 01e4 174B     		ldr	r3, .L86+40
 1204 01e6 1A68     		ldr	r2, [r3]
 1205 01e8 8023     		movs	r3, #128
 1206 01ea 1B02     		lsls	r3, r3, #8
 1207 01ec 1340     		ands	r3, r2
 1208 01ee 01D0     		beq	.L81
 1209              		.loc 1 547 0 is_stmt 0 discriminator 1
 1210 01f0 0123     		movs	r3, #1
 1211 01f2 00E0     		b	.L82
 1212              	.L81:
 1213              		.loc 1 547 0 discriminator 2
 1214 01f4 0023     		movs	r3, #0
 1215              	.L82:
 1216              		.loc 1 547 0 discriminator 4
 1217 01f6 CB18     		adds	r3, r1, r3
 1218 01f8 002B     		cmp	r3, #0
 1219 01fa 02D1     		bne	.L83
 548:main.c        ****                     {
 549:main.c        ****                         CySysPmDeepSleep();
 1220              		.loc 1 549 0 is_stmt 1
 1221 01fc FFF7FEFF 		bl	CySysPmDeepSleep
 1222 0200 09E0     		b	.L84
 1223              	.L83:
 550:main.c        ****                     }
 551:main.c        ****                     else
 552:main.c        ****                     {
 553:main.c        ****                         CySysPmSleep();
 1224              		.loc 1 553 0
 1225 0202 FFF7FEFF 		bl	CySysPmSleep
 1226 0206 06E0     		b	.L84
 1227              	.L78:
 554:main.c        ****                     }
 555:main.c        ****                 }
 556:main.c        ****             }
 557:main.c        ****             else
 558:main.c        ****             {
 559:main.c        ****                 if(blessState != CYBLE_BLESS_STATE_EVENT_CLOSE)
 1228              		.loc 1 559 0
 1229 0208 0C23     		movs	r3, #12
 1230 020a FB18     		adds	r3, r7, r3
 1231 020c 1B78     		ldrb	r3, [r3]
 1232 020e 022B     		cmp	r3, #2
 1233 0210 01D0     		beq	.L84
 560:main.c        ****                 {
 561:main.c        ****                     CySysPmSleep();
 1234              		.loc 1 561 0
 1235 0212 FFF7FEFF 		bl	CySysPmSleep
 1236              	.L84:
 562:main.c        ****                 }
 563:main.c        ****             }
 564:main.c        ****             CyGlobalIntEnable;
ARM GAS  C:\Users\LIAMSA~1\AppData\Local\Temp\ccGWPySn.s 			page 35


 1237              		.loc 1 564 0
 1238              		.syntax divided
 1239              	@ 564 "main.c" 1
 1240 0216 62B6     		CPSIE   i
 1241              	@ 0 "" 2
 565:main.c        ****         }
 566:main.c        ****     }
 1242              		.loc 1 566 0
 1243              		.thumb
 1244              		.syntax unified
 1245 0218 3CE7     		b	.L85
 1246              	.L87:
 1247 021a C046     		.align	2
 1248              	.L86:
 1249 021c 00000000 		.word	GenericAppEventHandler
 1250 0220 00000000 		.word	ButtonPressInt
 1251 0224 00000000 		.word	LlsServiceAppEventHandler
 1252 0228 00000000 		.word	TpsServiceAppEventHandler
 1253 022c 64020000 		.word	.LC59
 1254 0230 00000000 		.word	cyBle_state
 1255 0234 00000000 		.word	buttonState
 1256 0238 88020000 		.word	.LC63
 1257 023c 00000000 		.word	tps_notification_enabled
 1258 0240 00000000 		.word	cyBle_connHandle
 1259 0244 08022440 		.word	1076101640
 1260              		.cfi_endproc
 1261              	.LFE41:
 1262              		.size	main, .-main
 1263              		.text
 1264              	.Letext0:
 1265              		.file 2 "Generated_Source\\PSoC4/cytypes.h"
 1266              		.file 3 "Generated_Source\\PSoC4/CYBLE_Stack.h"
 1267              		.file 4 "Generated_Source\\PSoC4/CYBLE_StackHostMain.h"
 1268              		.file 5 "Generated_Source\\PSoC4/CYBLE_StackGatt.h"
 1269              		.file 6 "Generated_Source\\PSoC4/CYBLE_lls.h"
 1270              		.file 7 "Generated_Source\\PSoC4/CYBLE_tps.h"
 1271              		.file 8 "Generated_Source\\PSoC4/CYBLE_eventHandler.h"
 1272              		.file 9 "lls.h"